ARM GAS  /cygdrive/c/DOCUME~1/Tommy/LOKALA~1/Temp/ccZSH6Rj.s 			page 1


   1              		.code	16
   2              		.file	"main.c"
   3              		.section	.debug_abbrev,"",%progbits
   4              	.Ldebug_abbrev0:
   5              		.section	.debug_info,"",%progbits
   6              	.Ldebug_info0:
   7              		.section	.debug_line,"",%progbits
   8              	.Ldebug_line0:
   9 0000 49000000 		.text
   9      02001D00 
   9      00000201 
   9      FB0E0D00 
   9      01010101 
  10              	.Ltext0:
  11              		.section	.rodata.str1.4,"aMS",%progbits,1
  12              		.align	2
  13              	.LC0:
  14 0000 456E6B65 		.ascii	"Enkel avl\344sning av temperatursensorn/Tommy\000"
  14      6C206176 
  14      6CE4736E 
  14      696E6720 
  14      61762074 
  15 002b 00       		.align	2
  16              	.LC2:
  17 002c 0A54656D 		.ascii	"\012Temperaturen: %d grader C\000"
  17      70657261 
  17      74757265 
  17      6E3A2025 
  17      64206772 
  18 0047 00       		.text
  19              		.align	2
  20              		.global	main
  21              		.code 16
  22              		.thumb_func
  23              		.type	main, %function
  24              	main:
  25              	.LFB3:
  26              		.file 1 "main.c"
   1:main.c        **** /******************************************************************************
   2:main.c        ****  *
   3:main.c        ****  * Copyright:
   4:main.c        ****  *    (C) 2005 Embedded Artists AB
   5:main.c        ****  *
   6:main.c        ****  * File:
   7:main.c        ****  *    main.c
   8:main.c        ****  *
   9:main.c        ****  * Description:
  10:main.c        ****  *    Sample application that demonstrates how to use the i2c library.
  11:main.c        ****  *    Omarbetad för att testa hur man läser temp.sensorn /Tommy
  12:main.c        ****  *
  13:main.c        ****  *****************************************************************************/
  14:main.c        **** 
  15:main.c        **** /******************************************************************************
  16:main.c        ****  * Includes
  17:main.c        ****  *****************************************************************************/
  18:main.c        **** #include "general.h"
  19:main.c        **** #include <lpc2xxx.h>
ARM GAS  /cygdrive/c/DOCUME~1/Tommy/LOKALA~1/Temp/ccZSH6Rj.s 			page 2


  20:main.c        **** #include <printf_P.h>
  21:main.c        **** #include <ea_init.h>
  22:main.c        **** #include <framework.h>
  23:main.c        **** #include "startup/config.h"
  24:main.c        **** #include "i2c.h"
  25:main.c        **** 
  26:main.c        **** /******************************************************************************
  27:main.c        ****  * Defines and typedefs
  28:main.c        ****  *****************************************************************************/
  29:main.c        **** #define CRYSTAL_FREQUENCY FOSC
  30:main.c        **** #define PLL_FACTOR        PLL_MUL
  31:main.c        **** #define VPBDIV_FACTOR     PBSD
  32:main.c        **** 
  33:main.c        **** 
  34:main.c        **** 
  35:main.c        **** /*****************************************************************************
  36:main.c        ****  * Public function prototypes
  37:main.c        ****  ****************************************************************************/
  38:main.c        **** int main(void);
  39:main.c        **** 
  40:main.c        **** 
  41:main.c        **** /*****************************************************************************
  42:main.c        ****  * Local function prototypes
  43:main.c        ****  ****************************************************************************/
  44:main.c        **** static void delayMs(tU16 delayInMs);
  45:main.c        **** 
  46:main.c        **** 
  47:main.c        **** /*****************************************************************************
  48:main.c        ****  * Implementation of local functions
  49:main.c        ****  ****************************************************************************/
  50:main.c        **** 
  51:main.c        **** /*****************************************************************************
  52:main.c        ****  *
  53:main.c        ****  * Description:
  54:main.c        ****  *    Delay execution by a specified number of milliseconds by using
  55:main.c        ****  *    timer #1. A polled implementation.
  56:main.c        ****  *
  57:main.c        ****  * Params:
  58:main.c        ****  *    [in] delayInMs - the number of milliseconds to delay.
  59:main.c        ****  *
  60:main.c        ****  ****************************************************************************/
  61:main.c        **** static void
  62:main.c        **** delayMs(tU16 delayInMs)
  63:main.c        **** {
  64:main.c        ****   /*
  65:main.c        ****    * setup timer #1 for delay
  66:main.c        ****    */
  67:main.c        ****   TIMER1_TCR = 0x02;          //stop and reset timer
  68:main.c        ****   TIMER1_PR  = 0x00;          //set prescaler to zero
  69:main.c        ****   TIMER1_MR0 = delayInMs * ((CRYSTAL_FREQUENCY * PLL_FACTOR)/ (1000 * VPBDIV_FACTOR));
  70:main.c        ****   TIMER1_IR  = 0xff;          //reset all interrrupt flags
  71:main.c        ****   TIMER1_MCR = 0x04;          //stop timer on match
  72:main.c        ****   TIMER1_TCR = 0x01;          //start timer
  73:main.c        **** 
  74:main.c        ****   //wait until delay time has elapsed
  75:main.c        ****   while (TIMER1_TCR & 0x01)
  76:main.c        ****     ;
ARM GAS  /cygdrive/c/DOCUME~1/Tommy/LOKALA~1/Temp/ccZSH6Rj.s 			page 3


  77:main.c        **** }
  78:main.c        **** 
  79:main.c        **** 
  80:main.c        **** /*****************************************************************************
  81:main.c        ****  * Implementation of public functions
  82:main.c        ****  ****************************************************************************/
  83:main.c        **** 
  84:main.c        **** /*****************************************************************************
  85:main.c        ****  *
  86:main.c        ****  * Description:
  87:main.c        ****  *    The main-function.
  88:main.c        ****  *
  89:main.c        ****  * Returns:
  90:main.c        ****  *    Always 0, since return value is not used.
  91:main.c        ****  *
  92:main.c        ****  ****************************************************************************/
  93:main.c        **** int
  94:main.c        **** main(void)
  95:main.c        **** {
  27              		.loc 1 95 0
  28 0000 30B5     		push	{r4, r5, lr}
  29              	.LCFI0:
  30 0002 81B0     		sub	sp, sp, #4
  31              	.LCFI1:
  96:main.c        **** 
  97:main.c        **** 
  98:main.c        ****   //initialize printf()-functionality
  99:main.c        ****   eaInit();
  32              		.loc 1 99 0
  33 0004 FFF7FEFF 		bl	eaInit
 100:main.c        **** 
 101:main.c        ****   //print welcome message
 102:main.c        ****   printf("Enkel avläsning av temperatursensorn/Tommy");
  34              		.loc 1 102 0
  35 0008 1648     		ldr	r0, .L7
  36 000a FFF7FEFF 		bl	simplePrintf
 103:main.c        **** 
 104:main.c        ****   //initialice i2c communication
 105:main.c        ****   i2cInit(10000);
  37              		.loc 1 105 0
  38 000e 1648     		ldr	r0, .L7+4
  39 0010 FFF7FEFF 		bl	i2cInit
  40              	.L2:
  41              	.LBB5:
 106:main.c        **** 
 107:main.c        ****   //enter forever loop...
 108:main.c        ****   while(1)
 109:main.c        ****   {
 110:main.c        **** 
 111:main.c        ****     //Läs temperatur
 112:main.c        ****     //Enklast tänkbara, vi antar att pointern står defaultläge, vi struntar i retCode och vi printa
 113:main.c        ****     //resultatet blir då i grader C
 114:main.c        **** 
 115:main.c        ****     tU8 temperatur[2];		//två bytes hämtas från LM75
 116:main.c        **** 
 117:main.c        ****     temperatur[0]=0;		//8 mest signifikanta bitarna, lägsta biten svarar mot 1 grad C
  42              		.loc 1 117 0
ARM GAS  /cygdrive/c/DOCUME~1/Tommy/LOKALA~1/Temp/ccZSH6Rj.s 			page 4


  43 0014 6C46     		mov	r4, sp
  44 0016 0234     		add	r4, r4, #2
  45 0018 0025     		mov	r5, #0
  46 001a 2570     		strb	r5, [r4]
 118:main.c        ****     temperatur[1]=0;			//högsta biten svarar mot 0,5 grad C, övriga bitar utan info;
  47              		.loc 1 118 0
  48 001c 6570     		strb	r5, [r4, #1]
 119:main.c        **** 
 120:main.c        **** 
 121:main.c        **** 
 122:main.c        ****     i2cStart();
  49              		.loc 1 122 0
  50 001e FFF7FEFF 		bl	i2cStart
 123:main.c        ****     i2cRead(0x91,temperatur,2);  //de 7 mest signifikanta bitarna (bit 7-1) är adressen. Bit 0 = 1 
  51              		.loc 1 123 0
  52 0022 0222     		mov	r2, #2
  53 0024 211C     		mov	r1, r4
  54 0026 9120     		mov	r0, #145
  55 0028 FFF7FEFF 		bl	i2cRead
 124:main.c        ****     i2cStop();
  56              		.loc 1 124 0
  57 002c FFF7FEFF 		bl	i2cStop
 125:main.c        **** 
 126:main.c        ****     printf("\nTemperaturen: %d grader C",temperatur[0]);
  58              		.loc 1 126 0
  59 0030 2178     		ldrb	r1, [r4]
  60 0032 0E48     		ldr	r0, .L7+8
  61 0034 FFF7FEFF 		bl	simplePrintf
  62              	.LBB6:
  63              	.LBB7:
  64              		.loc 1 67 0
  65 0038 0D49     		ldr	r1, .L7+12
  66 003a 0223     		mov	r3, #2
  67 003c 0B60     		str	r3, [r1]
  68              		.loc 1 68 0
  69 003e 0D4B     		ldr	r3, .L7+16
  70              		.loc 1 69 0
  71 0040 0D4A     		ldr	r2, .L7+20
  72              		.loc 1 68 0
  73 0042 1D60     		str	r5, [r3]
  74              		.loc 1 69 0
  75 0044 0C33     		add	r3, r3, #12
  76 0046 1A60     		str	r2, [r3]
  77              		.loc 1 70 0
  78 0048 FF22     		mov	r2, #255
  79 004a 183B     		sub	r3, r3, #24
  80 004c 1A60     		str	r2, [r3]
  81              		.loc 1 71 0
  82 004e 1433     		add	r3, r3, #20
  83 0050 0422     		mov	r2, #4
  84 0052 1A60     		str	r2, [r3]
  85              		.loc 1 72 0
  86 0054 0123     		mov	r3, #1
  87 0056 0B60     		str	r3, [r1]
  88              	.L3:
  89              		.loc 1 75 0
  90 0058 054B     		ldr	r3, .L7+12
ARM GAS  /cygdrive/c/DOCUME~1/Tommy/LOKALA~1/Temp/ccZSH6Rj.s 			page 5


  91 005a 1B68     		ldr	r3, [r3]
  92 005c DA07     		lsl	r2, r3, #31
  93 005e FBD4     		bmi	.L3
  94 0060 D8E7     		b	.L2
  95              	.L8:
  96 0062 0000     		.align	2
  97              	.L7:
  98 0064 00000000 		.word	.LC0
  99 0068 10270000 		.word	10000
 100 006c 2C000000 		.word	.LC2
 101 0070 048000E0 		.word	-536838140
 102 0074 0C8000E0 		.word	-536838132
 103 0078 00879303 		.word	60000000
 104              	.LBE7:
 105              	.LBE6:
 106              	.LBE5:
 107              	.LFE3:
 108              		.size	main, .-main
 109              		.section	.debug_frame,"",%progbits
 110              	.Lframe0:
 111 0000 0C000000 		.4byte	.LECIE0-.LSCIE0
 112              	.LSCIE0:
 113 0004 FFFFFFFF 		.4byte	0xffffffff
 114 0008 01       		.byte	0x1
 115 0009 00       		.ascii	"\000"
 116 000a 01       		.uleb128 0x1
 117 000b 7C       		.sleb128 -4
 118 000c 0E       		.byte	0xe
 119 000d 0C       		.byte	0xc
 120 000e 0D       		.uleb128 0xd
 121 000f 00       		.uleb128 0x0
 122              		.align	2
 123              	.LECIE0:
 124              	.LSFDE0:
 125 0010 18000000 		.4byte	.LEFDE0-.LASFDE0
 126              	.LASFDE0:
 127 0014 00000000 		.4byte	.Lframe0
 128 0018 00000000 		.4byte	.LFB3
 129 001c 7C000000 		.4byte	.LFE3-.LFB3
 130 0020 42       		.byte	0x4
 131              		.4byte	.LCFI0-.LFB3
 132 0021 0E       		.byte	0xe
 133 0022 0C       		.uleb128 0xc
 134 0023 84       		.byte	0x84
 135 0024 03       		.uleb128 0x3
 136 0025 85       		.byte	0x85
 137 0026 02       		.uleb128 0x2
 138 0027 8E       		.byte	0x8e
 139 0028 01       		.uleb128 0x1
 140 0029 42       		.byte	0x4
 141              		.4byte	.LCFI1-.LCFI0
 142 002a 0E       		.byte	0xe
 143 002b 10       		.uleb128 0x10
 144              		.align	2
 145              	.LEFDE0:
 146              		.text
 147              	.Letext0:
ARM GAS  /cygdrive/c/DOCUME~1/Tommy/LOKALA~1/Temp/ccZSH6Rj.s 			page 6


 148              		.section	.debug_loc,"",%progbits
 149              	.Ldebug_loc0:
 150              	.LLST0:
 151 0000 00000000 		.4byte	.LFB3-.Ltext0
 152 0004 02000000 		.4byte	.LCFI0-.Ltext0
 153 0008 0100     		.2byte	0x1
 154 000a 5D       		.byte	0x5d
 155 000b 02000000 		.4byte	.LCFI0-.Ltext0
 156 000f 04000000 		.4byte	.LCFI1-.Ltext0
 157 0013 0200     		.2byte	0x2
 158 0015 7D       		.byte	0x7d
 159 0016 0C       		.sleb128 12
 160 0017 04000000 		.4byte	.LCFI1-.Ltext0
 161 001b 7C000000 		.4byte	.LFE3-.Ltext0
 162 001f 0200     		.2byte	0x2
 163 0021 7D       		.byte	0x7d
 164 0022 10       		.sleb128 16
 165 0023 00000000 		.4byte	0x0
 166 0027 00000000 		.4byte	0x0
 167              		.section	.debug_info
 168 0000 B2000000 		.4byte	0xb2
 169 0004 0200     		.2byte	0x2
 170 0006 00000000 		.4byte	.Ldebug_abbrev0
 171 000a 04       		.byte	0x4
 172 000b 01       		.uleb128 0x1
 173 000c 00000000 		.4byte	.Ldebug_line0
 174 0010 7C000000 		.4byte	.Letext0
 175 0014 00000000 		.4byte	.Ltext0
 176 0018 68000000 		.4byte	.LASF3
 177 001c 01       		.byte	0x1
 178 001d 74000000 		.4byte	.LASF4
 179 0021 42000000 		.4byte	.LASF5
 180 0025 02       		.uleb128 0x2
 181 0026 3E000000 		.4byte	0x3e
 182 002a 12000000 		.4byte	.LASF6
 183 002e 01       		.byte	0x1
 184 002f 3F       		.byte	0x3f
 185 0030 01       		.byte	0x1
 186 0031 01       		.byte	0x1
 187 0032 03       		.uleb128 0x3
 188 0033 1A000000 		.4byte	.LASF7
 189 0037 01       		.byte	0x1
 190 0038 3E       		.byte	0x3e
 191 0039 3E000000 		.4byte	0x3e
 192 003d 00       		.byte	0x0
 193 003e 04       		.uleb128 0x4
 194 003f 24000000 		.4byte	.LASF0
 195 0043 02       		.byte	0x2
 196 0044 07       		.byte	0x7
 197 0045 05       		.uleb128 0x5
 198 0046 90000000 		.4byte	0x90
 199 004a 01       		.byte	0x1
 200 004b 89000000 		.4byte	.LASF8
 201 004f 01       		.byte	0x1
 202 0050 5F       		.byte	0x5f
 203 0051 01       		.byte	0x1
 204 0052 90000000 		.4byte	0x90
ARM GAS  /cygdrive/c/DOCUME~1/Tommy/LOKALA~1/Temp/ccZSH6Rj.s 			page 7


 205 0056 00000000 		.4byte	.LFB3
 206 005a 7C000000 		.4byte	.LFE3
 207 005e 00000000 		.4byte	.LLST0
 208 0062 06       		.uleb128 0x6
 209 0063 14000000 		.4byte	.LBB5
 210 0067 7C000000 		.4byte	.LBE5
 211 006b 07       		.uleb128 0x7
 212 006c 37000000 		.4byte	.LASF9
 213 0070 01       		.byte	0x1
 214 0071 73       		.byte	0x73
 215 0072 97000000 		.4byte	0x97
 216 0076 02       		.byte	0x2
 217 0077 91       		.byte	0x91
 218 0078 72       		.sleb128 -14
 219 0079 08       		.uleb128 0x8
 220 007a 25000000 		.4byte	0x25
 221 007e 38000000 		.4byte	.LBB6
 222 0082 7C000000 		.4byte	.LBE6
 223 0086 01       		.byte	0x1
 224 0087 84       		.byte	0x84
 225 0088 09       		.uleb128 0x9
 226 0089 32000000 		.4byte	0x32
 227 008d 00       		.byte	0x0
 228 008e 00       		.byte	0x0
 229 008f 00       		.byte	0x0
 230 0090 0A       		.uleb128 0xa
 231 0091 696E7400 		.ascii	"int\000"
 232 0095 04       		.byte	0x4
 233 0096 05       		.byte	0x5
 234 0097 0B       		.uleb128 0xb
 235 0098 A7000000 		.4byte	0xa7
 236 009c AE000000 		.4byte	0xae
 237 00a0 0C       		.uleb128 0xc
 238 00a1 A7000000 		.4byte	0xa7
 239 00a5 01       		.byte	0x1
 240 00a6 00       		.byte	0x0
 241 00a7 04       		.uleb128 0x4
 242 00a8 00000000 		.4byte	.LASF1
 243 00ac 04       		.byte	0x4
 244 00ad 07       		.byte	0x7
 245 00ae 04       		.uleb128 0x4
 246 00af 7B000000 		.4byte	.LASF2
 247 00b3 01       		.byte	0x1
 248 00b4 08       		.byte	0x8
 249 00b5 00       		.byte	0x0
 250              		.section	.debug_abbrev
 251 0000 01       		.uleb128 0x1
 252 0001 11       		.uleb128 0x11
 253 0002 01       		.byte	0x1
 254 0003 10       		.uleb128 0x10
 255 0004 06       		.uleb128 0x6
 256 0005 12       		.uleb128 0x12
 257 0006 01       		.uleb128 0x1
 258 0007 11       		.uleb128 0x11
 259 0008 01       		.uleb128 0x1
 260 0009 25       		.uleb128 0x25
 261 000a 0E       		.uleb128 0xe
ARM GAS  /cygdrive/c/DOCUME~1/Tommy/LOKALA~1/Temp/ccZSH6Rj.s 			page 8


 262 000b 13       		.uleb128 0x13
 263 000c 0B       		.uleb128 0xb
 264 000d 03       		.uleb128 0x3
 265 000e 0E       		.uleb128 0xe
 266 000f 1B       		.uleb128 0x1b
 267 0010 0E       		.uleb128 0xe
 268 0011 00       		.byte	0x0
 269 0012 00       		.byte	0x0
 270 0013 02       		.uleb128 0x2
 271 0014 2E       		.uleb128 0x2e
 272 0015 01       		.byte	0x1
 273 0016 01       		.uleb128 0x1
 274 0017 13       		.uleb128 0x13
 275 0018 03       		.uleb128 0x3
 276 0019 0E       		.uleb128 0xe
 277 001a 3A       		.uleb128 0x3a
 278 001b 0B       		.uleb128 0xb
 279 001c 3B       		.uleb128 0x3b
 280 001d 0B       		.uleb128 0xb
 281 001e 27       		.uleb128 0x27
 282 001f 0C       		.uleb128 0xc
 283 0020 20       		.uleb128 0x20
 284 0021 0B       		.uleb128 0xb
 285 0022 00       		.byte	0x0
 286 0023 00       		.byte	0x0
 287 0024 03       		.uleb128 0x3
 288 0025 05       		.uleb128 0x5
 289 0026 00       		.byte	0x0
 290 0027 03       		.uleb128 0x3
 291 0028 0E       		.uleb128 0xe
 292 0029 3A       		.uleb128 0x3a
 293 002a 0B       		.uleb128 0xb
 294 002b 3B       		.uleb128 0x3b
 295 002c 0B       		.uleb128 0xb
 296 002d 49       		.uleb128 0x49
 297 002e 13       		.uleb128 0x13
 298 002f 00       		.byte	0x0
 299 0030 00       		.byte	0x0
 300 0031 04       		.uleb128 0x4
 301 0032 24       		.uleb128 0x24
 302 0033 00       		.byte	0x0
 303 0034 03       		.uleb128 0x3
 304 0035 0E       		.uleb128 0xe
 305 0036 0B       		.uleb128 0xb
 306 0037 0B       		.uleb128 0xb
 307 0038 3E       		.uleb128 0x3e
 308 0039 0B       		.uleb128 0xb
 309 003a 00       		.byte	0x0
 310 003b 00       		.byte	0x0
 311 003c 05       		.uleb128 0x5
 312 003d 2E       		.uleb128 0x2e
 313 003e 01       		.byte	0x1
 314 003f 01       		.uleb128 0x1
 315 0040 13       		.uleb128 0x13
 316 0041 3F       		.uleb128 0x3f
 317 0042 0C       		.uleb128 0xc
 318 0043 03       		.uleb128 0x3
ARM GAS  /cygdrive/c/DOCUME~1/Tommy/LOKALA~1/Temp/ccZSH6Rj.s 			page 9


 319 0044 0E       		.uleb128 0xe
 320 0045 3A       		.uleb128 0x3a
 321 0046 0B       		.uleb128 0xb
 322 0047 3B       		.uleb128 0x3b
 323 0048 0B       		.uleb128 0xb
 324 0049 27       		.uleb128 0x27
 325 004a 0C       		.uleb128 0xc
 326 004b 49       		.uleb128 0x49
 327 004c 13       		.uleb128 0x13
 328 004d 11       		.uleb128 0x11
 329 004e 01       		.uleb128 0x1
 330 004f 12       		.uleb128 0x12
 331 0050 01       		.uleb128 0x1
 332 0051 40       		.uleb128 0x40
 333 0052 06       		.uleb128 0x6
 334 0053 00       		.byte	0x0
 335 0054 00       		.byte	0x0
 336 0055 06       		.uleb128 0x6
 337 0056 0B       		.uleb128 0xb
 338 0057 01       		.byte	0x1
 339 0058 11       		.uleb128 0x11
 340 0059 01       		.uleb128 0x1
 341 005a 12       		.uleb128 0x12
 342 005b 01       		.uleb128 0x1
 343 005c 00       		.byte	0x0
 344 005d 00       		.byte	0x0
 345 005e 07       		.uleb128 0x7
 346 005f 34       		.uleb128 0x34
 347 0060 00       		.byte	0x0
 348 0061 03       		.uleb128 0x3
 349 0062 0E       		.uleb128 0xe
 350 0063 3A       		.uleb128 0x3a
 351 0064 0B       		.uleb128 0xb
 352 0065 3B       		.uleb128 0x3b
 353 0066 0B       		.uleb128 0xb
 354 0067 49       		.uleb128 0x49
 355 0068 13       		.uleb128 0x13
 356 0069 02       		.uleb128 0x2
 357 006a 0A       		.uleb128 0xa
 358 006b 00       		.byte	0x0
 359 006c 00       		.byte	0x0
 360 006d 08       		.uleb128 0x8
 361 006e 1D       		.uleb128 0x1d
 362 006f 01       		.byte	0x1
 363 0070 31       		.uleb128 0x31
 364 0071 13       		.uleb128 0x13
 365 0072 11       		.uleb128 0x11
 366 0073 01       		.uleb128 0x1
 367 0074 12       		.uleb128 0x12
 368 0075 01       		.uleb128 0x1
 369 0076 58       		.uleb128 0x58
 370 0077 0B       		.uleb128 0xb
 371 0078 59       		.uleb128 0x59
 372 0079 0B       		.uleb128 0xb
 373 007a 00       		.byte	0x0
 374 007b 00       		.byte	0x0
 375 007c 09       		.uleb128 0x9
ARM GAS  /cygdrive/c/DOCUME~1/Tommy/LOKALA~1/Temp/ccZSH6Rj.s 			page 10


 376 007d 05       		.uleb128 0x5
 377 007e 00       		.byte	0x0
 378 007f 31       		.uleb128 0x31
 379 0080 13       		.uleb128 0x13
 380 0081 00       		.byte	0x0
 381 0082 00       		.byte	0x0
 382 0083 0A       		.uleb128 0xa
 383 0084 24       		.uleb128 0x24
 384 0085 00       		.byte	0x0
 385 0086 03       		.uleb128 0x3
 386 0087 08       		.uleb128 0x8
 387 0088 0B       		.uleb128 0xb
 388 0089 0B       		.uleb128 0xb
 389 008a 3E       		.uleb128 0x3e
 390 008b 0B       		.uleb128 0xb
 391 008c 00       		.byte	0x0
 392 008d 00       		.byte	0x0
 393 008e 0B       		.uleb128 0xb
 394 008f 01       		.uleb128 0x1
 395 0090 01       		.byte	0x1
 396 0091 01       		.uleb128 0x1
 397 0092 13       		.uleb128 0x13
 398 0093 49       		.uleb128 0x49
 399 0094 13       		.uleb128 0x13
 400 0095 00       		.byte	0x0
 401 0096 00       		.byte	0x0
 402 0097 0C       		.uleb128 0xc
 403 0098 21       		.uleb128 0x21
 404 0099 00       		.byte	0x0
 405 009a 49       		.uleb128 0x49
 406 009b 13       		.uleb128 0x13
 407 009c 2F       		.uleb128 0x2f
 408 009d 0B       		.uleb128 0xb
 409 009e 00       		.byte	0x0
 410 009f 00       		.byte	0x0
 411 00a0 00       		.byte	0x0
 412              		.section	.debug_pubnames,"",%progbits
 413 0000 17000000 		.4byte	0x17
 414 0004 0200     		.2byte	0x2
 415 0006 00000000 		.4byte	.Ldebug_info0
 416 000a B6000000 		.4byte	0xb6
 417 000e 45000000 		.4byte	0x45
 418 0012 6D61696E 		.ascii	"main\000"
 418      00
 419 0017 00000000 		.4byte	0x0
 420              		.section	.debug_aranges,"",%progbits
 421 0000 1C000000 		.4byte	0x1c
 422 0004 0200     		.2byte	0x2
 423 0006 00000000 		.4byte	.Ldebug_info0
 424 000a 04       		.byte	0x4
 425 000b 00       		.byte	0x0
 426 000c 0000     		.2byte	0x0
 427 000e 0000     		.2byte	0x0
 428 0010 00000000 		.4byte	.Ltext0
 429 0014 7C000000 		.4byte	.Letext0-.Ltext0
 430 0018 00000000 		.4byte	0x0
 431 001c 00000000 		.4byte	0x0
ARM GAS  /cygdrive/c/DOCUME~1/Tommy/LOKALA~1/Temp/ccZSH6Rj.s 			page 11


 432              		.section	.debug_str,"MS",%progbits,1
 433              	.LASF1:
 434 0000 6C6F6E67 		.ascii	"long unsigned int\000"
 434      20756E73 
 434      69676E65 
 434      6420696E 
 434      7400
 435              	.LASF6:
 436 0012 64656C61 		.ascii	"delayMs\000"
 436      794D7300 
 437              	.LASF7:
 438 001a 64656C61 		.ascii	"delayInMs\000"
 438      79496E4D 
 438      7300
 439              	.LASF0:
 440 0024 73686F72 		.ascii	"short unsigned int\000"
 440      7420756E 
 440      7369676E 
 440      65642069 
 440      6E7400
 441              	.LASF9:
 442 0037 74656D70 		.ascii	"temperatur\000"
 442      65726174 
 442      757200
 443              	.LASF5:
 444 0042 2F637967 		.ascii	"/cygdrive/c/eclipse/workspace/I2Ctest\000"
 444      64726976 
 444      652F632F 
 444      65636C69 
 444      7073652F 
 445              	.LASF3:
 446 0068 474E5520 		.ascii	"GNU C 4.1.1\000"
 446      4320342E 
 446      312E3100 
 447              	.LASF4:
 448 0074 6D61696E 		.ascii	"main.c\000"
 448      2E6300
 449              	.LASF2:
 450 007b 756E7369 		.ascii	"unsigned char\000"
 450      676E6564 
 450      20636861 
 450      7200
 451              	.LASF8:
 452 0089 6D61696E 		.ascii	"main\000"
 452      00
 453              		.ident	"GCC: (GNU) 4.1.1"
ARM GAS  /cygdrive/c/DOCUME~1/Tommy/LOKALA~1/Temp/ccZSH6Rj.s 			page 12


DEFINED SYMBOLS
                            *ABS*:00000000 main.c
/cygdrive/c/DOCUME~1/Tommy/LOKALA~1/Temp/ccZSH6Rj.s:1      .text:00000000 $t
/cygdrive/c/DOCUME~1/Tommy/LOKALA~1/Temp/ccZSH6Rj.s:24     .text:00000000 main
/cygdrive/c/DOCUME~1/Tommy/LOKALA~1/Temp/ccZSH6Rj.s:98     .text:00000064 $d

UNDEFINED SYMBOLS
eaInit
simplePrintf
i2cInit
i2cStart
i2cRead
i2cStop
