ARM GAS  /cygdrive/c/DOCUME~1/deforce/LOKALA~1/Temp/ccoNSqoy.s 			page 1


   1              		.file	"framework.c"
   8 0000 AD000000 		.text
   8      02002200 
   8      00000201 
   8      FB0E0D00 
   8      01010101 
   9              	.Ltext0:
  10              		.align	2
  11              		.global	exceptionHandlerInit
  12              		.type	exceptionHandlerInit, %function
  13              	exceptionHandlerInit:
  14              	.LFB7:
  15              		.file 1 "framework.c"
   1:framework.c   **** /******************************************************************************
   2:framework.c   ****  *
   3:framework.c   ****  * Copyright:
   4:framework.c   ****  *    (C) 2000 - 2005 Embedded Artists AB
   5:framework.c   ****  *
   6:framework.c   ****  * Description:
   7:framework.c   ****  *    Framework for ARM7 processor
   8:framework.c   ****  *
   9:framework.c   ****  *****************************************************************************/
  10:framework.c   **** 
  11:framework.c   **** /******************************************************************************
  12:framework.c   ****  * Includes
  13:framework.c   ****  *****************************************************************************/
  14:framework.c   **** #include "lpc2xxx.h"                            /* LPC2xxx definitions */
  15:framework.c   **** #include "config.h"
  16:framework.c   **** #include "framework.h"
  17:framework.c   **** #include "consol.h"
  18:framework.c   **** 
  19:framework.c   **** /******************************************************************************
  20:framework.c   ****  * Defines, macros, and typedefs
  21:framework.c   ****  *****************************************************************************/
  22:framework.c   **** 
  23:framework.c   **** 
  24:framework.c   **** /******************************************************************************
  25:framework.c   ****  * External variables
  26:framework.c   ****  *****************************************************************************/
  27:framework.c   **** extern char end asm ("end");  //the symbol "end" is defined by the linker script
  28:framework.c   **** 
  29:framework.c   **** 
  30:framework.c   **** /******************************************************************************
  31:framework.c   ****  * Public variables
  32:framework.c   ****  *****************************************************************************/
  33:framework.c   **** unsigned char *pHeapStart;
  34:framework.c   **** unsigned char *pHeapEnd;
  35:framework.c   **** 
  36:framework.c   **** 
  37:framework.c   **** /******************************************************************************
  38:framework.c   ****  * External functions
ARM GAS  /cygdrive/c/DOCUME~1/deforce/LOKALA~1/Temp/ccoNSqoy.s 			page 2


  39:framework.c   ****  *****************************************************************************/
  40:framework.c   **** 
  41:framework.c   **** 
  42:framework.c   **** /******************************************************************************
  43:framework.c   ****  * Public functions
  44:framework.c   ****  *****************************************************************************/
  45:framework.c   **** void lowLevelInit(void);
  46:framework.c   **** void eaInit(void);
  47:framework.c   **** void exceptionHandlerInit(void);
  48:framework.c   **** 
  49:framework.c   **** /******************************************************************************
  50:framework.c   ****  * Implementation of local functions
  51:framework.c   ****  *****************************************************************************/
  52:framework.c   **** 
  53:framework.c   **** /*****************************************************************************
  54:framework.c   ****  *
  55:framework.c   ****  * Description:
  56:framework.c   ****  *    Default exception handler for undefined instruction.
  57:framework.c   ****  *    Prints information and halt. Observe that code execture in exception
  58:framework.c   ****  *    mode (as opposed to supervisor mode, which is the normal execution mode).
  59:framework.c   ****  *
  60:framework.c   ****  ****************************************************************************/
  61:framework.c   **** static void
  62:framework.c   **** exceptionHandlerUndef(void)
  63:framework.c   **** {
  64:framework.c   ****   register unsigned int programCounter asm ("lr");
  65:framework.c   ****   unsigned int          value = programCounter - (unsigned int)0x04;
  66:framework.c   **** 
  67:framework.c   ****   consolSendString("Undefined instruction exception !!!\nAddress: 0x");
  68:framework.c   ****   consolSendNumber(16, 8, 0, '0', value); 
  69:framework.c   ****   while(1)
  70:framework.c   ****     ;
  71:framework.c   **** }
  72:framework.c   **** 
  73:framework.c   **** /*****************************************************************************
  74:framework.c   ****  *
  75:framework.c   ****  * Description:
  76:framework.c   ****  *    Default exception handler for software interrupt.
  77:framework.c   ****  *    Prints information and halt. Observe that code execture in exception
  78:framework.c   ****  *    mode (as opposed to supervisor mode, which is the normal execution mode).
  79:framework.c   ****  *
  80:framework.c   ****  ****************************************************************************/
  81:framework.c   **** static void
  82:framework.c   **** exceptionHandlerSwi(void)
  83:framework.c   **** {
  84:framework.c   ****   register unsigned int programCounter asm ("lr");
  85:framework.c   ****   unsigned int          value = programCounter - (unsigned int)0x04;
  86:framework.c   **** 
  87:framework.c   ****   consolSendString("SWI exception !!!\nAddress: 0x");
  88:framework.c   ****   consolSendNumber(16, 8, 0, '0', value); 
  89:framework.c   ****   while(1)
  90:framework.c   ****     ;
  91:framework.c   **** }
  92:framework.c   **** 
  93:framework.c   **** /*****************************************************************************
  94:framework.c   ****  *
  95:framework.c   ****  * Description:
ARM GAS  /cygdrive/c/DOCUME~1/deforce/LOKALA~1/Temp/ccoNSqoy.s 			page 3


  96:framework.c   ****  *    Default exception handler for invalid program fetch.
  97:framework.c   ****  *    Prints information and halt. Observe that code execture in exception
  98:framework.c   ****  *    mode (as opposed to supervisor mode, which is the normal execution mode).
  99:framework.c   ****  *
 100:framework.c   ****  ****************************************************************************/
 101:framework.c   **** static void
 102:framework.c   **** exceptionHandlerPabort()
 103:framework.c   **** {
 104:framework.c   ****   register unsigned int programCounter asm ("lr");
 105:framework.c   ****   unsigned int          value = programCounter - (unsigned int)0x04;
 106:framework.c   **** 
 107:framework.c   ****   consolSendString("Pabort exception !!!\nAddress: 0x");
 108:framework.c   ****   consolSendNumber(16, 8, 0, '0', value); 
 109:framework.c   ****   while(1)
 110:framework.c   ****     ;
 111:framework.c   **** }
 112:framework.c   **** 
 113:framework.c   **** /*****************************************************************************
 114:framework.c   ****  *
 115:framework.c   ****  * Description:
 116:framework.c   ****  *    Default exception handler for invalid data access.
 117:framework.c   ****  *    Prints information and halt. Observe that code execture in exception
 118:framework.c   ****  *    mode (as opposed to supervisor mode, which is the normal execution mode).
 119:framework.c   ****  *
 120:framework.c   ****  ****************************************************************************/
 121:framework.c   **** static void
 122:framework.c   **** exceptionHandlerDabort(void)
 123:framework.c   **** {
 124:framework.c   ****   register unsigned int programCounter asm ("lr");
 125:framework.c   ****   unsigned int          value = programCounter - (unsigned int)0x08;
 126:framework.c   **** 
 127:framework.c   ****   consolSendString("Dabort exception !!!\nAddress: 0x");
 128:framework.c   ****   consolSendNumber(16, 8, 0, '0', value); 
 129:framework.c   ****   while(1)
 130:framework.c   ****     ;
 131:framework.c   **** }
 132:framework.c   **** 
 133:framework.c   **** /*****************************************************************************
 134:framework.c   ****  *
 135:framework.c   ****  * Description:
 136:framework.c   ****  *    Default exception handler for fast interrupts.
 137:framework.c   ****  *    Prints information and halt. Observe that code execture in exception
 138:framework.c   ****  *    mode (as opposed to supervisor mode, which is the normal execution mode).
 139:framework.c   ****  *
 140:framework.c   ****  ****************************************************************************/
 141:framework.c   **** static void
 142:framework.c   **** exceptionHandlerFiq(void)
 143:framework.c   **** {
 144:framework.c   ****   register unsigned int programCounter asm ("lr");
 145:framework.c   ****   unsigned int          value = programCounter - (unsigned int)0x04;
 146:framework.c   **** 
 147:framework.c   ****   consolSendString("FIQ exception !!!\nAddress: 0x");
 148:framework.c   ****   consolSendNumber(16, 8, 0, '0', value); 
 149:framework.c   ****   while(1)
 150:framework.c   ****     ;
 151:framework.c   **** }
 152:framework.c   **** 
ARM GAS  /cygdrive/c/DOCUME~1/deforce/LOKALA~1/Temp/ccoNSqoy.s 			page 4


 153:framework.c   **** #if (IRQ_HANDLER == 0)
 154:framework.c   **** /*****************************************************************************
 155:framework.c   ****  *
 156:framework.c   ****  * Description:
 157:framework.c   ****  *    Default exception handler for normal interrupts. This handler should
 158:framework.c   ****  *    normally never be used.
 159:framework.c   ****  *    Prints information and halt. Observe that code execture in exception
 160:framework.c   ****  *    mode (as opposed to supervisor mode, which is the normal execution mode).
 161:framework.c   ****  *
 162:framework.c   ****  ****************************************************************************/
 163:framework.c   **** static void
 164:framework.c   **** exceptionHandlerIrq(void)
 165:framework.c   **** {
 166:framework.c   ****   register unsigned int programCounter asm ("lr");
 167:framework.c   ****   unsigned int          value = programCounter - (unsigned int)0x04;
 168:framework.c   **** 
 169:framework.c   ****   consolSendString("IRQ exception !!!\nAddress: 0x");
 170:framework.c   ****   consolSendNumber(16, 8, 0, '0', value); 
 171:framework.c   ****   while(1)
 172:framework.c   ****     ;
 173:framework.c   **** }
 174:framework.c   **** #endif
 175:framework.c   **** 
 176:framework.c   **** /******************************************************************************
 177:framework.c   ****  * Implementation of public functions
 178:framework.c   ****  *****************************************************************************/
 179:framework.c   **** 
 180:framework.c   **** /*****************************************************************************
 181:framework.c   ****  *
 182:framework.c   ****  * Description:
 183:framework.c   ****  *    Connect all default exception handlers.
 184:framework.c   ****  *    The application can overwrite these handlers with new ones.
 185:framework.c   ****  *
 186:framework.c   ****  ****************************************************************************/
 187:framework.c   **** void
 188:framework.c   **** exceptionHandlerInit(void)
 189:framework.c   **** {
  16              		.loc 1 189 0
  17              		@ Function supports interworking.
  18              		@ args = 0, pretend = 0, frame = 0
  19              		@ frame_needed = 0, uses_anonymous_args = 0
  20              		@ link register save eliminated.
 190:framework.c   ****   pISR_UNDEF  = (unsigned int)exceptionHandlerUndef;
 191:framework.c   ****   pISR_SWI    = (unsigned int)exceptionHandlerSwi;
 192:framework.c   ****   pISR_PABORT = (unsigned int)exceptionHandlerPabort;
 193:framework.c   ****   pISR_DABORT = (unsigned int)exceptionHandlerDabort;
 194:framework.c   ****   pISR_FIQ    = (unsigned int)exceptionHandlerFiq;
  21              		.loc 1 194 0
  22 0000 40309FE5 		ldr	r3, .L3
  23              		.loc 1 190 0
  24 0004 0111A0E3 		mov	r1, #1073741824
 195:framework.c   **** 
 196:framework.c   **** #if (IRQ_HANDLER == 0)
 197:framework.c   ****   pISR_IRQ    = (unsigned int)exceptionHandlerIrq;
 198:framework.c   **** #endif
 199:framework.c   **** 
 200:framework.c   ****   //set heap limits
ARM GAS  /cygdrive/c/DOCUME~1/deforce/LOKALA~1/Temp/ccoNSqoy.s 			page 5


 201:framework.c   ****   pHeapStart = &end;
  25              		.loc 1 201 0
  26 0008 3C209FE5 		ldr	r2, .L3+4
  27              		.loc 1 194 0
  28 000c 383081E5 		str	r3, [r1, #56]
  29              		.loc 1 201 0
  30 0010 38309FE5 		ldr	r3, .L3+8
  31 0014 002083E5 		str	r2, [r3, #0]
 202:framework.c   ****   pHeapEnd   = (unsigned char*)((STK_SADDR - 1) & 0xfffffffc);
  32              		.loc 1 202 0
  33 0018 34309FE5 		ldr	r3, .L3+12
  34 001c 34209FE5 		ldr	r2, .L3+16
  35 0020 002083E5 		str	r2, [r3, #0]
  36              		.loc 1 190 0
  37 0024 30309FE5 		ldr	r3, .L3+20
  38 0028 243081E5 		str	r3, [r1, #36]
  39              		.loc 1 191 0
  40 002c 2C309FE5 		ldr	r3, .L3+24
  41 0030 283081E5 		str	r3, [r1, #40]
  42              		.loc 1 192 0
  43 0034 28309FE5 		ldr	r3, .L3+28
  44 0038 2C3081E5 		str	r3, [r1, #44]
  45              		.loc 1 193 0
  46 003c 24309FE5 		ldr	r3, .L3+32
  47              		.loc 1 189 0
  48              		@ lr needed for prologue
  49              		.loc 1 193 0
  50 0040 303081E5 		str	r3, [r1, #48]
 203:framework.c   **** }
  51              		.loc 1 203 0
  52 0044 1EFF2FE1 		bx	lr
  53              	.L4:
  54              		.align	2
  55              	.L3:
  56 0048 7C010000 		.word	exceptionHandlerFiq
  57 004c 00000000 		.word	end
  58 0050 00000000 		.word	pHeapStart
  59 0054 00000000 		.word	pHeapEnd
  60 0058 4C7A0040 		.word	1073773132
  61 005c 4C020000 		.word	exceptionHandlerUndef
  62 0060 18020000 		.word	exceptionHandlerSwi
  63 0064 E4010000 		.word	exceptionHandlerPabort
  64 0068 B0010000 		.word	exceptionHandlerDabort
  65              	.LFE7:
  66              		.size	exceptionHandlerInit, .-exceptionHandlerInit
  67              		.align	2
  68              		.global	lowLevelInit
  69              		.type	lowLevelInit, %function
  70              	lowLevelInit:
  71              	.LFB8:
 204:framework.c   **** 
 205:framework.c   **** /*****************************************************************************
 206:framework.c   ****  *
 207:framework.c   ****  * Description:
 208:framework.c   ****  *    Initialize system functions and GPIO
 209:framework.c   ****  *
 210:framework.c   ****  ****************************************************************************/
ARM GAS  /cygdrive/c/DOCUME~1/deforce/LOKALA~1/Temp/ccoNSqoy.s 			page 6


 211:framework.c   **** void
 212:framework.c   **** lowLevelInit(void)
 213:framework.c   **** {
  72              		.loc 1 213 0
  73              		@ Function supports interworking.
  74              		@ args = 0, pretend = 0, frame = 0
  75              		@ frame_needed = 0, uses_anonymous_args = 0
 214:framework.c   ****   PINSEL0 = 0x00000000;  
 215:framework.c   ****   PINSEL1 = 0x00000000;  
 216:framework.c   **** 
 217:framework.c   ****   IOSET = 0x00000000;       //Initialize pins to high level
  76              		.loc 1 217 0
  77 006c A0109FE5 		ldr	r1, .L7
  78              		.loc 1 214 0
  79 0070 A0C09FE5 		ldr	ip, .L7+4
  80 0074 0030A0E3 		mov	r3, #0
 218:framework.c   ****   IOCLR = 0xffffffff;       //Initialize pins to low level
  81              		.loc 1 218 0
  82 0078 0020E0E3 		mvn	r2, #0
 219:framework.c   ****   IODIR = 0x00000000;       //Set pin direction
 220:framework.c   **** 
 221:framework.c   ****   //initialize the MAM (Memory Accelerator Module)
 222:framework.c   ****   MAMTIM = MAM_TIMING;       //number of CCLK to read from the FLASH
  83              		.loc 1 222 0
  84 007c 98009FE5 		ldr	r0, .L7+8
  85              		.loc 1 214 0
  86 0080 00308CE5 		str	r3, [ip, #0]
  87              		.loc 1 215 0
  88 0084 04308CE5 		str	r3, [ip, #4]
  89              		.loc 1 217 0
  90 0088 043081E5 		str	r3, [r1, #4]
  91              		.loc 1 218 0
  92 008c 0C2081E5 		str	r2, [r1, #12]
  93              		.loc 1 219 0
  94 0090 083081E5 		str	r3, [r1, #8]
  95              		.loc 1 222 0
  96 0094 0310A0E3 		mov	r1, #3
  97 0098 041080E5 		str	r1, [r0, #4]
  98              		.loc 1 213 0
  99 009c 04E02DE5 		str	lr, [sp, #-4]!
 100              	.LCFI0:
 223:framework.c   ****   MAMCR  = MAM_SETTING;      //0=disabled, 1=partly enabled (enabled for code prefetch, but not for
 101              		.loc 1 223 0
 102 00a0 0210A0E3 		mov	r1, #2
 224:framework.c   **** 
 225:framework.c   ****   //initialize the exception vector mapping
 226:framework.c   ****   MAMMAP = MAM_MAP;
 103              		.loc 1 226 0
 104 00a4 01E0A0E3 		mov	lr, #1
 105              		.loc 1 223 0
 106 00a8 001080E5 		str	r1, [r0, #0]
 107              		.loc 1 226 0
 108 00ac 40E080E5 		str	lr, [r0, #64]
 227:framework.c   **** 
 228:framework.c   ****   //set the peripheral bus speed, PCLK = CCLK / PBSD
 229:framework.c   **** 	VPBDIV = PBSD;
 109              		.loc 1 229 0
ARM GAS  /cygdrive/c/DOCUME~1/deforce/LOKALA~1/Temp/ccoNSqoy.s 			page 7


 110 00b0 00E180E5 		str	lr, [r0, #256]
 230:framework.c   **** 	
 231:framework.c   **** 	//initialize VIC
 232:framework.c   ****   VICIntEnClr    = 0xFFFFFFFF;           /* Disable ALL interrupts                             */
 111              		.loc 1 232 0
 112 00b4 EB2F02E5 		str	r2, [r2, #-4075]
 233:framework.c   ****   VICProtection  = 0;                    /* Setup interrupt controller                         */
 113              		.loc 1 233 0
 114 00b8 DF3F02E5 		str	r3, [r2, #-4063]
 234:framework.c   ****   VICDefVectAddr = (unsigned int)0;      /* Direct unvectored IRQs to reset, i.e., address 0x0 */
 115              		.loc 1 234 0
 116 00bc CB3F02E5 		str	r3, [r2, #-4043]
 235:framework.c   **** 
 236:framework.c   ****   VICVectAddr0   = (unsigned int)0;      /* Set the vector address                             */
 117              		.loc 1 236 0
 118 00c0 FF3E02E5 		str	r3, [r2, #-3839]
 237:framework.c   ****   VICVectAddr1   = (unsigned int)0;      /* Set the vector address                             */
 119              		.loc 1 237 0
 120 00c4 FB3E02E5 		str	r3, [r2, #-3835]
 238:framework.c   ****   VICVectAddr2   = (unsigned int)0;      /* Set the vector address                             */
 121              		.loc 1 238 0
 122 00c8 F73E02E5 		str	r3, [r2, #-3831]
 239:framework.c   ****   VICVectAddr3   = (unsigned int)0;      /* Set the vector address                             */
 123              		.loc 1 239 0
 124 00cc F33E02E5 		str	r3, [r2, #-3827]
 240:framework.c   ****   VICVectAddr4   = (unsigned int)0;      /* Set the vector address                             */
 125              		.loc 1 240 0
 126 00d0 EF3E02E5 		str	r3, [r2, #-3823]
 241:framework.c   ****   VICVectAddr5   = (unsigned int)0;      /* Set the vector address                             */
 127              		.loc 1 241 0
 128 00d4 EB3E02E5 		str	r3, [r2, #-3819]
 242:framework.c   ****   VICVectAddr6   = (unsigned int)0;      /* Set the vector address                             */
 129              		.loc 1 242 0
 130 00d8 E73E02E5 		str	r3, [r2, #-3815]
 243:framework.c   ****   VICVectAddr7   = (unsigned int)0;      /* Set the vector address                             */
 131              		.loc 1 243 0
 132 00dc E33E02E5 		str	r3, [r2, #-3811]
 244:framework.c   ****   VICVectAddr8   = (unsigned int)0;      /* Set the vector address                             */
 133              		.loc 1 244 0
 134 00e0 DF3E02E5 		str	r3, [r2, #-3807]
 245:framework.c   ****   VICVectAddr9   = (unsigned int)0;      /* Set the vector address                             */
 135              		.loc 1 245 0
 136 00e4 DB3E02E5 		str	r3, [r2, #-3803]
 246:framework.c   ****   VICVectAddr10  = (unsigned int)0;      /* Set the vector address                             */
 137              		.loc 1 246 0
 138 00e8 D73E02E5 		str	r3, [r2, #-3799]
 247:framework.c   ****   VICVectAddr11  = (unsigned int)0;      /* Set the vector address                             */
 139              		.loc 1 247 0
 140 00ec D33E02E5 		str	r3, [r2, #-3795]
 248:framework.c   ****   VICVectAddr12  = (unsigned int)0;      /* Set the vector address                             */
 141              		.loc 1 248 0
 142 00f0 CF3E02E5 		str	r3, [r2, #-3791]
 249:framework.c   ****   VICVectAddr13  = (unsigned int)0;      /* Set the vector address                             */
 143              		.loc 1 249 0
 144 00f4 CB3E02E5 		str	r3, [r2, #-3787]
 250:framework.c   ****   VICVectAddr14  = (unsigned int)0;      /* Set the vector address                             */
 145              		.loc 1 250 0
ARM GAS  /cygdrive/c/DOCUME~1/deforce/LOKALA~1/Temp/ccoNSqoy.s 			page 8


 146 00f8 C73E02E5 		str	r3, [r2, #-3783]
 251:framework.c   ****   VICVectAddr15  = (unsigned int)0;      /* Set the vector address                             */
 147              		.loc 1 251 0
 148 00fc C33E02E5 		str	r3, [r2, #-3779]
 252:framework.c   **** 	
 253:framework.c   ****   //enable interrupts (both IRQ and FIQ) 
 254:framework.c   ****   asm volatile ("mrs r3, cpsr       \n\t"                          
 149              		.loc 1 254 0
 150 0100 00300FE1 		mrs r3, cpsr       
 151 0104 C030C3E3 		bic r3, r3, #0xC0  
 152 0108 03F029E1 		msr cpsr, r3       
 153              		
 255:framework.c   ****                 "bic r3, r3, #0xC0  \n\t"                      
 256:framework.c   ****                 "msr cpsr, r3       \n\t"                          
 257:framework.c   ****                 :                                       
 258:framework.c   ****                 :                                       
 259:framework.c   ****                 : "r3" );
 260:framework.c   **** }
 154              		.loc 1 260 0
 155 010c 04E09DE4 		ldr	lr, [sp], #4
 156 0110 1EFF2FE1 		bx	lr
 157              	.L8:
 158              		.align	2
 159              	.L7:
 160 0114 008002E0 		.word	-536707072
 161 0118 00C002E0 		.word	-536690688
 162 011c 00C01FE0 		.word	-534790144
 163              	.LFE8:
 164              		.size	lowLevelInit, .-lowLevelInit
 165              		.align	2
 166              		.global	eaInit
 167              		.type	eaInit, %function
 168              	eaInit:
 169              	.LFB9:
 261:framework.c   **** 
 262:framework.c   **** /*****************************************************************************
 263:framework.c   ****  *
 264:framework.c   ****  * Description:
 265:framework.c   ****  *    Initialize the consol
 266:framework.c   ****  *
 267:framework.c   ****  ****************************************************************************/
 268:framework.c   **** void
 269:framework.c   **** eaInit(void)
 270:framework.c   **** {
 170              		.loc 1 270 0
 171              		@ Function supports interworking.
 172              		@ args = 0, pretend = 0, frame = 0
 173              		@ frame_needed = 0, uses_anonymous_args = 0
 174 0120 04E02DE5 		str	lr, [sp, #-4]!
 175              	.LCFI1:
 271:framework.c   ****   //initialize the consol
 272:framework.c   ****   consolInit();
 176              		.loc 1 272 0
 177 0124 FEFFFFEB 		bl	consolInit
 273:framework.c   ****   
 274:framework.c   **** #ifdef CONSOL_STARTUP_DELAY
 275:framework.c   ****   /*
ARM GAS  /cygdrive/c/DOCUME~1/deforce/LOKALA~1/Temp/ccoNSqoy.s 			page 9


 276:framework.c   ****    * setup timer #1 for a short delay
 277:framework.c   ****    */
 278:framework.c   ****   TIMER1_TCR = 0x02;          //stop and reset timer
 178              		.loc 1 278 0
 179 0128 44209FE5 		ldr	r2, .L15
 180 012c 0230A0E3 		mov	r3, #2
 181 0130 043082E5 		str	r3, [r2, #4]
 279:framework.c   ****   TIMER1_PR  = 0x00;          //set prescaler to zero
 182              		.loc 1 279 0
 183 0134 0030A0E3 		mov	r3, #0
 184 0138 0C3082E5 		str	r3, [r2, #12]
 280:framework.c   ****   TIMER1_MR0 = CONSOL_STARTUP_DELAY_LENGTH * ((FOSC * PLL_MUL)/ (1000000 * PBSD));
 185              		.loc 1 280 0
 186 013c 34309FE5 		ldr	r3, .L15+4
 187 0140 183082E5 		str	r3, [r2, #24]
 281:framework.c   ****   TIMER1_IR  = 0xff;          //reset all interrrupt flags
 188              		.loc 1 281 0
 189 0144 FF30A0E3 		mov	r3, #255
 190 0148 003082E5 		str	r3, [r2, #0]
 282:framework.c   ****   TIMER1_MCR = 0x04;          //stop timer on match
 191              		.loc 1 282 0
 192 014c 0430A0E3 		mov	r3, #4
 193 0150 143082E5 		str	r3, [r2, #20]
 283:framework.c   ****   TIMER1_TCR = 0x01;          //start timer
 194              		.loc 1 283 0
 195 0154 0130A0E3 		mov	r3, #1
 196 0158 043082E5 		str	r3, [r2, #4]
 197              	.L10:
 284:framework.c   ****   
 285:framework.c   ****   //wait until delay time has elapsed
 286:framework.c   ****   while (TIMER1_TCR & 0x01)
 198              		.loc 1 286 0
 199 015c 10309FE5 		ldr	r3, .L15
 200 0160 043093E5 		ldr	r3, [r3, #4]
 201 0164 010013E3 		tst	r3, #1
 202 0168 FBFFFF1A 		bne	.L10
 287:framework.c   ****     ;
 288:framework.c   **** #endif
 289:framework.c   **** }
 203              		.loc 1 289 0
 204 016c 04E09DE4 		ldr	lr, [sp], #4
 205 0170 1EFF2FE1 		bx	lr
 206              	.L16:
 207              		.align	2
 208              	.L15:
 209 0174 008000E0 		.word	-536838144
 210 0178 70170000 		.word	6000
 211              	.LFE9:
 212              		.size	eaInit, .-eaInit
 213              		.section	.rodata.str1.4,"aMS",%progbits,1
 214              		.align	2
 215              	.LC0:
 216 0000 46495120 		.ascii	"FIQ exception !!!\012Address: 0x\000"
 216      65786365 
 216      7074696F 
 216      6E202121 
 216      210A4164 
ARM GAS  /cygdrive/c/DOCUME~1/deforce/LOKALA~1/Temp/ccoNSqoy.s 			page 10


 217              		.text
 218              		.align	2
 219              		.type	exceptionHandlerFiq, %function
 220              	exceptionHandlerFiq:
 221              	.LFB6:
 222              		.loc 1 143 0
 223              		@ Function supports interworking.
 224              		@ args = 0, pretend = 0, frame = 0
 225              		@ frame_needed = 0, uses_anonymous_args = 0
 226 017c 04E02DE5 		str	lr, [sp, #-4]!
 227              	.LCFI2:
 228              		.loc 1 147 0
 229 0180 24009FE5 		ldr	r0, .L20
 230              		.loc 1 143 0
 231 0184 04D04DE2 		sub	sp, sp, #4
 232              	.LCFI3:
 233              		.loc 1 147 0
 234 0188 FEFFFFEB 		bl	consolSendString
 235              		.loc 1 148 0
 236 018c 1000A0E3 		mov	r0, #16
 237              	.LVL0:
 238 0190 04E04EE2 		sub	lr, lr, #4
 239              	.LVL1:
 240 0194 0810A0E3 		mov	r1, #8
 241 0198 0020A0E3 		mov	r2, #0
 242 019c 3030A0E3 		mov	r3, #48
 243 01a0 00E08DE5 		str	lr, [sp, #0]
 244 01a4 FEFFFFEB 		bl	consolSendNumber
 245              	.L18:
 246 01a8 FEFFFFEA 		b	.L18
 247              	.L21:
 248              		.align	2
 249              	.L20:
 250 01ac 00000000 		.word	.LC0
 251              	.LFE6:
 252              		.size	exceptionHandlerFiq, .-exceptionHandlerFiq
 253              		.section	.rodata.str1.4
 254 001e 0000     		.align	2
 255              	.LC1:
 256 0020 4461626F 		.ascii	"Dabort exception !!!\012Address: 0x\000"
 256      72742065 
 256      78636570 
 256      74696F6E 
 256      20212121 
 257              		.text
 258              		.align	2
 259              		.type	exceptionHandlerDabort, %function
 260              	exceptionHandlerDabort:
 261              	.LFB5:
 262              		.loc 1 123 0
 263              		@ Function supports interworking.
 264              		@ args = 0, pretend = 0, frame = 0
 265              		@ frame_needed = 0, uses_anonymous_args = 0
 266 01b0 04E02DE5 		str	lr, [sp, #-4]!
 267              	.LCFI4:
 268              		.loc 1 127 0
 269 01b4 24009FE5 		ldr	r0, .L25
ARM GAS  /cygdrive/c/DOCUME~1/deforce/LOKALA~1/Temp/ccoNSqoy.s 			page 11


 270              		.loc 1 123 0
 271 01b8 04D04DE2 		sub	sp, sp, #4
 272              	.LCFI5:
 273              		.loc 1 127 0
 274 01bc FEFFFFEB 		bl	consolSendString
 275              		.loc 1 128 0
 276 01c0 1000A0E3 		mov	r0, #16
 277              	.LVL2:
 278 01c4 08E04EE2 		sub	lr, lr, #8
 279              	.LVL3:
 280 01c8 0810A0E3 		mov	r1, #8
 281 01cc 0020A0E3 		mov	r2, #0
 282 01d0 3030A0E3 		mov	r3, #48
 283 01d4 00E08DE5 		str	lr, [sp, #0]
 284 01d8 FEFFFFEB 		bl	consolSendNumber
 285              	.L23:
 286 01dc FEFFFFEA 		b	.L23
 287              	.L26:
 288              		.align	2
 289              	.L25:
 290 01e0 20000000 		.word	.LC1
 291              	.LFE5:
 292              		.size	exceptionHandlerDabort, .-exceptionHandlerDabort
 293              		.section	.rodata.str1.4
 294 0041 000000   		.align	2
 295              	.LC2:
 296 0044 5061626F 		.ascii	"Pabort exception !!!\012Address: 0x\000"
 296      72742065 
 296      78636570 
 296      74696F6E 
 296      20212121 
 297              		.text
 298              		.align	2
 299              		.type	exceptionHandlerPabort, %function
 300              	exceptionHandlerPabort:
 301              	.LFB4:
 302              		.loc 1 103 0
 303              		@ Function supports interworking.
 304              		@ args = 0, pretend = 0, frame = 0
 305              		@ frame_needed = 0, uses_anonymous_args = 0
 306 01e4 04E02DE5 		str	lr, [sp, #-4]!
 307              	.LCFI6:
 308              		.loc 1 107 0
 309 01e8 24009FE5 		ldr	r0, .L30
 310              		.loc 1 103 0
 311 01ec 04D04DE2 		sub	sp, sp, #4
 312              	.LCFI7:
 313              		.loc 1 107 0
 314 01f0 FEFFFFEB 		bl	consolSendString
 315              		.loc 1 108 0
 316 01f4 1000A0E3 		mov	r0, #16
 317              	.LVL4:
 318 01f8 04E04EE2 		sub	lr, lr, #4
 319              	.LVL5:
 320 01fc 0810A0E3 		mov	r1, #8
 321 0200 0020A0E3 		mov	r2, #0
 322 0204 3030A0E3 		mov	r3, #48
ARM GAS  /cygdrive/c/DOCUME~1/deforce/LOKALA~1/Temp/ccoNSqoy.s 			page 12


 323 0208 00E08DE5 		str	lr, [sp, #0]
 324 020c FEFFFFEB 		bl	consolSendNumber
 325              	.L28:
 326 0210 FEFFFFEA 		b	.L28
 327              	.L31:
 328              		.align	2
 329              	.L30:
 330 0214 44000000 		.word	.LC2
 331              	.LFE4:
 332              		.size	exceptionHandlerPabort, .-exceptionHandlerPabort
 333              		.section	.rodata.str1.4
 334 0065 000000   		.align	2
 335              	.LC3:
 336 0068 53574920 		.ascii	"SWI exception !!!\012Address: 0x\000"
 336      65786365 
 336      7074696F 
 336      6E202121 
 336      210A4164 
 337              		.text
 338              		.align	2
 339              		.type	exceptionHandlerSwi, %function
 340              	exceptionHandlerSwi:
 341              	.LFB3:
 342              		.loc 1 83 0
 343              		@ Function supports interworking.
 344              		@ args = 0, pretend = 0, frame = 0
 345              		@ frame_needed = 0, uses_anonymous_args = 0
 346 0218 04E02DE5 		str	lr, [sp, #-4]!
 347              	.LCFI8:
 348              		.loc 1 87 0
 349 021c 24009FE5 		ldr	r0, .L35
 350              		.loc 1 83 0
 351 0220 04D04DE2 		sub	sp, sp, #4
 352              	.LCFI9:
 353              		.loc 1 87 0
 354 0224 FEFFFFEB 		bl	consolSendString
 355              		.loc 1 88 0
 356 0228 1000A0E3 		mov	r0, #16
 357              	.LVL6:
 358 022c 04E04EE2 		sub	lr, lr, #4
 359              	.LVL7:
 360 0230 0810A0E3 		mov	r1, #8
 361 0234 0020A0E3 		mov	r2, #0
 362 0238 3030A0E3 		mov	r3, #48
 363 023c 00E08DE5 		str	lr, [sp, #0]
 364 0240 FEFFFFEB 		bl	consolSendNumber
 365              	.L33:
 366 0244 FEFFFFEA 		b	.L33
 367              	.L36:
 368              		.align	2
 369              	.L35:
 370 0248 68000000 		.word	.LC3
 371              	.LFE3:
 372              		.size	exceptionHandlerSwi, .-exceptionHandlerSwi
 373              		.section	.rodata.str1.4
 374 0086 0000     		.align	2
 375              	.LC4:
ARM GAS  /cygdrive/c/DOCUME~1/deforce/LOKALA~1/Temp/ccoNSqoy.s 			page 13


 376 0088 556E6465 		.ascii	"Undefined instruction exception !!!\012Address: 0x\000"
 376      66696E65 
 376      6420696E 
 376      73747275 
 376      6374696F 
 377              		.text
 378              		.align	2
 379              		.type	exceptionHandlerUndef, %function
 380              	exceptionHandlerUndef:
 381              	.LFB2:
 382              		.loc 1 63 0
 383              		@ Function supports interworking.
 384              		@ args = 0, pretend = 0, frame = 0
 385              		@ frame_needed = 0, uses_anonymous_args = 0
 386 024c 04E02DE5 		str	lr, [sp, #-4]!
 387              	.LCFI10:
 388              		.loc 1 67 0
 389 0250 24009FE5 		ldr	r0, .L40
 390              		.loc 1 63 0
 391 0254 04D04DE2 		sub	sp, sp, #4
 392              	.LCFI11:
 393              		.loc 1 67 0
 394 0258 FEFFFFEB 		bl	consolSendString
 395              		.loc 1 68 0
 396 025c 1000A0E3 		mov	r0, #16
 397              	.LVL8:
 398 0260 04E04EE2 		sub	lr, lr, #4
 399              	.LVL9:
 400 0264 0810A0E3 		mov	r1, #8
 401 0268 0020A0E3 		mov	r2, #0
 402 026c 3030A0E3 		mov	r3, #48
 403 0270 00E08DE5 		str	lr, [sp, #0]
 404 0274 FEFFFFEB 		bl	consolSendNumber
 405              	.L38:
 406 0278 FEFFFFEA 		b	.L38
 407              	.L41:
 408              		.align	2
 409              	.L40:
 410 027c 88000000 		.word	.LC4
 411              	.LFE2:
 412              		.size	exceptionHandlerUndef, .-exceptionHandlerUndef
 413              		.comm	pHeapStart,4,4
 414              		.comm	pHeapEnd,4,4
 415              		.section	.debug_frame,"",%progbits
 416              	.Lframe0:
 417 0000 0C000000 		.4byte	.LECIE0-.LSCIE0
 418              	.LSCIE0:
 419 0004 FFFFFFFF 		.4byte	0xffffffff
 420 0008 01       		.byte	0x1
 421 0009 00       		.ascii	"\000"
 422 000a 01       		.uleb128 0x1
 423 000b 7C       		.sleb128 -4
 424 000c 0E       		.byte	0xe
 425 000d 0C       		.byte	0xc
 426 000e 0D       		.uleb128 0xd
 427 000f 00       		.uleb128 0x0
 428              		.align	2
ARM GAS  /cygdrive/c/DOCUME~1/deforce/LOKALA~1/Temp/ccoNSqoy.s 			page 14


 429              	.LECIE0:
 430              	.LSFDE0:
 431 0010 0C000000 		.4byte	.LEFDE0-.LASFDE0
 432              	.LASFDE0:
 433 0014 00000000 		.4byte	.Lframe0
 434 0018 00000000 		.4byte	.LFB7
 435 001c 6C000000 		.4byte	.LFE7-.LFB7
 436              		.align	2
 437              	.LEFDE0:
 438              	.LSFDE2:
 439 0020 14000000 		.4byte	.LEFDE2-.LASFDE2
 440              	.LASFDE2:
 441 0024 00000000 		.4byte	.Lframe0
 442 0028 6C000000 		.4byte	.LFB8
 443 002c B4000000 		.4byte	.LFE8-.LFB8
 444 0030 74       		.byte	0x4
 445              		.4byte	.LCFI0-.LFB8
 446 0031 0E       		.byte	0xe
 447 0032 04       		.uleb128 0x4
 448 0033 8E       		.byte	0x8e
 449 0034 01       		.uleb128 0x1
 450 0035 000000   		.align	2
 451              	.LEFDE2:
 452              	.LSFDE4:
 453 0038 14000000 		.4byte	.LEFDE4-.LASFDE4
 454              	.LASFDE4:
 455 003c 00000000 		.4byte	.Lframe0
 456 0040 20010000 		.4byte	.LFB9
 457 0044 5C000000 		.4byte	.LFE9-.LFB9
 458 0048 44       		.byte	0x4
 459              		.4byte	.LCFI1-.LFB9
 460 0049 0E       		.byte	0xe
 461 004a 04       		.uleb128 0x4
 462 004b 8E       		.byte	0x8e
 463 004c 01       		.uleb128 0x1
 464 004d 000000   		.align	2
 465              	.LEFDE4:
 466              	.LSFDE6:
 467 0050 14000000 		.4byte	.LEFDE6-.LASFDE6
 468              	.LASFDE6:
 469 0054 00000000 		.4byte	.Lframe0
 470 0058 7C010000 		.4byte	.LFB6
 471 005c 34000000 		.4byte	.LFE6-.LFB6
 472 0060 44       		.byte	0x4
 473              		.4byte	.LCFI2-.LFB6
 474 0061 0E       		.byte	0xe
 475 0062 04       		.uleb128 0x4
 476 0063 48       		.byte	0x4
 477              		.4byte	.LCFI3-.LCFI2
 478 0064 0E       		.byte	0xe
 479 0065 08       		.uleb128 0x8
 480 0066 8E       		.byte	0x8e
 481 0067 01       		.uleb128 0x1
 482              		.align	2
 483              	.LEFDE6:
 484              	.LSFDE8:
 485 0068 14000000 		.4byte	.LEFDE8-.LASFDE8
ARM GAS  /cygdrive/c/DOCUME~1/deforce/LOKALA~1/Temp/ccoNSqoy.s 			page 15


 486              	.LASFDE8:
 487 006c 00000000 		.4byte	.Lframe0
 488 0070 B0010000 		.4byte	.LFB5
 489 0074 34000000 		.4byte	.LFE5-.LFB5
 490 0078 44       		.byte	0x4
 491              		.4byte	.LCFI4-.LFB5
 492 0079 0E       		.byte	0xe
 493 007a 04       		.uleb128 0x4
 494 007b 48       		.byte	0x4
 495              		.4byte	.LCFI5-.LCFI4
 496 007c 0E       		.byte	0xe
 497 007d 08       		.uleb128 0x8
 498 007e 8E       		.byte	0x8e
 499 007f 01       		.uleb128 0x1
 500              		.align	2
 501              	.LEFDE8:
 502              	.LSFDE10:
 503 0080 14000000 		.4byte	.LEFDE10-.LASFDE10
 504              	.LASFDE10:
 505 0084 00000000 		.4byte	.Lframe0
 506 0088 E4010000 		.4byte	.LFB4
 507 008c 34000000 		.4byte	.LFE4-.LFB4
 508 0090 44       		.byte	0x4
 509              		.4byte	.LCFI6-.LFB4
 510 0091 0E       		.byte	0xe
 511 0092 04       		.uleb128 0x4
 512 0093 48       		.byte	0x4
 513              		.4byte	.LCFI7-.LCFI6
 514 0094 0E       		.byte	0xe
 515 0095 08       		.uleb128 0x8
 516 0096 8E       		.byte	0x8e
 517 0097 01       		.uleb128 0x1
 518              		.align	2
 519              	.LEFDE10:
 520              	.LSFDE12:
 521 0098 14000000 		.4byte	.LEFDE12-.LASFDE12
 522              	.LASFDE12:
 523 009c 00000000 		.4byte	.Lframe0
 524 00a0 18020000 		.4byte	.LFB3
 525 00a4 34000000 		.4byte	.LFE3-.LFB3
 526 00a8 44       		.byte	0x4
 527              		.4byte	.LCFI8-.LFB3
 528 00a9 0E       		.byte	0xe
 529 00aa 04       		.uleb128 0x4
 530 00ab 48       		.byte	0x4
 531              		.4byte	.LCFI9-.LCFI8
 532 00ac 0E       		.byte	0xe
 533 00ad 08       		.uleb128 0x8
 534 00ae 8E       		.byte	0x8e
 535 00af 01       		.uleb128 0x1
 536              		.align	2
 537              	.LEFDE12:
 538              	.LSFDE14:
 539 00b0 14000000 		.4byte	.LEFDE14-.LASFDE14
 540              	.LASFDE14:
 541 00b4 00000000 		.4byte	.Lframe0
 542 00b8 4C020000 		.4byte	.LFB2
ARM GAS  /cygdrive/c/DOCUME~1/deforce/LOKALA~1/Temp/ccoNSqoy.s 			page 16


 543 00bc 34000000 		.4byte	.LFE2-.LFB2
 544 00c0 44       		.byte	0x4
 545              		.4byte	.LCFI10-.LFB2
 546 00c1 0E       		.byte	0xe
 547 00c2 04       		.uleb128 0x4
 548 00c3 48       		.byte	0x4
 549              		.4byte	.LCFI11-.LCFI10
 550 00c4 0E       		.byte	0xe
 551 00c5 08       		.uleb128 0x8
 552 00c6 8E       		.byte	0x8e
 553 00c7 01       		.uleb128 0x1
 554              		.align	2
 555              	.LEFDE14:
 556              		.text
 557              	.Letext0: