Archive member included because of file (symbol)

startup/libea_startup_thumb.a(consol.o)
                              main.o (simplePrintf)
startup/libea_startup_thumb.a(framework.o)
                              main.o (eaInit)
startup/libea_startup_thumb.a(startup.o)
                              (_startup)
pre_emptive_os/pre_emptive_os.a(kernel.o)
                              main.o (osStartProcess)
pre_emptive_os/pre_emptive_os.a(prioqueue.o)
                              pre_emptive_os/pre_emptive_os.a(kernel.o) (initPrioQueue)
pre_emptive_os/pre_emptive_os.a(count_sem.o)
                              proc1.o (osSemGive)
pre_emptive_os/pre_emptive_os.a(timer.o)
                              pre_emptive_os/pre_emptive_os.a(kernel.o) (timerTick)
pre_emptive_os/pre_emptive_os.a(stack_usage.o)
                              pre_emptive_os/pre_emptive_os.a(kernel.o) (createStackPattern)
pre_emptive_os/pre_emptive_os.a(a7hal.o)
                              pre_emptive_os/pre_emptive_os.a(kernel.o) (stkFrameInit_oshal)
pre_emptive_os/pre_emptive_os.a(a7hal_a.o)
                              pre_emptive_os/pre_emptive_os.a(kernel.o) (startHighProc_oshal)
pre_emptive_os/pre_emptive_os.a(event.o)
                              pre_emptive_os/pre_emptive_os.a(count_sem.o) (eventIsEmpty)
LCD/lib_LCD.a(LCD.o)          main.o (send_instruction)
interrupt/lib_interrupt.a(interrupt.o)
                              main.o (Timer1ISRirq)
/cygdrive/c/program/gnuarm/bin/../lib/gcc/arm-elf/4.1.1/interwork/libgcc.a(_udivsi3.o)
                              proc1.o (__udivsi3)
/cygdrive/c/program/gnuarm/bin/../lib/gcc/arm-elf/4.1.1/interwork/libgcc.a(_divsi3.o)
                              pre_emptive_os/pre_emptive_os.a(stack_usage.o) (__divsi3)
/cygdrive/c/program/gnuarm/bin/../lib/gcc/arm-elf/4.1.1/interwork/libgcc.a(_umodsi3.o)
                              startup/libea_startup_thumb.a(consol.o) (__umodsi3)
/cygdrive/c/program/gnuarm/bin/../lib/gcc/arm-elf/4.1.1/interwork/libgcc.a(_dvmd_tls.o)
                              /cygdrive/c/program/gnuarm/bin/../lib/gcc/arm-elf/4.1.1/interwork/libgcc.a(_udivsi3.o) (__div0)
/cygdrive/c/program/gnuarm/bin/../lib/gcc/arm-elf/4.1.1/../../../../arm-elf/lib/interwork/libc.a(memcpy.o)
                              startup/libea_startup_thumb.a(consol.o) (memcpy)

Allocating common symbols
Common symbol       size              file

mutexLCD            0x1c              main.o
pHeapEnd            0x4               startup/libea_startup_thumb.a(framework.o)
pHeapStart          0x4               startup/libea_startup_thumb.a(framework.o)
processControlBlocks
                    0x190             pre_emptive_os/pre_emptive_os.a(kernel.o)

Discarded input sections

 .stabstr       0x00000000        0x0 startup/libea_startup_thumb.a(startup.o)
 .stabstr       0x00000000        0x0 pre_emptive_os/pre_emptive_os.a(a7hal_a.o)

Memory Configuration

Name             Origin             Length             Attributes
FLASH            0x00000000         0x00080000         xr
RAM              0x40000200         0x00007e00         rw
*default*        0x00000000         0xffffffff

Linker script and memory map

LOAD main.o
LOAD proc1.o
LOAD proc2.o
LOAD proc3.o
LOAD startup/libea_startup_thumb.a
LOAD pre_emptive_os/pre_emptive_os.a
LOAD LCD/lib_LCD.a
LOAD interrupt/lib_interrupt.a
START GROUP
LOAD /cygdrive/c/program/gnuarm/bin/../lib/gcc/arm-elf/4.1.1/interwork/libgcc.a
LOAD /cygdrive/c/program/gnuarm/bin/../lib/gcc/arm-elf/4.1.1/../../../../arm-elf/lib/interwork/libc.a
END GROUP

.text           0x00000000     0x299c
 *startup.o(.text)
 .text          0x00000000      0x1d8 startup/libea_startup_thumb.a(startup.o)
                0x00000000                _startup
 *(.text)
 .text          0x000001d8      0x2d4 main.o
                0x00000498                appTick
                0x00000224                main
                0x000001d8                initLightPins
 .text          0x000004ac      0x6a0 proc1.o
                0x00000a50                runPwm
                0x00000698                setMode1
                0x00000b18                initLCD
                0x00000604                initPins
                0x00000aa8                dev_run
                0x00000868                setMode2
                0x00000ae4                procEx1
 .text          0x00000b4c       0x34 proc2.o
                0x00000b4c                procEx2
 .text          0x00000b80       0x84 proc3.o
                0x00000b80                procEx3
 .text          0x00000c04      0x3fc startup/libea_startup_thumb.a(consol.o)
                0x00000cf8                consolSendCh
                0x00000d68                consolSendNumber
                0x00000cd8                consolSendChar
                0x00000e80                simplePrintf
                0x00000d3c                consolSendString
                0x00000c88                consolInit
 .text          0x00001000      0x2c0 startup/libea_startup_thumb.a(framework.o)
                0x0000112c                eaInit
                0x00001078                lowLevelInit
                0x00001000                exceptionHandlerInit
 .text          0x000012c0      0x514 pre_emptive_os/pre_emptive_os.a(kernel.o)
                0x00001618                osTick
                0x000013a4                rmvFromRdyList
                0x000013d4                osGetHighPrioProc
                0x00001514                osSuspend
                0x000017a4                osInit
                0x000015b0                osDeleteProcess
                0x000012c0                osISREnter
                0x0000143c                schedule
                0x00001674                osCreateProcess
                0x000013c0                addToRdyList
                0x000012e0                addToTimeList
                0x000014a8                osResume
                0x000013f0                osPid
                0x000015e0                osSleep
                0x00001710                osISRExit
                0x00001778                osStart
                0x0000135c                rmvFromTimeList
                0x00001548                osStartProcess
 .text          0x000017d4       0xf4 pre_emptive_os/pre_emptive_os.a(prioqueue.o)
                0x000017d4                initPrioQueue
                0x0000182c                rmvFromPrioQueue
                0x000017e4                addToPrioQueue
                0x000018b0                isEmptyPrioQueue
                0x00001884                getHighPrioQueue
 .text          0x000018c8      0x140 pre_emptive_os/pre_emptive_os.a(count_sem.o)
                0x00001908                osSemGive
                0x000018c8                osSemTryTake
                0x000019f4                osSemInit
                0x0000196c                osSemTake
 .text          0x00001a08      0x230 pre_emptive_os/pre_emptive_os.a(timer.o)
                0x00001bb0                timerTick
                0x00001a74                osInitTimers
                0x00001b18                osDeleteTimer
                0x00001b84                osCreateTimer
 .text          0x00001c38       0xa8 pre_emptive_os/pre_emptive_os.a(stack_usage.o)
                0x00001c98                osStackUsage
                0x00001c38                createStackPattern
                0x00001c54                checkStackLimit
 .text          0x00001ce0      0x1ec pre_emptive_os/pre_emptive_os.a(a7hal.o)
                0x00001d18                stkFrameInit_oshal
                0x00001ce0                timerIsr_oshal
                0x00001df8                halRestoreInterrupts_oshal
                0x00001e00                initTimer_oshal
                0x00001de8                halEnableInterrupts_oshal
                0x00001e98                handleIRQs_oshal
                0x00001dc8                halDisableInterrupts_oshal
 .text          0x00001ecc       0xc4 pre_emptive_os/pre_emptive_os.a(a7hal_a.o)
                0x00001ed8                startHighProc_oshal
                0x00001f00                ctxSwitchIsr_oshal
                0x00001ee0                ctxSwitch_oshal
                0x00001f20                generalIRQ_oshal
 .text          0x00001f90       0xd4 pre_emptive_os/pre_emptive_os.a(event.o)
                0x0000201c                eventWait
                0x00002054                eventInit
                0x00001f90                eventIsEmpty
                0x00001f9c                eventWaitReturn
                0x00001fcc                eventSignal
 .text          0x00002064      0x400 LCD/lib_LCD.a(LCD.o)
                0x00002114                send_character
                0x0000238c                delay_mikros
                0x0000227c                init_LCD
                0x0000219c                wait_BF
                0x000023c4                delay_millis
                0x00002410                delay_secs
                0x00002364                delay
                0x00002064                send_instruction
 .text          0x00002464       0xd0 interrupt/lib_interrupt.a(interrupt.o)
                0x00002464                Timer1ISRirq
 .text          0x00002534      0x114 /cygdrive/c/program/gnuarm/bin/../lib/gcc/arm-elf/4.1.1/interwork/libgcc.a(_udivsi3.o)
                0x00002534                __udivsi3
                0x00002534                __aeabi_uidiv
                0x00002630                __aeabi_uidivmod
 .text          0x00002648      0x144 /cygdrive/c/program/gnuarm/bin/../lib/gcc/arm-elf/4.1.1/interwork/libgcc.a(_divsi3.o)
                0x00002648                __aeabi_idiv
                0x00002648                __divsi3
                0x00002774                __aeabi_idivmod
 .text          0x0000278c       0xd0 /cygdrive/c/program/gnuarm/bin/../lib/gcc/arm-elf/4.1.1/interwork/libgcc.a(_umodsi3.o)
                0x0000278c                __umodsi3
 .text          0x0000285c        0x4 /cygdrive/c/program/gnuarm/bin/../lib/gcc/arm-elf/4.1.1/interwork/libgcc.a(_dvmd_tls.o)
                0x0000285c                __aeabi_ldiv0
                0x0000285c                __div0
                0x0000285c                __aeabi_idiv0
 .text          0x00002860       0x9c /cygdrive/c/program/gnuarm/bin/../lib/gcc/arm-elf/4.1.1/../../../../arm-elf/lib/interwork/libc.a(memcpy.o)
                0x00002860                memcpy
 *(.glue_7)
 .glue_7        0x000028fc        0x0 main.o
 .glue_7        0x000028fc        0x0 proc1.o
 .glue_7        0x000028fc        0x0 proc2.o
 .glue_7        0x000028fc        0x0 proc3.o
 .glue_7        0x000028fc        0x0 startup/libea_startup_thumb.a(consol.o)
 .glue_7        0x000028fc        0x0 startup/libea_startup_thumb.a(framework.o)
 .glue_7        0x000028fc        0x0 startup/libea_startup_thumb.a(startup.o)
 .glue_7        0x000028fc        0x0 pre_emptive_os/pre_emptive_os.a(kernel.o)
 .glue_7        0x000028fc        0x0 pre_emptive_os/pre_emptive_os.a(prioqueue.o)
 .glue_7        0x000028fc        0x0 pre_emptive_os/pre_emptive_os.a(count_sem.o)
 .glue_7        0x000028fc        0x0 pre_emptive_os/pre_emptive_os.a(timer.o)
 .glue_7        0x000028fc        0x0 pre_emptive_os/pre_emptive_os.a(stack_usage.o)
 .glue_7        0x000028fc        0x0 pre_emptive_os/pre_emptive_os.a(a7hal.o)
 .glue_7        0x000028fc        0x0 pre_emptive_os/pre_emptive_os.a(a7hal_a.o)
 .glue_7        0x000028fc        0x0 pre_emptive_os/pre_emptive_os.a(event.o)
 .glue_7        0x000028fc        0x0 LCD/lib_LCD.a(LCD.o)
 .glue_7        0x000028fc        0x0 interrupt/lib_interrupt.a(interrupt.o)
 .glue_7        0x000028fc        0x0 /cygdrive/c/program/gnuarm/bin/../lib/gcc/arm-elf/4.1.1/interwork/libgcc.a(_udivsi3.o)
 .glue_7        0x000028fc        0x0 /cygdrive/c/program/gnuarm/bin/../lib/gcc/arm-elf/4.1.1/interwork/libgcc.a(_divsi3.o)
 .glue_7        0x000028fc        0x0 /cygdrive/c/program/gnuarm/bin/../lib/gcc/arm-elf/4.1.1/interwork/libgcc.a(_umodsi3.o)
 .glue_7        0x000028fc        0x0 /cygdrive/c/program/gnuarm/bin/../lib/gcc/arm-elf/4.1.1/interwork/libgcc.a(_dvmd_tls.o)
 .glue_7        0x000028fc       0x30 /cygdrive/c/program/gnuarm/bin/../lib/gcc/arm-elf/4.1.1/../../../../arm-elf/lib/interwork/libc.a(memcpy.o)
                0x00002914                __setMode1_from_arm
                0x00002920                __setMode2_from_arm
                0x00002908                __osISRExit_from_arm
                0x000028fc                __osTick_from_arm
 *(.glue_7t)
 .glue_7t       0x0000292c        0x0 main.o
 .glue_7t       0x0000292c        0x0 proc1.o
 .glue_7t       0x0000292c        0x0 proc2.o
 .glue_7t       0x0000292c        0x0 proc3.o
 .glue_7t       0x0000292c        0x0 startup/libea_startup_thumb.a(consol.o)
 .glue_7t       0x0000292c        0x0 startup/libea_startup_thumb.a(framework.o)
 .glue_7t       0x0000292c        0x0 startup/libea_startup_thumb.a(startup.o)
 .glue_7t       0x0000292c        0x0 pre_emptive_os/pre_emptive_os.a(kernel.o)
 .glue_7t       0x0000292c        0x0 pre_emptive_os/pre_emptive_os.a(prioqueue.o)
 .glue_7t       0x0000292c        0x0 pre_emptive_os/pre_emptive_os.a(count_sem.o)
 .glue_7t       0x0000292c        0x0 pre_emptive_os/pre_emptive_os.a(timer.o)
 .glue_7t       0x0000292c        0x0 pre_emptive_os/pre_emptive_os.a(stack_usage.o)
 .glue_7t       0x0000292c        0x0 pre_emptive_os/pre_emptive_os.a(a7hal.o)
 .glue_7t       0x0000292c        0x0 pre_emptive_os/pre_emptive_os.a(a7hal_a.o)
 .glue_7t       0x0000292c        0x0 pre_emptive_os/pre_emptive_os.a(event.o)
 .glue_7t       0x0000292c        0x0 LCD/lib_LCD.a(LCD.o)
 .glue_7t       0x0000292c        0x0 interrupt/lib_interrupt.a(interrupt.o)
 .glue_7t       0x0000292c        0x0 /cygdrive/c/program/gnuarm/bin/../lib/gcc/arm-elf/4.1.1/interwork/libgcc.a(_udivsi3.o)
 .glue_7t       0x0000292c        0x0 /cygdrive/c/program/gnuarm/bin/../lib/gcc/arm-elf/4.1.1/interwork/libgcc.a(_divsi3.o)
 .glue_7t       0x0000292c        0x0 /cygdrive/c/program/gnuarm/bin/../lib/gcc/arm-elf/4.1.1/interwork/libgcc.a(_umodsi3.o)
 .glue_7t       0x0000292c        0x0 /cygdrive/c/program/gnuarm/bin/../lib/gcc/arm-elf/4.1.1/interwork/libgcc.a(_dvmd_tls.o)
 .glue_7t       0x0000292c       0x70 /cygdrive/c/program/gnuarm/bin/../lib/gcc/arm-elf/4.1.1/../../../../arm-elf/lib/interwork/libc.a(memcpy.o)
                0x00002934                __delay_from_thumb
                0x0000293c                __send_instruction_from_thumb
                0x00002964                __halRestoreInterrupts_oshal_from_thumb
                0x0000292c                __init_LCD_from_thumb
                0x00002940                __send_instruction_change_to_arm
                0x0000296c                __ctxSwitch_oshal_from_thumb
                0x00002978                __stkFrameInit_oshal_change_to_arm
                0x00002988                __initTimer_oshal_change_to_arm
                0x0000298c                __startHighProc_oshal_from_thumb
                0x00002930                __init_LCD_change_to_arm
                0x00002958                ____udivsi3_change_to_arm
                0x00002990                __startHighProc_oshal_change_to_arm
                0x0000297c                __ctxSwitchIsr_oshal_from_thumb
                0x00002968                __halRestoreInterrupts_oshal_change_to_arm
                0x00002950                __simplePrintf_change_to_arm
                0x00002994                ____divsi3_from_thumb
                0x00002938                __delay_change_to_arm
                0x00002970                __ctxSwitch_oshal_change_to_arm
                0x00002974                __stkFrameInit_oshal_from_thumb
                0x00002954                ____udivsi3_from_thumb
                0x00002944                __eaInit_from_thumb
                0x0000294c                __simplePrintf_from_thumb
                0x00002984                __initTimer_oshal_from_thumb
                0x00002948                __eaInit_change_to_arm
                0x00002980                __ctxSwitchIsr_oshal_change_to_arm
                0x00002960                __halDisableInterrupts_oshal_change_to_arm
                0x0000295c                __halDisableInterrupts_oshal_from_thumb
                0x00002998                ____divsi3_change_to_arm
                0x0000299c                . = ALIGN (0x4)

.rodata         0x0000299c      0x13c
 *(.rodata)
 .rodata        0x0000299c       0x18 main.o
                0x000029a0                delaylong
                0x0000299c                delayshort
 .rodata        0x000029b4       0x28 proc3.o
 .rodata        0x000029dc       0x10 startup/libea_startup_thumb.a(consol.o)
 *(.rodata*)
 .rodata.str1.4
                0x000029ec       0x11 startup/libea_startup_thumb.a(consol.o)
                                 0x14 (size before relaxing)
 *fill*         0x000029fd        0x3 00
 .rodata.str1.4
                0x00002a00       0xd8 startup/libea_startup_thumb.a(framework.o)
                0x00002ad8                . = ALIGN (0x4)
                0x00002ad8                _etext = .
                0x00002ad8                PROVIDE (etext, .)

.data           0x40000280        0x0 load address 0x00002ad8
                0x40000280                _data = .
 *(.data)
 .data          0x40000280        0x0 main.o
 .data          0x40000280        0x0 proc1.o
 .data          0x40000280        0x0 proc2.o
 .data          0x40000280        0x0 proc3.o
 .data          0x40000280        0x0 startup/libea_startup_thumb.a(consol.o)
 .data          0x40000280        0x0 startup/libea_startup_thumb.a(framework.o)
 .data          0x40000280        0x0 startup/libea_startup_thumb.a(startup.o)
 .data          0x40000280        0x0 pre_emptive_os/pre_emptive_os.a(kernel.o)
 .data          0x40000280        0x0 pre_emptive_os/pre_emptive_os.a(prioqueue.o)
 .data          0x40000280        0x0 pre_emptive_os/pre_emptive_os.a(count_sem.o)
 .data          0x40000280        0x0 pre_emptive_os/pre_emptive_os.a(timer.o)
 .data          0x40000280        0x0 pre_emptive_os/pre_emptive_os.a(stack_usage.o)
 .data          0x40000280        0x0 pre_emptive_os/pre_emptive_os.a(a7hal.o)
 .data          0x40000280        0x0 pre_emptive_os/pre_emptive_os.a(a7hal_a.o)
 .data          0x40000280        0x0 pre_emptive_os/pre_emptive_os.a(event.o)
 .data          0x40000280        0x0 LCD/lib_LCD.a(LCD.o)
 .data          0x40000280        0x0 interrupt/lib_interrupt.a(interrupt.o)
 .data          0x40000280        0x0 /cygdrive/c/program/gnuarm/bin/../lib/gcc/arm-elf/4.1.1/interwork/libgcc.a(_udivsi3.o)
 .data          0x40000280        0x0 /cygdrive/c/program/gnuarm/bin/../lib/gcc/arm-elf/4.1.1/interwork/libgcc.a(_divsi3.o)
 .data          0x40000280        0x0 /cygdrive/c/program/gnuarm/bin/../lib/gcc/arm-elf/4.1.1/interwork/libgcc.a(_umodsi3.o)
 .data          0x40000280        0x0 /cygdrive/c/program/gnuarm/bin/../lib/gcc/arm-elf/4.1.1/interwork/libgcc.a(_dvmd_tls.o)
 .data          0x40000280        0x0 /cygdrive/c/program/gnuarm/bin/../lib/gcc/arm-elf/4.1.1/../../../../arm-elf/lib/interwork/libc.a(memcpy.o)
                0x40000280                . = ALIGN (0x4)
                0x40000280                _edata = .
                0x40000280                PROVIDE (edata, .)

.bss            0x40000200     0x193c
                0x40000200                _bss = .
                0x40000200                __bss_start = .
                0x40000200                __bss_start__ = .
 *(.bss)
 .bss           0x40000200     0x1404 main.o
 .bss           0x40001604        0x8 proc1.o
                0x40001608                mode2
                0x40001604                mode1
 .bss           0x4000160c        0x0 proc2.o
 .bss           0x4000160c        0x4 proc3.o
 .bss           0x40001610        0x0 startup/libea_startup_thumb.a(consol.o)
 .bss           0x40001610        0x0 startup/libea_startup_thumb.a(framework.o)
 .bss           0x40001610        0x0 startup/libea_startup_thumb.a(startup.o)
 .bss           0x40001610       0x2c pre_emptive_os/pre_emptive_os.a(kernel.o)
                0x40001619                osLockNesting
                0x40001614                pNxtToRun
                0x40001610                pRunProc
                0x40001618                isrNesting
 .bss           0x4000163c        0x0 pre_emptive_os/pre_emptive_os.a(prioqueue.o)
 .bss           0x4000163c        0x0 pre_emptive_os/pre_emptive_os.a(count_sem.o)
 .bss           0x4000163c      0x348 pre_emptive_os/pre_emptive_os.a(timer.o)
 .bss           0x40001984        0x0 pre_emptive_os/pre_emptive_os.a(stack_usage.o)
 .bss           0x40001984        0x0 pre_emptive_os/pre_emptive_os.a(a7hal.o)
 .bss           0x40001984        0x0 pre_emptive_os/pre_emptive_os.a(a7hal_a.o)
 .bss           0x40001984        0x0 pre_emptive_os/pre_emptive_os.a(event.o)
 .bss           0x40001984        0x0 LCD/lib_LCD.a(LCD.o)
 .bss           0x40001984        0x2 interrupt/lib_interrupt.a(interrupt.o)
 .bss           0x40001986        0x0 /cygdrive/c/program/gnuarm/bin/../lib/gcc/arm-elf/4.1.1/interwork/libgcc.a(_udivsi3.o)
 .bss           0x40001986        0x0 /cygdrive/c/program/gnuarm/bin/../lib/gcc/arm-elf/4.1.1/interwork/libgcc.a(_divsi3.o)
 .bss           0x40001986        0x0 /cygdrive/c/program/gnuarm/bin/../lib/gcc/arm-elf/4.1.1/interwork/libgcc.a(_umodsi3.o)
 .bss           0x40001986        0x0 /cygdrive/c/program/gnuarm/bin/../lib/gcc/arm-elf/4.1.1/interwork/libgcc.a(_dvmd_tls.o)
 .bss           0x40001986        0x0 /cygdrive/c/program/gnuarm/bin/../lib/gcc/arm-elf/4.1.1/../../../../arm-elf/lib/interwork/libc.a(memcpy.o)
 *(COMMON)
 *fill*         0x40001986        0x2 00
 COMMON         0x40001988       0x1c main.o
                0x40001988                mutexLCD
 COMMON         0x400019a4        0x8 startup/libea_startup_thumb.a(framework.o)
                0x400019a4                pHeapEnd
                0x400019a8                pHeapStart
 COMMON         0x400019ac      0x190 pre_emptive_os/pre_emptive_os.a(kernel.o)
                0x400019ac                processControlBlocks
                0x40001b3c                . = ALIGN (0x4)
                0x40001b3c                . = ALIGN (0x4)
                0x40001b3c                __bss_end = .
                0x40001b3c                __bss_end__ = .
                0x40001b3c                _end = .
                0x40001b3c                PROVIDE (end, .)

.stab           0x00000000      0x600
 *(.stab)
 .stab          0x00000000      0x3c0 startup/libea_startup_thumb.a(startup.o)
 .stab          0x000003c0      0x240 pre_emptive_os/pre_emptive_os.a(a7hal_a.o)
                                0x24c (size before relaxing)

.stabstr        0x00000000       0x98
 *(.stabstr)
 .stabstr       0x00000000       0x98 startup/libea_startup_thumb.a(startup.o)

.stab.excl
 *(.stab.excl)

.stab.exclstr
 *(.stab.exclstr)

.stab.index
 *(.stab.index)

.stab.indexstr
 *(.stab.indexstr)

.comment        0x00000000      0x120
 *(.comment)
 .comment       0x00000000       0x12 main.o
 .comment       0x00000012       0x12 proc1.o
 .comment       0x00000024       0x12 proc2.o
 .comment       0x00000036       0x12 proc3.o
 .comment       0x00000048       0x12 startup/libea_startup_thumb.a(consol.o)
 .comment       0x0000005a       0x12 startup/libea_startup_thumb.a(framework.o)
 .comment       0x0000006c       0x12 pre_emptive_os/pre_emptive_os.a(kernel.o)
 .comment       0x0000007e       0x12 pre_emptive_os/pre_emptive_os.a(prioqueue.o)
 .comment       0x00000090       0x12 pre_emptive_os/pre_emptive_os.a(count_sem.o)
 .comment       0x000000a2       0x12 pre_emptive_os/pre_emptive_os.a(timer.o)
 .comment       0x000000b4       0x12 pre_emptive_os/pre_emptive_os.a(stack_usage.o)
 .comment       0x000000c6       0x12 pre_emptive_os/pre_emptive_os.a(a7hal.o)
 .comment       0x000000d8       0x12 pre_emptive_os/pre_emptive_os.a(event.o)
 .comment       0x000000ea       0x12 LCD/lib_LCD.a(LCD.o)
 .comment       0x000000fc       0x12 interrupt/lib_interrupt.a(interrupt.o)
 .comment       0x0000010e       0x12 /cygdrive/c/program/gnuarm/bin/../lib/gcc/arm-elf/4.1.1/../../../../arm-elf/lib/interwork/libc.a(memcpy.o)

.debug
 *(.debug)

.line
 *(.line)

.debug_srcinfo
 *(.debug_srcinfo)

.debug_sfnames
 *(.debug_sfnames)

.debug_aranges  0x00000000      0x280
 *(.debug_aranges)
 .debug_aranges
                0x00000000       0x20 main.o
 .debug_aranges
                0x00000020       0x20 proc1.o
 .debug_aranges
                0x00000040       0x20 proc2.o
 .debug_aranges
                0x00000060       0x20 proc3.o
 .debug_aranges
                0x00000080       0x20 startup/libea_startup_thumb.a(consol.o)
 .debug_aranges
                0x000000a0       0x20 startup/libea_startup_thumb.a(framework.o)
 .debug_aranges
                0x000000c0       0x20 pre_emptive_os/pre_emptive_os.a(kernel.o)
 .debug_aranges
                0x000000e0       0x20 pre_emptive_os/pre_emptive_os.a(prioqueue.o)
 .debug_aranges
                0x00000100       0x20 pre_emptive_os/pre_emptive_os.a(count_sem.o)
 .debug_aranges
                0x00000120       0x20 pre_emptive_os/pre_emptive_os.a(timer.o)
 .debug_aranges
                0x00000140       0x20 pre_emptive_os/pre_emptive_os.a(stack_usage.o)
 .debug_aranges
                0x00000160       0x20 pre_emptive_os/pre_emptive_os.a(a7hal.o)
 .debug_aranges
                0x00000180       0x20 pre_emptive_os/pre_emptive_os.a(event.o)
 .debug_aranges
                0x000001a0       0x20 LCD/lib_LCD.a(LCD.o)
 .debug_aranges
                0x000001c0       0x20 interrupt/lib_interrupt.a(interrupt.o)
 .debug_aranges
                0x000001e0       0x20 /cygdrive/c/program/gnuarm/bin/../lib/gcc/arm-elf/4.1.1/interwork/libgcc.a(_udivsi3.o)
 .debug_aranges
                0x00000200       0x20 /cygdrive/c/program/gnuarm/bin/../lib/gcc/arm-elf/4.1.1/interwork/libgcc.a(_divsi3.o)
 .debug_aranges
                0x00000220       0x20 /cygdrive/c/program/gnuarm/bin/../lib/gcc/arm-elf/4.1.1/interwork/libgcc.a(_umodsi3.o)
 .debug_aranges
                0x00000240       0x20 /cygdrive/c/program/gnuarm/bin/../lib/gcc/arm-elf/4.1.1/interwork/libgcc.a(_dvmd_tls.o)
 .debug_aranges
                0x00000260       0x20 /cygdrive/c/program/gnuarm/bin/../lib/gcc/arm-elf/4.1.1/../../../../arm-elf/lib/interwork/libc.a(memcpy.o)

.debug_pubnames
                0x00000000      0x6d5
 *(.debug_pubnames)
 .debug_pubnames
                0x00000000       0x63 main.o
 .debug_pubnames
                0x00000063       0x7c proc1.o
 .debug_pubnames
                0x000000df       0x1e proc2.o
 .debug_pubnames
                0x000000fd       0x1e proc3.o
 .debug_pubnames
                0x0000011b       0x80 startup/libea_startup_thumb.a(consol.o)
 .debug_pubnames
                0x0000019b       0x63 startup/libea_startup_thumb.a(framework.o)
 .debug_pubnames
                0x000001fe      0x17f pre_emptive_os/pre_emptive_os.a(kernel.o)
 .debug_pubnames
                0x0000037d       0x76 pre_emptive_os/pre_emptive_os.a(prioqueue.o)
 .debug_pubnames
                0x000003f3       0x4d pre_emptive_os/pre_emptive_os.a(count_sem.o)
 .debug_pubnames
                0x00000440       0x55 pre_emptive_os/pre_emptive_os.a(timer.o)
 .debug_pubnames
                0x00000495       0x4e pre_emptive_os/pre_emptive_os.a(stack_usage.o)
 .debug_pubnames
                0x000004e3       0xc1 pre_emptive_os/pre_emptive_os.a(a7hal.o)
 .debug_pubnames
                0x000005a4       0x63 pre_emptive_os/pre_emptive_os.a(event.o)
 .debug_pubnames
                0x00000607       0x8e LCD/lib_LCD.a(LCD.o)
 .debug_pubnames
                0x00000695       0x23 interrupt/lib_interrupt.a(interrupt.o)
 .debug_pubnames
                0x000006b8       0x1d /cygdrive/c/program/gnuarm/bin/../lib/gcc/arm-elf/4.1.1/../../../../arm-elf/lib/interwork/libc.a(memcpy.o)

.debug_info     0x00000000     0x34e5
 *(.debug_info .gnu.linkonce.wi.*)
 .debug_info    0x00000000      0x532 main.o
 .debug_info    0x00000532      0x5ad proc1.o
 .debug_info    0x00000adf      0x347 proc2.o
 .debug_info    0x00000e26      0x36b proc3.o
 .debug_info    0x00001191      0x3cc startup/libea_startup_thumb.a(consol.o)
 .debug_info    0x0000155d      0x1e5 startup/libea_startup_thumb.a(framework.o)
 .debug_info    0x00001742      0x62d pre_emptive_os/pre_emptive_os.a(kernel.o)
 .debug_info    0x00001d6f      0x2f6 pre_emptive_os/pre_emptive_os.a(prioqueue.o)
 .debug_info    0x00002065      0x345 pre_emptive_os/pre_emptive_os.a(count_sem.o)
 .debug_info    0x000023aa      0x4da pre_emptive_os/pre_emptive_os.a(timer.o)
 .debug_info    0x00002884      0x2e3 pre_emptive_os/pre_emptive_os.a(stack_usage.o)
 .debug_info    0x00002b67      0x189 pre_emptive_os/pre_emptive_os.a(a7hal.o)
 .debug_info    0x00002cf0      0x308 pre_emptive_os/pre_emptive_os.a(event.o)
 .debug_info    0x00002ff8      0x1d3 LCD/lib_LCD.a(LCD.o)
 .debug_info    0x000031cb       0x70 interrupt/lib_interrupt.a(interrupt.o)
 .debug_info    0x0000323b       0x68 /cygdrive/c/program/gnuarm/bin/../lib/gcc/arm-elf/4.1.1/interwork/libgcc.a(_udivsi3.o)
 .debug_info    0x000032a3       0x68 /cygdrive/c/program/gnuarm/bin/../lib/gcc/arm-elf/4.1.1/interwork/libgcc.a(_divsi3.o)
 .debug_info    0x0000330b       0x68 /cygdrive/c/program/gnuarm/bin/../lib/gcc/arm-elf/4.1.1/interwork/libgcc.a(_umodsi3.o)
 .debug_info    0x00003373       0x68 /cygdrive/c/program/gnuarm/bin/../lib/gcc/arm-elf/4.1.1/interwork/libgcc.a(_dvmd_tls.o)
 .debug_info    0x000033db      0x10a /cygdrive/c/program/gnuarm/bin/../lib/gcc/arm-elf/4.1.1/../../../../arm-elf/lib/interwork/libc.a(memcpy.o)

.debug_abbrev   0x00000000     0x11c6
 *(.debug_abbrev)
 .debug_abbrev  0x00000000      0x112 main.o
 .debug_abbrev  0x00000112      0x153 proc1.o
 .debug_abbrev  0x00000265       0xb2 proc2.o
 .debug_abbrev  0x00000317       0xbb proc3.o
 .debug_abbrev  0x000003d2      0x234 startup/libea_startup_thumb.a(consol.o)
 .debug_abbrev  0x00000606       0xd0 startup/libea_startup_thumb.a(framework.o)
 .debug_abbrev  0x000006d6      0x1d8 pre_emptive_os/pre_emptive_os.a(kernel.o)
 .debug_abbrev  0x000008ae      0x14f pre_emptive_os/pre_emptive_os.a(prioqueue.o)
 .debug_abbrev  0x000009fd      0x10e pre_emptive_os/pre_emptive_os.a(count_sem.o)
 .debug_abbrev  0x00000b0b      0x18e pre_emptive_os/pre_emptive_os.a(timer.o)
 .debug_abbrev  0x00000c99      0x181 pre_emptive_os/pre_emptive_os.a(stack_usage.o)
 .debug_abbrev  0x00000e1a       0xf2 pre_emptive_os/pre_emptive_os.a(a7hal.o)
 .debug_abbrev  0x00000f0c      0x103 pre_emptive_os/pre_emptive_os.a(event.o)
 .debug_abbrev  0x0000100f       0x6f LCD/lib_LCD.a(LCD.o)
 .debug_abbrev  0x0000107e       0x52 interrupt/lib_interrupt.a(interrupt.o)
 .debug_abbrev  0x000010d0       0x14 /cygdrive/c/program/gnuarm/bin/../lib/gcc/arm-elf/4.1.1/interwork/libgcc.a(_udivsi3.o)
 .debug_abbrev  0x000010e4       0x14 /cygdrive/c/program/gnuarm/bin/../lib/gcc/arm-elf/4.1.1/interwork/libgcc.a(_divsi3.o)
 .debug_abbrev  0x000010f8       0x14 /cygdrive/c/program/gnuarm/bin/../lib/gcc/arm-elf/4.1.1/interwork/libgcc.a(_umodsi3.o)
 .debug_abbrev  0x0000110c       0x14 /cygdrive/c/program/gnuarm/bin/../lib/gcc/arm-elf/4.1.1/interwork/libgcc.a(_dvmd_tls.o)
 .debug_abbrev  0x00001120       0xa6 /cygdrive/c/program/gnuarm/bin/../lib/gcc/arm-elf/4.1.1/../../../../arm-elf/lib/interwork/libc.a(memcpy.o)

.debug_line     0x00000000      0xe6c
 *(.debug_line)
 .debug_line    0x00000000       0xeb main.o
 .debug_line    0x000000eb      0x138 proc1.o
 .debug_line    0x00000223       0x82 proc2.o
 .debug_line    0x000002a5       0x89 proc3.o
 .debug_line    0x0000032e      0x11e startup/libea_startup_thumb.a(consol.o)
 .debug_line    0x0000044c       0xba startup/libea_startup_thumb.a(framework.o)
 .debug_line    0x00000506      0x17a pre_emptive_os/pre_emptive_os.a(kernel.o)
 .debug_line    0x00000680       0xb6 pre_emptive_os/pre_emptive_os.a(prioqueue.o)
 .debug_line    0x00000736       0xda pre_emptive_os/pre_emptive_os.a(count_sem.o)
 .debug_line    0x00000810      0x10b pre_emptive_os/pre_emptive_os.a(timer.o)
 .debug_line    0x0000091b       0x8f pre_emptive_os/pre_emptive_os.a(stack_usage.o)
 .debug_line    0x000009aa       0x8c pre_emptive_os/pre_emptive_os.a(a7hal.o)
 .debug_line    0x00000a36       0xb2 pre_emptive_os/pre_emptive_os.a(event.o)
 .debug_line    0x00000ae8       0x75 LCD/lib_LCD.a(LCD.o)
 .debug_line    0x00000b5d       0x68 interrupt/lib_interrupt.a(interrupt.o)
 .debug_line    0x00000bc5       0x84 /cygdrive/c/program/gnuarm/bin/../lib/gcc/arm-elf/4.1.1/interwork/libgcc.a(_udivsi3.o)
 .debug_line    0x00000c49       0x90 /cygdrive/c/program/gnuarm/bin/../lib/gcc/arm-elf/4.1.1/interwork/libgcc.a(_divsi3.o)
 .debug_line    0x00000cd9       0x6e /cygdrive/c/program/gnuarm/bin/../lib/gcc/arm-elf/4.1.1/interwork/libgcc.a(_umodsi3.o)
 .debug_line    0x00000d47       0x5d /cygdrive/c/program/gnuarm/bin/../lib/gcc/arm-elf/4.1.1/interwork/libgcc.a(_dvmd_tls.o)
 .debug_line    0x00000da4       0xc8 /cygdrive/c/program/gnuarm/bin/../lib/gcc/arm-elf/4.1.1/../../../../arm-elf/lib/interwork/libc.a(memcpy.o)

.debug_frame    0x00000000      0xb24
 *(.debug_frame)
 .debug_frame   0x00000000       0xb4 main.o
 .debug_frame   0x000000b4      0x168 proc1.o
 .debug_frame   0x0000021c       0x30 proc2.o
 .debug_frame   0x0000024c       0x30 proc3.o
 .debug_frame   0x0000027c       0xcc startup/libea_startup_thumb.a(consol.o)
 .debug_frame   0x00000348       0xe0 startup/libea_startup_thumb.a(framework.o)
 .debug_frame   0x00000428      0x1dc pre_emptive_os/pre_emptive_os.a(kernel.o)
 .debug_frame   0x00000604       0x7c pre_emptive_os/pre_emptive_os.a(prioqueue.o)
 .debug_frame   0x00000680       0x84 pre_emptive_os/pre_emptive_os.a(count_sem.o)
 .debug_frame   0x00000704       0xb8 pre_emptive_os/pre_emptive_os.a(timer.o)
 .debug_frame   0x000007bc       0x54 pre_emptive_os/pre_emptive_os.a(stack_usage.o)
 .debug_frame   0x00000810       0xa0 pre_emptive_os/pre_emptive_os.a(a7hal.o)
 .debug_frame   0x000008b0       0x90 pre_emptive_os/pre_emptive_os.a(event.o)
 .debug_frame   0x00000940      0x110 LCD/lib_LCD.a(LCD.o)
 .debug_frame   0x00000a50       0x28 interrupt/lib_interrupt.a(interrupt.o)
 .debug_frame   0x00000a78       0x2c /cygdrive/c/program/gnuarm/bin/../lib/gcc/arm-elf/4.1.1/interwork/libgcc.a(_udivsi3.o)
 .debug_frame   0x00000aa4       0x2c /cygdrive/c/program/gnuarm/bin/../lib/gcc/arm-elf/4.1.1/interwork/libgcc.a(_divsi3.o)
 .debug_frame   0x00000ad0       0x2c /cygdrive/c/program/gnuarm/bin/../lib/gcc/arm-elf/4.1.1/interwork/libgcc.a(_umodsi3.o)
 .debug_frame   0x00000afc       0x28 /cygdrive/c/program/gnuarm/bin/../lib/gcc/arm-elf/4.1.1/../../../../arm-elf/lib/interwork/libc.a(memcpy.o)

.debug_str      0x00000000      0xa29
 *(.debug_str)
 .debug_str     0x00000000      0x180 startup/libea_startup_thumb.a(consol.o)
                                0x1b5 (size before relaxing)
 .debug_str     0x00000180       0xdd startup/libea_startup_thumb.a(framework.o)
                                0x14c (size before relaxing)
 .debug_str     0x0000025d      0x28e pre_emptive_os/pre_emptive_os.a(kernel.o)
                                0x300 (size before relaxing)
 .debug_str     0x000004eb       0x7d pre_emptive_os/pre_emptive_os.a(prioqueue.o)
                                0x1f0 (size before relaxing)
 .debug_str     0x00000568       0x7d pre_emptive_os/pre_emptive_os.a(count_sem.o)
                                0x205 (size before relaxing)
 .debug_str     0x000005e5       0xed pre_emptive_os/pre_emptive_os.a(timer.o)
                                0x2a1 (size before relaxing)
 .debug_str     0x000006d2       0x75 pre_emptive_os/pre_emptive_os.a(stack_usage.o)
                                0x1d5 (size before relaxing)
 .debug_str     0x00000747      0x176 pre_emptive_os/pre_emptive_os.a(a7hal.o)
                                0x1d8 (size before relaxing)
 .debug_str     0x000008bd       0x51 pre_emptive_os/pre_emptive_os.a(event.o)
                                0x20f (size before relaxing)
 .debug_str     0x0000090e       0x71 interrupt/lib_interrupt.a(interrupt.o)
                                 0x90 (size before relaxing)
 .debug_str     0x0000097f       0xaa /cygdrive/c/program/gnuarm/bin/../lib/gcc/arm-elf/4.1.1/../../../../arm-elf/lib/interwork/libc.a(memcpy.o)
                                 0xd6 (size before relaxing)

.debug_loc      0x00000000     0x191e
 *(.debug_loc)
 .debug_loc     0x00000000      0x106 main.o
 .debug_loc     0x00000106      0x244 proc1.o
 .debug_loc     0x0000034a       0x37 proc2.o
 .debug_loc     0x00000381       0x37 proc3.o
 .debug_loc     0x000003b8      0x3f0 startup/libea_startup_thumb.a(consol.o)
 .debug_loc     0x000007a8      0x1b2 startup/libea_startup_thumb.a(framework.o)
 .debug_loc     0x0000095a      0x53f pre_emptive_os/pre_emptive_os.a(kernel.o)
 .debug_loc     0x00000e99      0x124 pre_emptive_os/pre_emptive_os.a(prioqueue.o)
 .debug_loc     0x00000fbd      0x219 pre_emptive_os/pre_emptive_os.a(count_sem.o)
 .debug_loc     0x000011d6      0x253 pre_emptive_os/pre_emptive_os.a(timer.o)
 .debug_loc     0x00001429      0x120 pre_emptive_os/pre_emptive_os.a(stack_usage.o)
 .debug_loc     0x00001549      0x16a pre_emptive_os/pre_emptive_os.a(event.o)
 .debug_loc     0x000016b3      0x150 LCD/lib_LCD.a(LCD.o)
 .debug_loc     0x00001803       0x1f interrupt/lib_interrupt.a(interrupt.o)
 .debug_loc     0x00001822       0xfc /cygdrive/c/program/gnuarm/bin/../lib/gcc/arm-elf/4.1.1/../../../../arm-elf/lib/interwork/libc.a(memcpy.o)

.debug_macinfo
 *(.debug_macinfo)

.debug_weaknames
 *(.debug_weaknames)

.debug_funcnames
 *(.debug_funcnames)

.debug_typenames
 *(.debug_typenames)

.debug_varnames
 *(.debug_varnames)
OUTPUT(main.elf elf32-littlearm)

Cross Reference Table

Symbol                                            File
Timer1ISRirq                                      interrupt/lib_interrupt.a(interrupt.o)
                                                  main.o
____divsi3_change_to_arm                          /cygdrive/c/program/gnuarm/bin/../lib/gcc/arm-elf/4.1.1/../../../../arm-elf/lib/interwork/libc.a(memcpy.o)
____divsi3_from_thumb                             /cygdrive/c/program/gnuarm/bin/../lib/gcc/arm-elf/4.1.1/../../../../arm-elf/lib/interwork/libc.a(memcpy.o)
____udivsi3_change_to_arm                         /cygdrive/c/program/gnuarm/bin/../lib/gcc/arm-elf/4.1.1/../../../../arm-elf/lib/interwork/libc.a(memcpy.o)
____udivsi3_from_thumb                            /cygdrive/c/program/gnuarm/bin/../lib/gcc/arm-elf/4.1.1/../../../../arm-elf/lib/interwork/libc.a(memcpy.o)
__aeabi_idiv                                      /cygdrive/c/program/gnuarm/bin/../lib/gcc/arm-elf/4.1.1/interwork/libgcc.a(_divsi3.o)
__aeabi_idiv0                                     /cygdrive/c/program/gnuarm/bin/../lib/gcc/arm-elf/4.1.1/interwork/libgcc.a(_dvmd_tls.o)
__aeabi_idivmod                                   /cygdrive/c/program/gnuarm/bin/../lib/gcc/arm-elf/4.1.1/interwork/libgcc.a(_divsi3.o)
__aeabi_ldiv0                                     /cygdrive/c/program/gnuarm/bin/../lib/gcc/arm-elf/4.1.1/interwork/libgcc.a(_dvmd_tls.o)
__aeabi_uidiv                                     /cygdrive/c/program/gnuarm/bin/../lib/gcc/arm-elf/4.1.1/interwork/libgcc.a(_udivsi3.o)
__aeabi_uidivmod                                  /cygdrive/c/program/gnuarm/bin/../lib/gcc/arm-elf/4.1.1/interwork/libgcc.a(_udivsi3.o)
__bss_end__                                       startup/libea_startup_thumb.a(startup.o)
__bss_start__                                     startup/libea_startup_thumb.a(startup.o)
__ctxSwitchIsr_oshal_change_to_arm                /cygdrive/c/program/gnuarm/bin/../lib/gcc/arm-elf/4.1.1/../../../../arm-elf/lib/interwork/libc.a(memcpy.o)
__ctxSwitchIsr_oshal_from_thumb                   /cygdrive/c/program/gnuarm/bin/../lib/gcc/arm-elf/4.1.1/../../../../arm-elf/lib/interwork/libc.a(memcpy.o)
__ctxSwitch_oshal_change_to_arm                   /cygdrive/c/program/gnuarm/bin/../lib/gcc/arm-elf/4.1.1/../../../../arm-elf/lib/interwork/libc.a(memcpy.o)
__ctxSwitch_oshal_from_thumb                      /cygdrive/c/program/gnuarm/bin/../lib/gcc/arm-elf/4.1.1/../../../../arm-elf/lib/interwork/libc.a(memcpy.o)
__delay_change_to_arm                             /cygdrive/c/program/gnuarm/bin/../lib/gcc/arm-elf/4.1.1/../../../../arm-elf/lib/interwork/libc.a(memcpy.o)
__delay_from_thumb                                /cygdrive/c/program/gnuarm/bin/../lib/gcc/arm-elf/4.1.1/../../../../arm-elf/lib/interwork/libc.a(memcpy.o)
__div0                                            /cygdrive/c/program/gnuarm/bin/../lib/gcc/arm-elf/4.1.1/interwork/libgcc.a(_dvmd_tls.o)
                                                  /cygdrive/c/program/gnuarm/bin/../lib/gcc/arm-elf/4.1.1/interwork/libgcc.a(_umodsi3.o)
                                                  /cygdrive/c/program/gnuarm/bin/../lib/gcc/arm-elf/4.1.1/interwork/libgcc.a(_divsi3.o)
                                                  /cygdrive/c/program/gnuarm/bin/../lib/gcc/arm-elf/4.1.1/interwork/libgcc.a(_udivsi3.o)
__divsi3                                          /cygdrive/c/program/gnuarm/bin/../lib/gcc/arm-elf/4.1.1/interwork/libgcc.a(_divsi3.o)
                                                  pre_emptive_os/pre_emptive_os.a(stack_usage.o)
__eaInit_change_to_arm                            /cygdrive/c/program/gnuarm/bin/../lib/gcc/arm-elf/4.1.1/../../../../arm-elf/lib/interwork/libc.a(memcpy.o)
__eaInit_from_thumb                               /cygdrive/c/program/gnuarm/bin/../lib/gcc/arm-elf/4.1.1/../../../../arm-elf/lib/interwork/libc.a(memcpy.o)
__halDisableInterrupts_oshal_change_to_arm        /cygdrive/c/program/gnuarm/bin/../lib/gcc/arm-elf/4.1.1/../../../../arm-elf/lib/interwork/libc.a(memcpy.o)
__halDisableInterrupts_oshal_from_thumb           /cygdrive/c/program/gnuarm/bin/../lib/gcc/arm-elf/4.1.1/../../../../arm-elf/lib/interwork/libc.a(memcpy.o)
__halRestoreInterrupts_oshal_change_to_arm        /cygdrive/c/program/gnuarm/bin/../lib/gcc/arm-elf/4.1.1/../../../../arm-elf/lib/interwork/libc.a(memcpy.o)
__halRestoreInterrupts_oshal_from_thumb           /cygdrive/c/program/gnuarm/bin/../lib/gcc/arm-elf/4.1.1/../../../../arm-elf/lib/interwork/libc.a(memcpy.o)
__initTimer_oshal_change_to_arm                   /cygdrive/c/program/gnuarm/bin/../lib/gcc/arm-elf/4.1.1/../../../../arm-elf/lib/interwork/libc.a(memcpy.o)
__initTimer_oshal_from_thumb                      /cygdrive/c/program/gnuarm/bin/../lib/gcc/arm-elf/4.1.1/../../../../arm-elf/lib/interwork/libc.a(memcpy.o)
__init_LCD_change_to_arm                          /cygdrive/c/program/gnuarm/bin/../lib/gcc/arm-elf/4.1.1/../../../../arm-elf/lib/interwork/libc.a(memcpy.o)
__init_LCD_from_thumb                             /cygdrive/c/program/gnuarm/bin/../lib/gcc/arm-elf/4.1.1/../../../../arm-elf/lib/interwork/libc.a(memcpy.o)
__osISRExit_from_arm                              /cygdrive/c/program/gnuarm/bin/../lib/gcc/arm-elf/4.1.1/../../../../arm-elf/lib/interwork/libc.a(memcpy.o)
__osTick_from_arm                                 /cygdrive/c/program/gnuarm/bin/../lib/gcc/arm-elf/4.1.1/../../../../arm-elf/lib/interwork/libc.a(memcpy.o)
__send_instruction_change_to_arm                  /cygdrive/c/program/gnuarm/bin/../lib/gcc/arm-elf/4.1.1/../../../../arm-elf/lib/interwork/libc.a(memcpy.o)
__send_instruction_from_thumb                     /cygdrive/c/program/gnuarm/bin/../lib/gcc/arm-elf/4.1.1/../../../../arm-elf/lib/interwork/libc.a(memcpy.o)
__setMode1_from_arm                               /cygdrive/c/program/gnuarm/bin/../lib/gcc/arm-elf/4.1.1/../../../../arm-elf/lib/interwork/libc.a(memcpy.o)
__setMode2_from_arm                               /cygdrive/c/program/gnuarm/bin/../lib/gcc/arm-elf/4.1.1/../../../../arm-elf/lib/interwork/libc.a(memcpy.o)
__simplePrintf_change_to_arm                      /cygdrive/c/program/gnuarm/bin/../lib/gcc/arm-elf/4.1.1/../../../../arm-elf/lib/interwork/libc.a(memcpy.o)
__simplePrintf_from_thumb                         /cygdrive/c/program/gnuarm/bin/../lib/gcc/arm-elf/4.1.1/../../../../arm-elf/lib/interwork/libc.a(memcpy.o)
__startHighProc_oshal_change_to_arm               /cygdrive/c/program/gnuarm/bin/../lib/gcc/arm-elf/4.1.1/../../../../arm-elf/lib/interwork/libc.a(memcpy.o)
__startHighProc_oshal_from_thumb                  /cygdrive/c/program/gnuarm/bin/../lib/gcc/arm-elf/4.1.1/../../../../arm-elf/lib/interwork/libc.a(memcpy.o)
__stkFrameInit_oshal_change_to_arm                /cygdrive/c/program/gnuarm/bin/../lib/gcc/arm-elf/4.1.1/../../../../arm-elf/lib/interwork/libc.a(memcpy.o)
__stkFrameInit_oshal_from_thumb                   /cygdrive/c/program/gnuarm/bin/../lib/gcc/arm-elf/4.1.1/../../../../arm-elf/lib/interwork/libc.a(memcpy.o)
__udivsi3                                         /cygdrive/c/program/gnuarm/bin/../lib/gcc/arm-elf/4.1.1/interwork/libgcc.a(_udivsi3.o)
                                                  pre_emptive_os/pre_emptive_os.a(stack_usage.o)
                                                  startup/libea_startup_thumb.a(consol.o)
                                                  proc1.o
__umodsi3                                         /cygdrive/c/program/gnuarm/bin/../lib/gcc/arm-elf/4.1.1/interwork/libgcc.a(_umodsi3.o)
                                                  startup/libea_startup_thumb.a(consol.o)
_data                                             startup/libea_startup_thumb.a(startup.o)
_edata                                            startup/libea_startup_thumb.a(startup.o)
_etext                                            startup/libea_startup_thumb.a(startup.o)
_startup                                          startup/libea_startup_thumb.a(startup.o)
addToPrioQueue                                    pre_emptive_os/pre_emptive_os.a(prioqueue.o)
                                                  pre_emptive_os/pre_emptive_os.a(event.o)
                                                  pre_emptive_os/pre_emptive_os.a(kernel.o)
addToRdyList                                      pre_emptive_os/pre_emptive_os.a(kernel.o)
                                                  pre_emptive_os/pre_emptive_os.a(event.o)
addToTimeList                                     pre_emptive_os/pre_emptive_os.a(kernel.o)
                                                  pre_emptive_os/pre_emptive_os.a(event.o)
appTick                                           main.o
                                                  pre_emptive_os/pre_emptive_os.a(kernel.o)
checkStackLimit                                   pre_emptive_os/pre_emptive_os.a(stack_usage.o)
consolInit                                        startup/libea_startup_thumb.a(consol.o)
                                                  startup/libea_startup_thumb.a(framework.o)
consolSendCh                                      startup/libea_startup_thumb.a(consol.o)
consolSendChar                                    startup/libea_startup_thumb.a(consol.o)
consolSendNumber                                  startup/libea_startup_thumb.a(consol.o)
                                                  startup/libea_startup_thumb.a(framework.o)
consolSendString                                  startup/libea_startup_thumb.a(consol.o)
                                                  startup/libea_startup_thumb.a(framework.o)
createStackPattern                                pre_emptive_os/pre_emptive_os.a(stack_usage.o)
                                                  pre_emptive_os/pre_emptive_os.a(kernel.o)
ctxSwitchIsr_oshal                                pre_emptive_os/pre_emptive_os.a(a7hal_a.o)
                                                  pre_emptive_os/pre_emptive_os.a(kernel.o)
ctxSwitch_oshal                                   pre_emptive_os/pre_emptive_os.a(a7hal_a.o)
                                                  pre_emptive_os/pre_emptive_os.a(kernel.o)
delay                                             LCD/lib_LCD.a(LCD.o)
                                                  proc1.o
                                                  main.o
delay_mikros                                      LCD/lib_LCD.a(LCD.o)
delay_millis                                      LCD/lib_LCD.a(LCD.o)
delay_secs                                        LCD/lib_LCD.a(LCD.o)
delaylong                                         main.o
                                                  proc1.o
delayshort                                        main.o
                                                  proc1.o
dev_run                                           proc1.o
eaInit                                            startup/libea_startup_thumb.a(framework.o)
                                                  main.o
end                                               startup/libea_startup_thumb.a(framework.o)
eventInit                                         pre_emptive_os/pre_emptive_os.a(event.o)
                                                  pre_emptive_os/pre_emptive_os.a(count_sem.o)
eventIsEmpty                                      pre_emptive_os/pre_emptive_os.a(event.o)
                                                  pre_emptive_os/pre_emptive_os.a(count_sem.o)
eventSignal                                       pre_emptive_os/pre_emptive_os.a(event.o)
                                                  pre_emptive_os/pre_emptive_os.a(count_sem.o)
eventWait                                         pre_emptive_os/pre_emptive_os.a(event.o)
                                                  pre_emptive_os/pre_emptive_os.a(count_sem.o)
eventWaitReturn                                   pre_emptive_os/pre_emptive_os.a(event.o)
                                                  pre_emptive_os/pre_emptive_os.a(count_sem.o)
exceptionHandlerInit                              startup/libea_startup_thumb.a(framework.o)
                                                  startup/libea_startup_thumb.a(startup.o)
generalIRQ_oshal                                  pre_emptive_os/pre_emptive_os.a(a7hal_a.o)
                                                  pre_emptive_os/pre_emptive_os.a(a7hal.o)
getHighPrioQueue                                  pre_emptive_os/pre_emptive_os.a(prioqueue.o)
                                                  pre_emptive_os/pre_emptive_os.a(event.o)
                                                  pre_emptive_os/pre_emptive_os.a(kernel.o)
halDisableInterrupts_oshal                        pre_emptive_os/pre_emptive_os.a(a7hal.o)
                                                  pre_emptive_os/pre_emptive_os.a(timer.o)
                                                  pre_emptive_os/pre_emptive_os.a(count_sem.o)
                                                  pre_emptive_os/pre_emptive_os.a(kernel.o)
halEnableInterrupts_oshal                         pre_emptive_os/pre_emptive_os.a(a7hal.o)
halRestoreInterrupts_oshal                        pre_emptive_os/pre_emptive_os.a(a7hal.o)
                                                  pre_emptive_os/pre_emptive_os.a(timer.o)
                                                  pre_emptive_os/pre_emptive_os.a(count_sem.o)
                                                  pre_emptive_os/pre_emptive_os.a(kernel.o)
handleIRQs_oshal                                  pre_emptive_os/pre_emptive_os.a(a7hal.o)
                                                  pre_emptive_os/pre_emptive_os.a(a7hal_a.o)
initLCD                                           proc1.o
initLightPins                                     main.o
initPins                                          proc1.o
initPrioQueue                                     pre_emptive_os/pre_emptive_os.a(prioqueue.o)
                                                  pre_emptive_os/pre_emptive_os.a(event.o)
                                                  pre_emptive_os/pre_emptive_os.a(kernel.o)
initTimer_oshal                                   pre_emptive_os/pre_emptive_os.a(a7hal.o)
                                                  pre_emptive_os/pre_emptive_os.a(kernel.o)
init_LCD                                          LCD/lib_LCD.a(LCD.o)
                                                  main.o
isEmptyPrioQueue                                  pre_emptive_os/pre_emptive_os.a(prioqueue.o)
                                                  pre_emptive_os/pre_emptive_os.a(event.o)
isrNesting                                        pre_emptive_os/pre_emptive_os.a(kernel.o)
                                                  pre_emptive_os/pre_emptive_os.a(event.o)
                                                  pre_emptive_os/pre_emptive_os.a(a7hal_a.o)
                                                  pre_emptive_os/pre_emptive_os.a(count_sem.o)
lowLevelInit                                      startup/libea_startup_thumb.a(framework.o)
                                                  startup/libea_startup_thumb.a(startup.o)
main                                              main.o
                                                  startup/libea_startup_thumb.a(startup.o)
memcpy                                            /cygdrive/c/program/gnuarm/bin/../lib/gcc/arm-elf/4.1.1/../../../../arm-elf/lib/interwork/libc.a(memcpy.o)
                                                  startup/libea_startup_thumb.a(consol.o)
mode1                                             proc1.o
mode2                                             proc1.o
mutexLCD                                          proc3.o
                                                  proc2.o
                                                  proc1.o
                                                  main.o
osCreateProcess                                   pre_emptive_os/pre_emptive_os.a(kernel.o)
                                                  pre_emptive_os/pre_emptive_os.a(timer.o)
                                                  main.o
osCreateTimer                                     pre_emptive_os/pre_emptive_os.a(timer.o)
osDeleteProcess                                   pre_emptive_os/pre_emptive_os.a(kernel.o)
                                                  main.o
osDeleteTimer                                     pre_emptive_os/pre_emptive_os.a(timer.o)
osGetHighPrioProc                                 pre_emptive_os/pre_emptive_os.a(kernel.o)
osISREnter                                        pre_emptive_os/pre_emptive_os.a(kernel.o)
osISRExit                                         pre_emptive_os/pre_emptive_os.a(kernel.o)
                                                  pre_emptive_os/pre_emptive_os.a(a7hal_a.o)
osInit                                            pre_emptive_os/pre_emptive_os.a(kernel.o)
                                                  main.o
osInitTimers                                      pre_emptive_os/pre_emptive_os.a(timer.o)
osLockNesting                                     pre_emptive_os/pre_emptive_os.a(kernel.o)
osPid                                             pre_emptive_os/pre_emptive_os.a(kernel.o)
osResume                                          pre_emptive_os/pre_emptive_os.a(kernel.o)
osSemGive                                         pre_emptive_os/pre_emptive_os.a(count_sem.o)
                                                  pre_emptive_os/pre_emptive_os.a(timer.o)
                                                  proc3.o
                                                  proc2.o
                                                  proc1.o
osSemInit                                         pre_emptive_os/pre_emptive_os.a(count_sem.o)
                                                  pre_emptive_os/pre_emptive_os.a(timer.o)
                                                  main.o
osSemTake                                         pre_emptive_os/pre_emptive_os.a(count_sem.o)
                                                  pre_emptive_os/pre_emptive_os.a(timer.o)
                                                  proc3.o
                                                  proc2.o
                                                  proc1.o
osSemTryTake                                      pre_emptive_os/pre_emptive_os.a(count_sem.o)
osSleep                                           pre_emptive_os/pre_emptive_os.a(kernel.o)
                                                  proc3.o
                                                  proc2.o
                                                  proc1.o
                                                  main.o
osStackUsage                                      pre_emptive_os/pre_emptive_os.a(stack_usage.o)
osStart                                           pre_emptive_os/pre_emptive_os.a(kernel.o)
                                                  main.o
osStartProcess                                    pre_emptive_os/pre_emptive_os.a(kernel.o)
                                                  pre_emptive_os/pre_emptive_os.a(timer.o)
                                                  main.o
osSuspend                                         pre_emptive_os/pre_emptive_os.a(kernel.o)
osTick                                            pre_emptive_os/pre_emptive_os.a(kernel.o)
                                                  pre_emptive_os/pre_emptive_os.a(a7hal.o)
pHeapEnd                                          startup/libea_startup_thumb.a(framework.o)
pHeapStart                                        startup/libea_startup_thumb.a(framework.o)
pNxtToRun                                         pre_emptive_os/pre_emptive_os.a(kernel.o)
                                                  pre_emptive_os/pre_emptive_os.a(a7hal_a.o)
pRunProc                                          pre_emptive_os/pre_emptive_os.a(kernel.o)
                                                  pre_emptive_os/pre_emptive_os.a(event.o)
                                                  pre_emptive_os/pre_emptive_os.a(a7hal_a.o)
procEx1                                           proc1.o
                                                  main.o
procEx2                                           proc2.o
                                                  main.o
procEx3                                           proc3.o
                                                  main.o
processControlBlocks                              pre_emptive_os/pre_emptive_os.a(event.o)
                                                  pre_emptive_os/pre_emptive_os.a(stack_usage.o)
                                                  pre_emptive_os/pre_emptive_os.a(kernel.o)
rmvFromPrioQueue                                  pre_emptive_os/pre_emptive_os.a(prioqueue.o)
                                                  pre_emptive_os/pre_emptive_os.a(event.o)
                                                  pre_emptive_os/pre_emptive_os.a(kernel.o)
rmvFromRdyList                                    pre_emptive_os/pre_emptive_os.a(kernel.o)
                                                  pre_emptive_os/pre_emptive_os.a(event.o)
rmvFromTimeList                                   pre_emptive_os/pre_emptive_os.a(kernel.o)
                                                  pre_emptive_os/pre_emptive_os.a(event.o)
runPwm                                            proc1.o
schedule                                          pre_emptive_os/pre_emptive_os.a(kernel.o)
                                                  pre_emptive_os/pre_emptive_os.a(event.o)
                                                  pre_emptive_os/pre_emptive_os.a(count_sem.o)
send_character                                    LCD/lib_LCD.a(LCD.o)
send_instruction                                  LCD/lib_LCD.a(LCD.o)
                                                  proc1.o
                                                  main.o
setMode1                                          proc1.o
                                                  interrupt/lib_interrupt.a(interrupt.o)
setMode2                                          proc1.o
                                                  interrupt/lib_interrupt.a(interrupt.o)
simplePrintf                                      startup/libea_startup_thumb.a(consol.o)
                                                  proc3.o
                                                  main.o
startHighProc_oshal                               pre_emptive_os/pre_emptive_os.a(a7hal_a.o)
                                                  pre_emptive_os/pre_emptive_os.a(kernel.o)
stkFrameInit_oshal                                pre_emptive_os/pre_emptive_os.a(a7hal.o)
                                                  pre_emptive_os/pre_emptive_os.a(kernel.o)
timerIsr_oshal                                    pre_emptive_os/pre_emptive_os.a(a7hal.o)
timerTick                                         pre_emptive_os/pre_emptive_os.a(timer.o)
                                                  pre_emptive_os/pre_emptive_os.a(kernel.o)
wait_BF                                           LCD/lib_LCD.a(LCD.o)
