ARM GAS  /cygdrive/c/DOCUME~1/deforce/LOKALA~1/Temp/ccN91Tn4.s 			page 1


   1              		.code	16
   2              		.file	"proc1.c"
   3              		.section	.debug_abbrev,"",%progbits
   4              	.Ldebug_abbrev0:
   5              		.section	.debug_info,"",%progbits
   6              	.Ldebug_info0:
   7              		.section	.debug_line,"",%progbits
   8              	.Ldebug_line0:
   9 0000 90000000 		.text
   9      02006300 
   9      00000201 
   9      FB0E0D00 
   9      01010101 
  10              	.Ltext0:
  11              		.align	2
  12              		.global	procEx1
  13              		.code 16
  14              		.thumb_func
  15              		.type	procEx1, %function
  16              	procEx1:
  17              	.LFB2:
  18              		.file 1 "proc1.c"
   1:proc1.c       **** /*
   2:proc1.c       ****  * proc1.c
   3:proc1.c       ****  *
   4:proc1.c       ****  *  Created on: 31 okt 2011
   5:proc1.c       ****  *      Author: Tommy
   6:proc1.c       ****  */
   7:proc1.c       **** 
   8:proc1.c       **** /*****************************************************************************
   9:proc1.c       ****  *
  10:proc1.c       ****  *    Exempel 1
  11:proc1.c       ****  *
  12:proc1.c       ****  *
  13:proc1.c       ****  ****************************************************************************/
  14:proc1.c       **** #include "pre_emptive_os/api/osapi.h"
  15:proc1.c       **** #include "general.h"
  16:proc1.c       **** #include "startup/lpc2xxx.h"
  17:proc1.c       **** #include "startup/printf_P.h"
  18:proc1.c       **** #include "startup/ea_init.h"
  19:proc1.c       **** #include "startup/consol.h"
  20:proc1.c       **** #include "startup/config.h"
  21:proc1.c       **** #include "startup/framework.h"
  22:proc1.c       **** 
  23:proc1.c       **** #include "LCD/LCD.h"  //  Funktionsprototyper för LCD-rutinerna
  24:proc1.c       **** 
  25:proc1.c       **** extern long const delayshort;
  26:proc1.c       **** extern long const delaylong;
  27:proc1.c       **** 
  28:proc1.c       **** // TODO: temporary extern declarations.. (make these local later if possible)
  29:proc1.c       **** extern tU32 freq;
  30:proc1.c       **** extern tU32 duty;
  31:proc1.c       **** 
  32:proc1.c       **** extern tCntSem mutexLCD;
  33:proc1.c       **** 
  34:proc1.c       **** /*****************************************************************************
  35:proc1.c       ****  * Function prototypes
ARM GAS  /cygdrive/c/DOCUME~1/deforce/LOKALA~1/Temp/ccN91Tn4.s 			page 2


  36:proc1.c       ****  ****************************************************************************/
  37:proc1.c       **** static void setPwmDutyPercent(tU32 dutyValue);
  38:proc1.c       **** static void setPwmDuty(tU32 dutyValue);
  39:proc1.c       **** 
  40:proc1.c       **** /****************************************************************************/
  41:proc1.c       **** 
  42:proc1.c       **** void
  43:proc1.c       **** procEx1(void* arg)
  44:proc1.c       **** {
  19              		.loc 1 44 0
  20 0000 80B5     		push	{r7, lr}
  21              	.LCFI0:
  22 0002 82B0     		sub	sp, sp, #8
  23              	.LCFI1:
  24 0004 00AF     		add	r7, sp, #0
  25              	.LCFI2:
  26 0006 3B1C     		mov	r3, r7
  27 0008 1860     		str	r0, [r3]
  45:proc1.c       ****   tU8 error;
  46:proc1.c       **** 
  47:proc1.c       ****   for(;;)
  48:proc1.c       ****   {
  49:proc1.c       **** // Exempelkod för att visa hur flera processer kan dela på LCD
  50:proc1.c       **** 
  51:proc1.c       ****    osSemTake(&mutexLCD, 0, &error);
  28              		.loc 1 51 0
  29 000a 184B     		ldr	r3, .L8
  30 000c FA1D     		add	r2, r7, #7
  31 000e 181C     		mov	r0, r3
  32 0010 0021     		mov	r1, #0
  33 0012 FFF7FEFF 		bl	osSemTake
  52:proc1.c       **** 
  53:proc1.c       **** 	delay(delayshort);
  34              		.loc 1 53 0
  35 0016 164B     		ldr	r3, .L8+4
  36 0018 1B68     		ldr	r3, [r3]
  37 001a 181C     		mov	r0, r3
  38 001c FFF7FEFF 		bl	delay
  54:proc1.c       **** 	send_instruction(1);	//cleara displayen
  39              		.loc 1 54 0
  40 0020 0120     		mov	r0, #1
  41 0022 FFF7FEFF 		bl	send_instruction
  55:proc1.c       **** 	delay(delaylong);
  42              		.loc 1 55 0
  43 0026 134B     		ldr	r3, .L8+8
  44 0028 1B68     		ldr	r3, [r3]
  45 002a 181C     		mov	r0, r3
  46 002c FFF7FEFF 		bl	delay
  56:proc1.c       **** 	send_instruction(2);  //cursorn till första positionen
  47              		.loc 1 56 0
  48 0030 0220     		mov	r0, #2
  49 0032 FFF7FEFF 		bl	send_instruction
  57:proc1.c       **** 
  58:proc1.c       **** 	//vary duty cycle
  59:proc1.c       **** 	  duty = 0;
  50              		.loc 1 59 0
  51 0036 104A     		ldr	r2, .L8+12
ARM GAS  /cygdrive/c/DOCUME~1/deforce/LOKALA~1/Temp/ccN91Tn4.s 			page 3


  52 0038 0023     		mov	r3, #0
  53 003a 1360     		str	r3, [r2]
  54 003c FFE7     		b	.L7
  55              	.L3:
  56              	.L7:
  60:proc1.c       **** 
  61:proc1.c       **** 	  while(1)
  62:proc1.c       **** 	  {
  63:proc1.c       **** 	    //set frequency value
  64:proc1.c       **** 	    setPwmDutyPercent(duty);
  57              		.loc 1 64 0
  58 003e 0E4B     		ldr	r3, .L8+12
  59 0040 1B68     		ldr	r3, [r3]
  60 0042 181C     		mov	r0, r3
  61 0044 00F01CF8 		bl	setPwmDutyPercent
  65:proc1.c       **** 
  66:proc1.c       **** 	    //wait 10 ms
  67:proc1.c       **** 	    delay_millis(10);
  62              		.loc 1 67 0
  63 0048 0A20     		mov	r0, #10
  64 004a FFF7FEFF 		bl	delay_millis
  68:proc1.c       **** 
  69:proc1.c       **** 	    //update duty cycle (0.00 - 100.00%, in steps of 0.10%)
  70:proc1.c       **** 	    duty += 10;
  65              		.loc 1 70 0
  66 004e 0A4B     		ldr	r3, .L8+12
  67 0050 1B68     		ldr	r3, [r3]
  68 0052 1A1C     		mov	r2, r3
  69 0054 0A32     		add	r2, r2, #10
  70 0056 084B     		ldr	r3, .L8+12
  71 0058 1A60     		str	r2, [r3]
  71:proc1.c       **** 	    if (duty > 10000)
  72              		.loc 1 71 0
  73 005a 074B     		ldr	r3, .L8+12
  74 005c 1A68     		ldr	r2, [r3]
  75 005e 074B     		ldr	r3, .L8+16
  76 0060 9A42     		cmp	r2, r3
  77 0062 ECD9     		bls	.L3
  72:proc1.c       **** 	      duty = 0;
  78              		.loc 1 72 0
  79 0064 044A     		ldr	r2, .L8+12
  80 0066 0023     		mov	r3, #0
  81 0068 1360     		str	r3, [r2]
  73:proc1.c       **** 	  }
  82              		.loc 1 73 0
  83 006a E8E7     		b	.L3
  84              	.L9:
  85              		.align	2
  86              	.L8:
  87 006c 00000000 		.word	mutexLCD
  88 0070 00000000 		.word	delayshort
  89 0074 00000000 		.word	delaylong
  90 0078 00000000 		.word	duty
  91 007c 10270000 		.word	10000
  92              	.LFE2:
  93              		.size	procEx1, .-procEx1
  94              		.global	__udivsi3
ARM GAS  /cygdrive/c/DOCUME~1/deforce/LOKALA~1/Temp/ccN91Tn4.s 			page 4


  95              		.align	2
  96              		.code 16
  97              		.thumb_func
  98              		.type	setPwmDutyPercent, %function
  99              	setPwmDutyPercent:
 100              	.LFB3:
  74:proc1.c       **** 
  75:proc1.c       ****     osSemGive(&mutexLCD, &error);
  76:proc1.c       **** 
  77:proc1.c       **** 
  78:proc1.c       ****     osSleep(1000);
  79:proc1.c       ****   }
  80:proc1.c       **** }
  81:proc1.c       **** 
  82:proc1.c       **** /*****************************************************************************
  83:proc1.c       ****  *
  84:proc1.c       ****  * Description:
  85:proc1.c       ****  *    Update the duty cycle value of the PWM signal.
  86:proc1.c       ****  *
  87:proc1.c       ****  * Params:
  88:proc1.c       ****  *    [in] dutyValue - the new duty cycle value in percent in increments
  89:proc1.c       ****  *                     of 0.01% (i.e., 10% = 1000).
  90:proc1.c       ****  *
  91:proc1.c       ****  ****************************************************************************/
  92:proc1.c       **** static void
  93:proc1.c       **** setPwmDutyPercent(tU32 dutyValue)
  94:proc1.c       **** {
 101              		.loc 1 94 0
 102 0080 90B5     		push	{r4, r7, lr}
 103              	.LCFI3:
 104 0082 81B0     		sub	sp, sp, #4
 105              	.LCFI4:
 106 0084 00AF     		add	r7, sp, #0
 107              	.LCFI5:
 108 0086 3B1C     		mov	r3, r7
 109 0088 1860     		str	r0, [r3]
  95:proc1.c       ****   PWM_MR2 = (PWM_MR0 * dutyValue) / 10000;  //update duty cycle
 110              		.loc 1 95 0
 111 008a 0A4C     		ldr	r4, .L12
 112 008c 0A4B     		ldr	r3, .L12+4
 113 008e 1A68     		ldr	r2, [r3]
 114 0090 3B1C     		mov	r3, r7
 115 0092 1B68     		ldr	r3, [r3]
 116 0094 5343     		mul	r3, r2
 117 0096 181C     		mov	r0, r3
 118 0098 0849     		ldr	r1, .L12+8
 119 009a FFF7FEFF 		bl	__udivsi3
 120 009e 031C     		mov	r3, r0
 121 00a0 2360     		str	r3, [r4]
  96:proc1.c       ****   PWM_LER = 0x04;                           //latch new values for MR2
 122              		.loc 1 96 0
 123 00a2 074A     		ldr	r2, .L12+12
 124 00a4 0423     		mov	r3, #4
 125 00a6 1360     		str	r3, [r2]
  97:proc1.c       **** }
 126              		.loc 1 97 0
 127 00a8 BD46     		mov	sp, r7
ARM GAS  /cygdrive/c/DOCUME~1/deforce/LOKALA~1/Temp/ccN91Tn4.s 			page 5


 128 00aa 01B0     		add	sp, sp, #4
 129              		@ sp needed for prologue
 130 00ac 90BC     		pop	{r4, r7}
 131 00ae 01BC     		pop	{r0}
 132 00b0 0047     		bx	r0
 133              	.L13:
 134 00b2 0000     		.align	2
 135              	.L12:
 136 00b4 204001E0 		.word	-536788960
 137 00b8 184001E0 		.word	-536788968
 138 00bc 10270000 		.word	10000
 139 00c0 504001E0 		.word	-536788912
 140              	.LFE3:
 141              		.size	setPwmDutyPercent, .-setPwmDutyPercent
 142              		.align	2
 143              		.code 16
 144              		.thumb_func
 145              		.type	setPwmDuty, %function
 146              	setPwmDuty:
 147              	.LFB4:
  98:proc1.c       **** 
  99:proc1.c       **** /*****************************************************************************
 100:proc1.c       ****  *
 101:proc1.c       ****  * Description:
 102:proc1.c       ****  *    Update the duty cycle value of the PWM signal.
 103:proc1.c       ****  *
 104:proc1.c       ****  * Params:
 105:proc1.c       ****  *    [in] dutyValue - the new duty cycle value. Value calculated as:
 106:proc1.c       ****  *    (crystal frequency * PLL multiplication factor)
 107:proc1.c       ****  *    ----------------------------------------------- * duty cycle in percent
 108:proc1.c       ****  *           (VPBDIV factor * PWM frequency)
 109:proc1.c       ****  *
 110:proc1.c       ****  *                    or
 111:proc1.c       ****  *
 112:proc1.c       ****  *    value in MR0 register * duty cycle in percent
 113:proc1.c       ****  *
 114:proc1.c       ****  ****************************************************************************/
 115:proc1.c       **** static void
 116:proc1.c       **** setPwmDuty(tU32 dutyValue)
 117:proc1.c       **** {
 148              		.loc 1 117 0
 149 00c4 80B5     		push	{r7, lr}
 150              	.LCFI6:
 151 00c6 81B0     		sub	sp, sp, #4
 152              	.LCFI7:
 153 00c8 00AF     		add	r7, sp, #0
 154              	.LCFI8:
 155 00ca 3B1C     		mov	r3, r7
 156 00cc 1860     		str	r0, [r3]
 118:proc1.c       ****   PWM_MR2 = dutyValue;    //update duty cycle
 157              		.loc 1 118 0
 158 00ce 064A     		ldr	r2, .L16
 159 00d0 3B1C     		mov	r3, r7
 160 00d2 1B68     		ldr	r3, [r3]
 161 00d4 1360     		str	r3, [r2]
 119:proc1.c       ****   PWM_LER = 0x04;         //latch new values for MR2
 162              		.loc 1 119 0
ARM GAS  /cygdrive/c/DOCUME~1/deforce/LOKALA~1/Temp/ccN91Tn4.s 			page 6


 163 00d6 054A     		ldr	r2, .L16+4
 164 00d8 0423     		mov	r3, #4
 165 00da 1360     		str	r3, [r2]
 120:proc1.c       **** }
 166              		.loc 1 120 0
 167 00dc BD46     		mov	sp, r7
 168 00de 01B0     		add	sp, sp, #4
 169              		@ sp needed for prologue
 170 00e0 80BC     		pop	{r7}
 171 00e2 01BC     		pop	{r0}
 172 00e4 0047     		bx	r0
 173              	.L17:
 174 00e6 0000     		.align	2
 175              	.L16:
 176 00e8 204001E0 		.word	-536788960
 177 00ec 504001E0 		.word	-536788912
 178              	.LFE4:
 179              		.size	setPwmDuty, .-setPwmDuty
 180              		.section	.debug_frame,"",%progbits
 181              	.Lframe0:
 182 0000 0C000000 		.4byte	.LECIE0-.LSCIE0
 183              	.LSCIE0:
 184 0004 FFFFFFFF 		.4byte	0xffffffff
 185 0008 01       		.byte	0x1
 186 0009 00       		.ascii	"\000"
 187 000a 01       		.uleb128 0x1
 188 000b 7C       		.sleb128 -4
 189 000c 0E       		.byte	0xe
 190 000d 0C       		.byte	0xc
 191 000e 0D       		.uleb128 0xd
 192 000f 00       		.uleb128 0x0
 193              		.align	2
 194              	.LECIE0:
 195              	.LSFDE0:
 196 0010 1C000000 		.4byte	.LEFDE0-.LASFDE0
 197              	.LASFDE0:
 198 0014 00000000 		.4byte	.Lframe0
 199 0018 00000000 		.4byte	.LFB2
 200 001c 80000000 		.4byte	.LFE2-.LFB2
 201 0020 42       		.byte	0x4
 202              		.4byte	.LCFI0-.LFB2
 203 0021 0E       		.byte	0xe
 204 0022 08       		.uleb128 0x8
 205 0023 87       		.byte	0x87
 206 0024 02       		.uleb128 0x2
 207 0025 8E       		.byte	0x8e
 208 0026 01       		.uleb128 0x1
 209 0027 42       		.byte	0x4
 210              		.4byte	.LCFI1-.LCFI0
 211 0028 0E       		.byte	0xe
 212 0029 10       		.uleb128 0x10
 213 002a 42       		.byte	0x4
 214              		.4byte	.LCFI2-.LCFI1
 215 002b 0D       		.byte	0xd
 216 002c 07       		.uleb128 0x7
 217 002d 000000   		.align	2
 218              	.LEFDE0:
ARM GAS  /cygdrive/c/DOCUME~1/deforce/LOKALA~1/Temp/ccN91Tn4.s 			page 7


 219              	.LSFDE2:
 220 0030 1C000000 		.4byte	.LEFDE2-.LASFDE2
 221              	.LASFDE2:
 222 0034 00000000 		.4byte	.Lframe0
 223 0038 80000000 		.4byte	.LFB3
 224 003c 44000000 		.4byte	.LFE3-.LFB3
 225 0040 42       		.byte	0x4
 226              		.4byte	.LCFI3-.LFB3
 227 0041 0E       		.byte	0xe
 228 0042 0C       		.uleb128 0xc
 229 0043 84       		.byte	0x84
 230 0044 03       		.uleb128 0x3
 231 0045 87       		.byte	0x87
 232 0046 02       		.uleb128 0x2
 233 0047 8E       		.byte	0x8e
 234 0048 01       		.uleb128 0x1
 235 0049 42       		.byte	0x4
 236              		.4byte	.LCFI4-.LCFI3
 237 004a 0E       		.byte	0xe
 238 004b 10       		.uleb128 0x10
 239 004c 42       		.byte	0x4
 240              		.4byte	.LCFI5-.LCFI4
 241 004d 0D       		.byte	0xd
 242 004e 07       		.uleb128 0x7
 243 004f 00       		.align	2
 244              	.LEFDE2:
 245              	.LSFDE4:
 246 0050 1C000000 		.4byte	.LEFDE4-.LASFDE4
 247              	.LASFDE4:
 248 0054 00000000 		.4byte	.Lframe0
 249 0058 C4000000 		.4byte	.LFB4
 250 005c 2C000000 		.4byte	.LFE4-.LFB4
 251 0060 42       		.byte	0x4
 252              		.4byte	.LCFI6-.LFB4
 253 0061 0E       		.byte	0xe
 254 0062 08       		.uleb128 0x8
 255 0063 87       		.byte	0x87
 256 0064 02       		.uleb128 0x2
 257 0065 8E       		.byte	0x8e
 258 0066 01       		.uleb128 0x1
 259 0067 42       		.byte	0x4
 260              		.4byte	.LCFI7-.LCFI6
 261 0068 0E       		.byte	0xe
 262 0069 0C       		.uleb128 0xc
 263 006a 42       		.byte	0x4
 264              		.4byte	.LCFI8-.LCFI7
 265 006b 0D       		.byte	0xd
 266 006c 07       		.uleb128 0x7
 267 006d 000000   		.align	2
 268              	.LEFDE4:
 269              		.file 2 "pre_emptive_os/api/osapi.h"
 270              		.file 3 "pre_emptive_os/api/../api/general.h"
 271              		.text
 272              	.Letext0:
 273              		.section	.debug_loc,"",%progbits
 274              	.Ldebug_loc0:
 275              	.LLST0:
ARM GAS  /cygdrive/c/DOCUME~1/deforce/LOKALA~1/Temp/ccN91Tn4.s 			page 8


 276 0000 00000000 		.4byte	.LFB2-.Ltext0
 277 0004 02000000 		.4byte	.LCFI0-.Ltext0
 278 0008 0100     		.2byte	0x1
 279 000a 5D       		.byte	0x5d
 280 000b 02000000 		.4byte	.LCFI0-.Ltext0
 281 000f 04000000 		.4byte	.LCFI1-.Ltext0
 282 0013 0200     		.2byte	0x2
 283 0015 7D       		.byte	0x7d
 284 0016 08       		.sleb128 8
 285 0017 04000000 		.4byte	.LCFI1-.Ltext0
 286 001b 06000000 		.4byte	.LCFI2-.Ltext0
 287 001f 0200     		.2byte	0x2
 288 0021 7D       		.byte	0x7d
 289 0022 10       		.sleb128 16
 290 0023 06000000 		.4byte	.LCFI2-.Ltext0
 291 0027 80000000 		.4byte	.LFE2-.Ltext0
 292 002b 0200     		.2byte	0x2
 293 002d 77       		.byte	0x77
 294 002e 10       		.sleb128 16
 295 002f 00000000 		.4byte	0x0
 296 0033 00000000 		.4byte	0x0
 297              	.LLST1:
 298 0037 80000000 		.4byte	.LFB3-.Ltext0
 299 003b 82000000 		.4byte	.LCFI3-.Ltext0
 300 003f 0100     		.2byte	0x1
 301 0041 5D       		.byte	0x5d
 302 0042 82000000 		.4byte	.LCFI3-.Ltext0
 303 0046 84000000 		.4byte	.LCFI4-.Ltext0
 304 004a 0200     		.2byte	0x2
 305 004c 7D       		.byte	0x7d
 306 004d 0C       		.sleb128 12
 307 004e 84000000 		.4byte	.LCFI4-.Ltext0
 308 0052 86000000 		.4byte	.LCFI5-.Ltext0
 309 0056 0200     		.2byte	0x2
 310 0058 7D       		.byte	0x7d
 311 0059 10       		.sleb128 16
 312 005a 86000000 		.4byte	.LCFI5-.Ltext0
 313 005e C4000000 		.4byte	.LFE3-.Ltext0
 314 0062 0200     		.2byte	0x2
 315 0064 77       		.byte	0x77
 316 0065 10       		.sleb128 16
 317 0066 00000000 		.4byte	0x0
 318 006a 00000000 		.4byte	0x0
 319              	.LLST2:
 320 006e C4000000 		.4byte	.LFB4-.Ltext0
 321 0072 C6000000 		.4byte	.LCFI6-.Ltext0
 322 0076 0100     		.2byte	0x1
 323 0078 5D       		.byte	0x5d
 324 0079 C6000000 		.4byte	.LCFI6-.Ltext0
 325 007d C8000000 		.4byte	.LCFI7-.Ltext0
 326 0081 0200     		.2byte	0x2
 327 0083 7D       		.byte	0x7d
 328 0084 08       		.sleb128 8
 329 0085 C8000000 		.4byte	.LCFI7-.Ltext0
 330 0089 CA000000 		.4byte	.LCFI8-.Ltext0
 331 008d 0200     		.2byte	0x2
 332 008f 7D       		.byte	0x7d
ARM GAS  /cygdrive/c/DOCUME~1/deforce/LOKALA~1/Temp/ccN91Tn4.s 			page 9


 333 0090 0C       		.sleb128 12
 334 0091 CA000000 		.4byte	.LCFI8-.Ltext0
 335 0095 F0000000 		.4byte	.LFE4-.Ltext0
 336 0099 0200     		.2byte	0x2
 337 009b 77       		.byte	0x77
 338 009c 0C       		.sleb128 12
 339 009d 00000000 		.4byte	0x0
 340 00a1 00000000 		.4byte	0x0
 341              		.section	.debug_info
 342 0000 E1030000 		.4byte	0x3e1
 343 0004 0200     		.2byte	0x2
 344 0006 00000000 		.4byte	.Ldebug_abbrev0
 345 000a 04       		.byte	0x4
 346 000b 01       		.uleb128 0x1
 347 000c 00000000 		.4byte	.Ldebug_line0
 348 0010 F0000000 		.4byte	.Letext0
 349 0014 00000000 		.4byte	.Ltext0
 350 0018 474E5520 		.ascii	"GNU C 4.1.1\000"
 350      4320342E 
 350      312E3100 
 351 0024 01       		.byte	0x1
 352 0025 70726F63 		.ascii	"proc1.c\000"
 352      312E6300 
 353 002d 2F637967 		.ascii	"/cygdrive/c/armprojects/projekt/Project12\000"
 353      64726976 
 353      652F632F 
 353      61726D70 
 353      726F6A65 
 354 0057 02       		.uleb128 0x2
 355 0058 74553800 		.ascii	"tU8\000"
 356 005c 03       		.byte	0x3
 357 005d 47       		.byte	0x47
 358 005e 62000000 		.4byte	0x62
 359 0062 03       		.uleb128 0x3
 360 0063 756E7369 		.ascii	"unsigned char\000"
 360      676E6564 
 360      20636861 
 360      7200
 361 0071 01       		.byte	0x1
 362 0072 08       		.byte	0x8
 363 0073 02       		.uleb128 0x2
 364 0074 74553136 		.ascii	"tU16\000"
 364      00
 365 0079 03       		.byte	0x3
 366 007a 48       		.byte	0x48
 367 007b 7F000000 		.4byte	0x7f
 368 007f 03       		.uleb128 0x3
 369 0080 73686F72 		.ascii	"short unsigned int\000"
 369      7420756E 
 369      7369676E 
 369      65642069 
 369      6E7400
 370 0093 02       		.byte	0x2
 371 0094 07       		.byte	0x7
 372 0095 02       		.uleb128 0x2
 373 0096 74553332 		.ascii	"tU32\000"
 373      00
ARM GAS  /cygdrive/c/DOCUME~1/deforce/LOKALA~1/Temp/ccN91Tn4.s 			page 10


 374 009b 03       		.byte	0x3
 375 009c 49       		.byte	0x49
 376 009d A1000000 		.4byte	0xa1
 377 00a1 03       		.uleb128 0x3
 378 00a2 756E7369 		.ascii	"unsigned int\000"
 378      676E6564 
 378      20696E74 
 378      00
 379 00af 04       		.byte	0x4
 380 00b0 07       		.byte	0x7
 381 00b1 03       		.uleb128 0x3
 382 00b2 7369676E 		.ascii	"signed char\000"
 382      65642063 
 382      68617200 
 383 00be 01       		.byte	0x1
 384 00bf 06       		.byte	0x6
 385 00c0 03       		.uleb128 0x3
 386 00c1 73686F72 		.ascii	"short int\000"
 386      7420696E 
 386      7400
 387 00cb 02       		.byte	0x2
 388 00cc 05       		.byte	0x5
 389 00cd 03       		.uleb128 0x3
 390 00ce 696E7400 		.ascii	"int\000"
 391 00d2 04       		.byte	0x4
 392 00d3 05       		.byte	0x5
 393 00d4 04       		.uleb128 0x4
 394 00d5 E9010000 		.4byte	0x1e9
 395 00d9 5F744F53 		.ascii	"_tOSPCB__\000"
 395      5043425F 
 395      5F00
 396 00e3 28       		.byte	0x28
 397 00e4 02       		.byte	0x2
 398 00e5 58       		.byte	0x58
 399 00e6 05       		.uleb128 0x5
 400 00e7 7053746B 		.ascii	"pStk\000"
 400      00
 401 00ec 02       		.byte	0x2
 402 00ed 59       		.byte	0x59
 403 00ee E9010000 		.4byte	0x1e9
 404 00f2 02       		.byte	0x2
 405 00f3 23       		.byte	0x23
 406 00f4 00       		.uleb128 0x0
 407 00f5 05       		.uleb128 0x5
 408 00f6 704E6578 		.ascii	"pNextPrioQueueReady\000"
 408      74507269 
 408      6F517565 
 408      75655265 
 408      61647900 
 409 010a 02       		.byte	0x2
 410 010b 5A       		.byte	0x5a
 411 010c EF010000 		.4byte	0x1ef
 412 0110 02       		.byte	0x2
 413 0111 23       		.byte	0x23
 414 0112 04       		.uleb128 0x4
 415 0113 05       		.uleb128 0x5
 416 0114 70507265 		.ascii	"pPrevPrioQueueReady\000"
ARM GAS  /cygdrive/c/DOCUME~1/deforce/LOKALA~1/Temp/ccN91Tn4.s 			page 11


 416      76507269 
 416      6F517565 
 416      75655265 
 416      61647900 
 417 0128 02       		.byte	0x2
 418 0129 5B       		.byte	0x5b
 419 012a EF010000 		.4byte	0x1ef
 420 012e 02       		.byte	0x2
 421 012f 23       		.byte	0x23
 422 0130 08       		.uleb128 0x8
 423 0131 05       		.uleb128 0x5
 424 0132 704E6578 		.ascii	"pNextPrioQueueEvent\000"
 424      74507269 
 424      6F517565 
 424      75654576 
 424      656E7400 
 425 0146 02       		.byte	0x2
 426 0147 5C       		.byte	0x5c
 427 0148 EF010000 		.4byte	0x1ef
 428 014c 02       		.byte	0x2
 429 014d 23       		.byte	0x23
 430 014e 0C       		.uleb128 0xc
 431 014f 05       		.uleb128 0x5
 432 0150 70507265 		.ascii	"pPrevPrioQueueEvent\000"
 432      76507269 
 432      6F517565 
 432      75654576 
 432      656E7400 
 433 0164 02       		.byte	0x2
 434 0165 5D       		.byte	0x5d
 435 0166 EF010000 		.4byte	0x1ef
 436 016a 02       		.byte	0x2
 437 016b 23       		.byte	0x23
 438 016c 10       		.uleb128 0x10
 439 016d 05       		.uleb128 0x5
 440 016e 704E6578 		.ascii	"pNextTimeQueue\000"
 440      7454696D 
 440      65517565 
 440      756500
 441 017d 02       		.byte	0x2
 442 017e 5E       		.byte	0x5e
 443 017f EF010000 		.4byte	0x1ef
 444 0183 02       		.byte	0x2
 445 0184 23       		.byte	0x23
 446 0185 14       		.uleb128 0x14
 447 0186 05       		.uleb128 0x5
 448 0187 70696400 		.ascii	"pid\000"
 449 018b 02       		.byte	0x2
 450 018c 5F       		.byte	0x5f
 451 018d 57000000 		.4byte	0x57
 452 0191 02       		.byte	0x2
 453 0192 23       		.byte	0x23
 454 0193 18       		.uleb128 0x18
 455 0194 05       		.uleb128 0x5
 456 0195 7072696F 		.ascii	"prio\000"
 456      00
 457 019a 02       		.byte	0x2
ARM GAS  /cygdrive/c/DOCUME~1/deforce/LOKALA~1/Temp/ccN91Tn4.s 			page 12


 458 019b 60       		.byte	0x60
 459 019c 57000000 		.4byte	0x57
 460 01a0 02       		.byte	0x2
 461 01a1 23       		.byte	0x23
 462 01a2 19       		.uleb128 0x19
 463 01a3 05       		.uleb128 0x5
 464 01a4 666C6167 		.ascii	"flag\000"
 464      00
 465 01a9 02       		.byte	0x2
 466 01aa 61       		.byte	0x61
 467 01ab 57000000 		.4byte	0x57
 468 01af 02       		.byte	0x2
 469 01b0 23       		.byte	0x23
 470 01b1 1A       		.uleb128 0x1a
 471 01b2 05       		.uleb128 0x5
 472 01b3 736C6565 		.ascii	"sleep\000"
 472      7000
 473 01b9 02       		.byte	0x2
 474 01ba 62       		.byte	0x62
 475 01bb 95000000 		.4byte	0x95
 476 01bf 02       		.byte	0x2
 477 01c0 23       		.byte	0x23
 478 01c1 1C       		.uleb128 0x1c
 479 01c2 05       		.uleb128 0x5
 480 01c3 7053746B 		.ascii	"pStkOrg\000"
 480      4F726700 
 481 01cb 02       		.byte	0x2
 482 01cc 65       		.byte	0x65
 483 01cd E9010000 		.4byte	0x1e9
 484 01d1 02       		.byte	0x2
 485 01d2 23       		.byte	0x23
 486 01d3 20       		.uleb128 0x20
 487 01d4 05       		.uleb128 0x5
 488 01d5 73746163 		.ascii	"stackSize\000"
 488      6B53697A 
 488      6500
 489 01df 02       		.byte	0x2
 490 01e0 66       		.byte	0x66
 491 01e1 73000000 		.4byte	0x73
 492 01e5 02       		.byte	0x2
 493 01e6 23       		.byte	0x23
 494 01e7 24       		.uleb128 0x24
 495 01e8 00       		.byte	0x0
 496 01e9 06       		.uleb128 0x6
 497 01ea 04       		.byte	0x4
 498 01eb 57000000 		.4byte	0x57
 499 01ef 06       		.uleb128 0x6
 500 01f0 04       		.byte	0x4
 501 01f1 D4000000 		.4byte	0xd4
 502 01f5 02       		.uleb128 0x2
 503 01f6 744F5350 		.ascii	"tOSPCB\000"
 503      434200
 504 01fd 02       		.byte	0x2
 505 01fe 68       		.byte	0x68
 506 01ff D4000000 		.4byte	0xd4
 507 0203 04       		.uleb128 0x4
 508 0204 3D020000 		.4byte	0x23d
ARM GAS  /cygdrive/c/DOCUME~1/deforce/LOKALA~1/Temp/ccN91Tn4.s 			page 13


 509 0208 5F745072 		.ascii	"_tPrioQueue_\000"
 509      696F5175 
 509      6575655F 
 509      00
 510 0215 18       		.byte	0x18
 511 0216 02       		.byte	0x2
 512 0217 70       		.byte	0x70
 513 0218 05       		.uleb128 0x5
 514 0219 70507269 		.ascii	"pPrioList\000"
 514      6F4C6973 
 514      7400
 515 0223 02       		.byte	0x2
 516 0224 71       		.byte	0x71
 517 0225 3D020000 		.4byte	0x23d
 518 0229 02       		.byte	0x2
 519 022a 23       		.byte	0x23
 520 022b 00       		.uleb128 0x0
 521 022c 05       		.uleb128 0x5
 522 022d 70504342 		.ascii	"pPCBs\000"
 522      7300
 523 0233 02       		.byte	0x2
 524 0234 72       		.byte	0x72
 525 0235 62020000 		.4byte	0x262
 526 0239 02       		.byte	0x2
 527 023a 23       		.byte	0x23
 528 023b 14       		.uleb128 0x14
 529 023c 00       		.byte	0x0
 530 023d 07       		.uleb128 0x7
 531 023e 4D020000 		.4byte	0x24d
 532 0242 62020000 		.4byte	0x262
 533 0246 08       		.uleb128 0x8
 534 0247 4D020000 		.4byte	0x24d
 535 024b 04       		.byte	0x4
 536 024c 00       		.byte	0x0
 537 024d 03       		.uleb128 0x3
 538 024e 6C6F6E67 		.ascii	"long unsigned int\000"
 538      20756E73 
 538      69676E65 
 538      6420696E 
 538      7400
 539 0260 04       		.byte	0x4
 540 0261 07       		.byte	0x7
 541 0262 06       		.uleb128 0x6
 542 0263 04       		.byte	0x4
 543 0264 F5010000 		.4byte	0x1f5
 544 0268 02       		.uleb128 0x2
 545 0269 74507269 		.ascii	"tPrioQueue\000"
 545      6F517565 
 545      756500
 546 0274 02       		.byte	0x2
 547 0275 73       		.byte	0x73
 548 0276 03020000 		.4byte	0x203
 549 027a 04       		.uleb128 0x4
 550 027b 9E020000 		.4byte	0x29e
 551 027f 5F744F53 		.ascii	"_tOSEvent_\000"
 551      4576656E 
 551      745F00
ARM GAS  /cygdrive/c/DOCUME~1/deforce/LOKALA~1/Temp/ccN91Tn4.s 			page 14


 552 028a 18       		.byte	0x18
 553 028b 02       		.byte	0x2
 554 028c 76       		.byte	0x76
 555 028d 05       		.uleb128 0x5
 556 028e 77616974 		.ascii	"waitQ\000"
 556      5100
 557 0294 02       		.byte	0x2
 558 0295 77       		.byte	0x77
 559 0296 68020000 		.4byte	0x268
 560 029a 02       		.byte	0x2
 561 029b 23       		.byte	0x23
 562 029c 00       		.uleb128 0x0
 563 029d 00       		.byte	0x0
 564 029e 02       		.uleb128 0x2
 565 029f 744F5345 		.ascii	"tOSEvent\000"
 565      76656E74 
 565      00
 566 02a8 02       		.byte	0x2
 567 02a9 78       		.byte	0x78
 568 02aa 7A020000 		.4byte	0x27a
 569 02ae 04       		.uleb128 0x4
 570 02af DC020000 		.4byte	0x2dc
 571 02b3 5F74436E 		.ascii	"_tCntSem_\000"
 571      7453656D 
 571      5F00
 572 02bd 1C       		.byte	0x1c
 573 02be 02       		.byte	0x2
 574 02bf 7B       		.byte	0x7b
 575 02c0 05       		.uleb128 0x5
 576 02c1 657600   		.ascii	"ev\000"
 577 02c4 02       		.byte	0x2
 578 02c5 7C       		.byte	0x7c
 579 02c6 9E020000 		.4byte	0x29e
 580 02ca 02       		.byte	0x2
 581 02cb 23       		.byte	0x23
 582 02cc 00       		.uleb128 0x0
 583 02cd 05       		.uleb128 0x5
 584 02ce 636E7400 		.ascii	"cnt\000"
 585 02d2 02       		.byte	0x2
 586 02d3 7D       		.byte	0x7d
 587 02d4 73000000 		.4byte	0x73
 588 02d8 02       		.byte	0x2
 589 02d9 23       		.byte	0x23
 590 02da 18       		.uleb128 0x18
 591 02db 00       		.byte	0x0
 592 02dc 02       		.uleb128 0x2
 593 02dd 74436E74 		.ascii	"tCntSem\000"
 593      53656D00 
 594 02e5 02       		.byte	0x2
 595 02e6 7F       		.byte	0x7f
 596 02e7 AE020000 		.4byte	0x2ae
 597 02eb 09       		.uleb128 0x9
 598 02ec 04       		.byte	0x4
 599 02ed 0A       		.uleb128 0xa
 600 02ee 29030000 		.4byte	0x329
 601 02f2 01       		.byte	0x1
 602 02f3 70726F63 		.ascii	"procEx1\000"
ARM GAS  /cygdrive/c/DOCUME~1/deforce/LOKALA~1/Temp/ccN91Tn4.s 			page 15


 602      45783100 
 603 02fb 01       		.byte	0x1
 604 02fc 2C       		.byte	0x2c
 605 02fd 01       		.byte	0x1
 606 02fe 00000000 		.4byte	.LFB2
 607 0302 80000000 		.4byte	.LFE2
 608 0306 00000000 		.4byte	.LLST0
 609 030a 0B       		.uleb128 0xb
 610 030b 61726700 		.ascii	"arg\000"
 611 030f 01       		.byte	0x1
 612 0310 2B       		.byte	0x2b
 613 0311 EB020000 		.4byte	0x2eb
 614 0315 02       		.byte	0x2
 615 0316 91       		.byte	0x91
 616 0317 70       		.sleb128 -16
 617 0318 0C       		.uleb128 0xc
 618 0319 6572726F 		.ascii	"error\000"
 618      7200
 619 031f 01       		.byte	0x1
 620 0320 2D       		.byte	0x2d
 621 0321 62000000 		.4byte	0x62
 622 0325 02       		.byte	0x2
 623 0326 91       		.byte	0x91
 624 0327 77       		.sleb128 -9
 625 0328 00       		.byte	0x0
 626 0329 0D       		.uleb128 0xd
 627 032a 5E030000 		.4byte	0x35e
 628 032e 73657450 		.ascii	"setPwmDutyPercent\000"
 628      776D4475 
 628      74795065 
 628      7263656E 
 628      7400
 629 0340 01       		.byte	0x1
 630 0341 5E       		.byte	0x5e
 631 0342 01       		.byte	0x1
 632 0343 80000000 		.4byte	.LFB3
 633 0347 C4000000 		.4byte	.LFE3
 634 034b 37000000 		.4byte	.LLST1
 635 034f 0E       		.uleb128 0xe
 636 0350 00000000 		.4byte	.LASF0
 637 0354 01       		.byte	0x1
 638 0355 5D       		.byte	0x5d
 639 0356 A1000000 		.4byte	0xa1
 640 035a 02       		.byte	0x2
 641 035b 91       		.byte	0x91
 642 035c 70       		.sleb128 -16
 643 035d 00       		.byte	0x0
 644 035e 0D       		.uleb128 0xd
 645 035f 8C030000 		.4byte	0x38c
 646 0363 73657450 		.ascii	"setPwmDuty\000"
 646      776D4475 
 646      747900
 647 036e 01       		.byte	0x1
 648 036f 75       		.byte	0x75
 649 0370 01       		.byte	0x1
 650 0371 C4000000 		.4byte	.LFB4
 651 0375 F0000000 		.4byte	.LFE4
ARM GAS  /cygdrive/c/DOCUME~1/deforce/LOKALA~1/Temp/ccN91Tn4.s 			page 16


 652 0379 6E000000 		.4byte	.LLST2
 653 037d 0E       		.uleb128 0xe
 654 037e 00000000 		.4byte	.LASF0
 655 0382 01       		.byte	0x1
 656 0383 74       		.byte	0x74
 657 0384 A1000000 		.4byte	0xa1
 658 0388 02       		.byte	0x2
 659 0389 91       		.byte	0x91
 660 038a 74       		.sleb128 -12
 661 038b 00       		.byte	0x0
 662 038c 0F       		.uleb128 0xf
 663 038d 64656C61 		.ascii	"delayshort\000"
 663      7973686F 
 663      727400
 664 0398 01       		.byte	0x1
 665 0399 19       		.byte	0x19
 666 039a A0030000 		.4byte	0x3a0
 667 039e 01       		.byte	0x1
 668 039f 01       		.byte	0x1
 669 03a0 10       		.uleb128 0x10
 670 03a1 A5030000 		.4byte	0x3a5
 671 03a5 03       		.uleb128 0x3
 672 03a6 6C6F6E67 		.ascii	"long int\000"
 672      20696E74 
 672      00
 673 03af 04       		.byte	0x4
 674 03b0 05       		.byte	0x5
 675 03b1 0F       		.uleb128 0xf
 676 03b2 64656C61 		.ascii	"delaylong\000"
 676      796C6F6E 
 676      6700
 677 03bc 01       		.byte	0x1
 678 03bd 1A       		.byte	0x1a
 679 03be A0030000 		.4byte	0x3a0
 680 03c2 01       		.byte	0x1
 681 03c3 01       		.byte	0x1
 682 03c4 0F       		.uleb128 0xf
 683 03c5 64757479 		.ascii	"duty\000"
 683      00
 684 03ca 01       		.byte	0x1
 685 03cb 1E       		.byte	0x1e
 686 03cc A1000000 		.4byte	0xa1
 687 03d0 01       		.byte	0x1
 688 03d1 01       		.byte	0x1
 689 03d2 0F       		.uleb128 0xf
 690 03d3 6D757465 		.ascii	"mutexLCD\000"
 690      784C4344 
 690      00
 691 03dc 01       		.byte	0x1
 692 03dd 20       		.byte	0x20
 693 03de DC020000 		.4byte	0x2dc
 694 03e2 01       		.byte	0x1
 695 03e3 01       		.byte	0x1
 696 03e4 00       		.byte	0x0
 697              		.section	.debug_abbrev
 698 0000 01       		.uleb128 0x1
 699 0001 11       		.uleb128 0x11
ARM GAS  /cygdrive/c/DOCUME~1/deforce/LOKALA~1/Temp/ccN91Tn4.s 			page 17


 700 0002 01       		.byte	0x1
 701 0003 10       		.uleb128 0x10
 702 0004 06       		.uleb128 0x6
 703 0005 12       		.uleb128 0x12
 704 0006 01       		.uleb128 0x1
 705 0007 11       		.uleb128 0x11
 706 0008 01       		.uleb128 0x1
 707 0009 25       		.uleb128 0x25
 708 000a 08       		.uleb128 0x8
 709 000b 13       		.uleb128 0x13
 710 000c 0B       		.uleb128 0xb
 711 000d 03       		.uleb128 0x3
 712 000e 08       		.uleb128 0x8
 713 000f 1B       		.uleb128 0x1b
 714 0010 08       		.uleb128 0x8
 715 0011 00       		.byte	0x0
 716 0012 00       		.byte	0x0
 717 0013 02       		.uleb128 0x2
 718 0014 16       		.uleb128 0x16
 719 0015 00       		.byte	0x0
 720 0016 03       		.uleb128 0x3
 721 0017 08       		.uleb128 0x8
 722 0018 3A       		.uleb128 0x3a
 723 0019 0B       		.uleb128 0xb
 724 001a 3B       		.uleb128 0x3b
 725 001b 0B       		.uleb128 0xb
 726 001c 49       		.uleb128 0x49
 727 001d 13       		.uleb128 0x13
 728 001e 00       		.byte	0x0
 729 001f 00       		.byte	0x0
 730 0020 03       		.uleb128 0x3
 731 0021 24       		.uleb128 0x24
 732 0022 00       		.byte	0x0
 733 0023 03       		.uleb128 0x3
 734 0024 08       		.uleb128 0x8
 735 0025 0B       		.uleb128 0xb
 736 0026 0B       		.uleb128 0xb
 737 0027 3E       		.uleb128 0x3e
 738 0028 0B       		.uleb128 0xb
 739 0029 00       		.byte	0x0
 740 002a 00       		.byte	0x0
 741 002b 04       		.uleb128 0x4
 742 002c 13       		.uleb128 0x13
 743 002d 01       		.byte	0x1
 744 002e 01       		.uleb128 0x1
 745 002f 13       		.uleb128 0x13
 746 0030 03       		.uleb128 0x3
 747 0031 08       		.uleb128 0x8
 748 0032 0B       		.uleb128 0xb
 749 0033 0B       		.uleb128 0xb
 750 0034 3A       		.uleb128 0x3a
 751 0035 0B       		.uleb128 0xb
 752 0036 3B       		.uleb128 0x3b
 753 0037 0B       		.uleb128 0xb
 754 0038 00       		.byte	0x0
 755 0039 00       		.byte	0x0
 756 003a 05       		.uleb128 0x5
ARM GAS  /cygdrive/c/DOCUME~1/deforce/LOKALA~1/Temp/ccN91Tn4.s 			page 18


 757 003b 0D       		.uleb128 0xd
 758 003c 00       		.byte	0x0
 759 003d 03       		.uleb128 0x3
 760 003e 08       		.uleb128 0x8
 761 003f 3A       		.uleb128 0x3a
 762 0040 0B       		.uleb128 0xb
 763 0041 3B       		.uleb128 0x3b
 764 0042 0B       		.uleb128 0xb
 765 0043 49       		.uleb128 0x49
 766 0044 13       		.uleb128 0x13
 767 0045 38       		.uleb128 0x38
 768 0046 0A       		.uleb128 0xa
 769 0047 00       		.byte	0x0
 770 0048 00       		.byte	0x0
 771 0049 06       		.uleb128 0x6
 772 004a 0F       		.uleb128 0xf
 773 004b 00       		.byte	0x0
 774 004c 0B       		.uleb128 0xb
 775 004d 0B       		.uleb128 0xb
 776 004e 49       		.uleb128 0x49
 777 004f 13       		.uleb128 0x13
 778 0050 00       		.byte	0x0
 779 0051 00       		.byte	0x0
 780 0052 07       		.uleb128 0x7
 781 0053 01       		.uleb128 0x1
 782 0054 01       		.byte	0x1
 783 0055 01       		.uleb128 0x1
 784 0056 13       		.uleb128 0x13
 785 0057 49       		.uleb128 0x49
 786 0058 13       		.uleb128 0x13
 787 0059 00       		.byte	0x0
 788 005a 00       		.byte	0x0
 789 005b 08       		.uleb128 0x8
 790 005c 21       		.uleb128 0x21
 791 005d 00       		.byte	0x0
 792 005e 49       		.uleb128 0x49
 793 005f 13       		.uleb128 0x13
 794 0060 2F       		.uleb128 0x2f
 795 0061 0B       		.uleb128 0xb
 796 0062 00       		.byte	0x0
 797 0063 00       		.byte	0x0
 798 0064 09       		.uleb128 0x9
 799 0065 0F       		.uleb128 0xf
 800 0066 00       		.byte	0x0
 801 0067 0B       		.uleb128 0xb
 802 0068 0B       		.uleb128 0xb
 803 0069 00       		.byte	0x0
 804 006a 00       		.byte	0x0
 805 006b 0A       		.uleb128 0xa
 806 006c 2E       		.uleb128 0x2e
 807 006d 01       		.byte	0x1
 808 006e 01       		.uleb128 0x1
 809 006f 13       		.uleb128 0x13
 810 0070 3F       		.uleb128 0x3f
 811 0071 0C       		.uleb128 0xc
 812 0072 03       		.uleb128 0x3
 813 0073 08       		.uleb128 0x8
ARM GAS  /cygdrive/c/DOCUME~1/deforce/LOKALA~1/Temp/ccN91Tn4.s 			page 19


 814 0074 3A       		.uleb128 0x3a
 815 0075 0B       		.uleb128 0xb
 816 0076 3B       		.uleb128 0x3b
 817 0077 0B       		.uleb128 0xb
 818 0078 27       		.uleb128 0x27
 819 0079 0C       		.uleb128 0xc
 820 007a 11       		.uleb128 0x11
 821 007b 01       		.uleb128 0x1
 822 007c 12       		.uleb128 0x12
 823 007d 01       		.uleb128 0x1
 824 007e 40       		.uleb128 0x40
 825 007f 06       		.uleb128 0x6
 826 0080 00       		.byte	0x0
 827 0081 00       		.byte	0x0
 828 0082 0B       		.uleb128 0xb
 829 0083 05       		.uleb128 0x5
 830 0084 00       		.byte	0x0
 831 0085 03       		.uleb128 0x3
 832 0086 08       		.uleb128 0x8
 833 0087 3A       		.uleb128 0x3a
 834 0088 0B       		.uleb128 0xb
 835 0089 3B       		.uleb128 0x3b
 836 008a 0B       		.uleb128 0xb
 837 008b 49       		.uleb128 0x49
 838 008c 13       		.uleb128 0x13
 839 008d 02       		.uleb128 0x2
 840 008e 0A       		.uleb128 0xa
 841 008f 00       		.byte	0x0
 842 0090 00       		.byte	0x0
 843 0091 0C       		.uleb128 0xc
 844 0092 34       		.uleb128 0x34
 845 0093 00       		.byte	0x0
 846 0094 03       		.uleb128 0x3
 847 0095 08       		.uleb128 0x8
 848 0096 3A       		.uleb128 0x3a
 849 0097 0B       		.uleb128 0xb
 850 0098 3B       		.uleb128 0x3b
 851 0099 0B       		.uleb128 0xb
 852 009a 49       		.uleb128 0x49
 853 009b 13       		.uleb128 0x13
 854 009c 02       		.uleb128 0x2
 855 009d 0A       		.uleb128 0xa
 856 009e 00       		.byte	0x0
 857 009f 00       		.byte	0x0
 858 00a0 0D       		.uleb128 0xd
 859 00a1 2E       		.uleb128 0x2e
 860 00a2 01       		.byte	0x1
 861 00a3 01       		.uleb128 0x1
 862 00a4 13       		.uleb128 0x13
 863 00a5 03       		.uleb128 0x3
 864 00a6 08       		.uleb128 0x8
 865 00a7 3A       		.uleb128 0x3a
 866 00a8 0B       		.uleb128 0xb
 867 00a9 3B       		.uleb128 0x3b
 868 00aa 0B       		.uleb128 0xb
 869 00ab 27       		.uleb128 0x27
 870 00ac 0C       		.uleb128 0xc
ARM GAS  /cygdrive/c/DOCUME~1/deforce/LOKALA~1/Temp/ccN91Tn4.s 			page 20


 871 00ad 11       		.uleb128 0x11
 872 00ae 01       		.uleb128 0x1
 873 00af 12       		.uleb128 0x12
 874 00b0 01       		.uleb128 0x1
 875 00b1 40       		.uleb128 0x40
 876 00b2 06       		.uleb128 0x6
 877 00b3 00       		.byte	0x0
 878 00b4 00       		.byte	0x0
 879 00b5 0E       		.uleb128 0xe
 880 00b6 05       		.uleb128 0x5
 881 00b7 00       		.byte	0x0
 882 00b8 03       		.uleb128 0x3
 883 00b9 0E       		.uleb128 0xe
 884 00ba 3A       		.uleb128 0x3a
 885 00bb 0B       		.uleb128 0xb
 886 00bc 3B       		.uleb128 0x3b
 887 00bd 0B       		.uleb128 0xb
 888 00be 49       		.uleb128 0x49
 889 00bf 13       		.uleb128 0x13
 890 00c0 02       		.uleb128 0x2
 891 00c1 0A       		.uleb128 0xa
 892 00c2 00       		.byte	0x0
 893 00c3 00       		.byte	0x0
 894 00c4 0F       		.uleb128 0xf
 895 00c5 34       		.uleb128 0x34
 896 00c6 00       		.byte	0x0
 897 00c7 03       		.uleb128 0x3
 898 00c8 08       		.uleb128 0x8
 899 00c9 3A       		.uleb128 0x3a
 900 00ca 0B       		.uleb128 0xb
 901 00cb 3B       		.uleb128 0x3b
 902 00cc 0B       		.uleb128 0xb
 903 00cd 49       		.uleb128 0x49
 904 00ce 13       		.uleb128 0x13
 905 00cf 3F       		.uleb128 0x3f
 906 00d0 0C       		.uleb128 0xc
 907 00d1 3C       		.uleb128 0x3c
 908 00d2 0C       		.uleb128 0xc
 909 00d3 00       		.byte	0x0
 910 00d4 00       		.byte	0x0
 911 00d5 10       		.uleb128 0x10
 912 00d6 26       		.uleb128 0x26
 913 00d7 00       		.byte	0x0
 914 00d8 49       		.uleb128 0x49
 915 00d9 13       		.uleb128 0x13
 916 00da 00       		.byte	0x0
 917 00db 00       		.byte	0x0
 918 00dc 00       		.byte	0x0
 919              		.section	.debug_pubnames,"",%progbits
 920 0000 1A000000 		.4byte	0x1a
 921 0004 0200     		.2byte	0x2
 922 0006 00000000 		.4byte	.Ldebug_info0
 923 000a E5030000 		.4byte	0x3e5
 924 000e ED020000 		.4byte	0x2ed
 925 0012 70726F63 		.ascii	"procEx1\000"
 925      45783100 
 926 001a 00000000 		.4byte	0x0
ARM GAS  /cygdrive/c/DOCUME~1/deforce/LOKALA~1/Temp/ccN91Tn4.s 			page 21


 927              		.section	.debug_aranges,"",%progbits
 928 0000 1C000000 		.4byte	0x1c
 929 0004 0200     		.2byte	0x2
 930 0006 00000000 		.4byte	.Ldebug_info0
 931 000a 04       		.byte	0x4
 932 000b 00       		.byte	0x0
 933 000c 0000     		.2byte	0x0
 934 000e 0000     		.2byte	0x0
 935 0010 00000000 		.4byte	.Ltext0
 936 0014 F0000000 		.4byte	.Letext0-.Ltext0
 937 0018 00000000 		.4byte	0x0
 938 001c 00000000 		.4byte	0x0
 939              		.section	.debug_str,"",%progbits
 940              	.LASF0:
 941 0000 64757479 		.ascii	"dutyValue\000"
 941      56616C75 
 941      6500
 942              		.ident	"GCC: (GNU) 4.1.1"
ARM GAS  /cygdrive/c/DOCUME~1/deforce/LOKALA~1/Temp/ccN91Tn4.s 			page 22


DEFINED SYMBOLS
                            *ABS*:00000000 proc1.c
/cygdrive/c/DOCUME~1/deforce/LOKALA~1/Temp/ccN91Tn4.s:1      .text:00000000 $t
/cygdrive/c/DOCUME~1/deforce/LOKALA~1/Temp/ccN91Tn4.s:16     .text:00000000 procEx1
/cygdrive/c/DOCUME~1/deforce/LOKALA~1/Temp/ccN91Tn4.s:99     .text:00000080 setPwmDutyPercent
/cygdrive/c/DOCUME~1/deforce/LOKALA~1/Temp/ccN91Tn4.s:87     .text:0000006c $d
/cygdrive/c/DOCUME~1/deforce/LOKALA~1/Temp/ccN91Tn4.s:96     .text:00000080 $t
/cygdrive/c/DOCUME~1/deforce/LOKALA~1/Temp/ccN91Tn4.s:136    .text:000000b4 $d
/cygdrive/c/DOCUME~1/deforce/LOKALA~1/Temp/ccN91Tn4.s:143    .text:000000c4 $t
/cygdrive/c/DOCUME~1/deforce/LOKALA~1/Temp/ccN91Tn4.s:146    .text:000000c4 setPwmDuty
/cygdrive/c/DOCUME~1/deforce/LOKALA~1/Temp/ccN91Tn4.s:176    .text:000000e8 $d

UNDEFINED SYMBOLS
osSemTake
delay
send_instruction
delay_millis
mutexLCD
delayshort
delaylong
duty
__udivsi3
