ARM GAS  /cygdrive/c/DOCUME~1/deforce/LOKALA~1/Temp/cce8Kowe.s 			page 1


   1              		.file	"LCD.c"
   8 0000 71000000 		.text
   8      02001C00 
   8      00000201 
   8      FB0E0D00 
   8      01010101 
   9              	.Ltext0:
  10              		.align	2
  11              		.global	send_instruction
  12              		.type	send_instruction, %function
  13              	send_instruction:
  14              	.LFB2:
  15              		.file 1 "LCD.c"
   1:LCD.c         **** /**********************************************************************************************
   2:LCD.c         ****  *
   3:LCD.c         ****  *	LCD.c
   4:LCD.c         ****  *	111031 TA
   5:LCD.c         ****  *
   6:LCD.c         ****  * 	Jonas LCD-rutiner med vissa justeringar
   7:LCD.c         ****  *
   8:LCD.c         ****  *
   9:LCD.c         ****  *  Makefilen i mappen LCD generar lib_LDC.a i ARM-format, behövs pga asm instruktionerna i delay
  10:LCD.c         ****  *
  11:LCD.c         ****  ************************************************************************************************/
  12:LCD.c         **** 
  13:LCD.c         **** 
  14:LCD.c         **** 
  15:LCD.c         **** 
  16:LCD.c         **** #include "../startup/lpc2xxx.h"
  17:LCD.c         **** 
  18:LCD.c         **** /* Med CCLK=60 MHz ger denna rutin en delay på pulses*66,666 ns + anropstiden */
  19:LCD.c         **** /*
  20:LCD.c         **** void delay(long pulses)
  21:LCD.c         **** {
  22:LCD.c         **** 	asm("wait:   SUBS R0, R0, #1");
  23:LCD.c         **** 	asm("BNE wait");
  24:LCD.c         **** }
  25:LCD.c         **** */
  26:LCD.c         **** 
  27:LCD.c         **** #define	data_pins	0x00FF0000		//P1.16-P1.23
  28:LCD.c         **** #define	RS	0x01000000		//P1.24
  29:LCD.c         **** #define	RW	0x00400000		//P0.22
  30:LCD.c         **** #define	E	0x02000000		//P1.25
  31:LCD.c         **** #define	backlight	0x40000000		//P0.30
  32:LCD.c         **** #define	BF	0x00800000
  33:LCD.c         **** 
  34:LCD.c         **** void send_instruction(long instruction)
  35:LCD.c         **** {
  16              		.loc 1 35 0
  17              		@ Function supports interworking.
  18              		@ args = 0, pretend = 0, frame = 4
ARM GAS  /cygdrive/c/DOCUME~1/deforce/LOKALA~1/Temp/cce8Kowe.s 			page 2


  19              		@ frame_needed = 1, uses_anonymous_args = 0
  20 0000 0DC0A0E1 		mov	ip, sp
  21              	.LCFI0:
  22 0004 00D82DE9 		stmfd	sp!, {fp, ip, lr, pc}
  23              	.LCFI1:
  24 0008 04B04CE2 		sub	fp, ip, #4
  25              	.LCFI2:
  26 000c 04D04DE2 		sub	sp, sp, #4
  27              	.LCFI3:
  28 0010 10000BE5 		str	r0, [fp, #-16]
  36:LCD.c         **** 	delay(100);
  29              		.loc 1 36 0
  30 0014 6400A0E3 		mov	r0, #100
  31 0018 FEFFFFEB 		bl	delay
  37:LCD.c         **** 	IOCLR1 = RS;		//send instruction
  32              		.loc 1 37 0
  33 001c 0E32A0E3 		mov	r3, #-536870912
  34 0020 0A3983E2 		add	r3, r3, #163840
  35 0024 1C3083E2 		add	r3, r3, #28
  36 0028 0124A0E3 		mov	r2, #16777216
  37 002c 002083E5 		str	r2, [r3, #0]
  38:LCD.c         **** 	delay(100);
  38              		.loc 1 38 0
  39 0030 6400A0E3 		mov	r0, #100
  40 0034 FEFFFFEB 		bl	delay
  39:LCD.c         **** 	IOSET1 = E;			//start a write pulse
  41              		.loc 1 39 0
  42 0038 0E32A0E3 		mov	r3, #-536870912
  43 003c 0A3983E2 		add	r3, r3, #163840
  44 0040 143083E2 		add	r3, r3, #20
  45 0044 0224A0E3 		mov	r2, #33554432
  46 0048 002083E5 		str	r2, [r3, #0]
  40:LCD.c         **** 	delay(100);
  47              		.loc 1 40 0
  48 004c 6400A0E3 		mov	r0, #100
  49 0050 FEFFFFEB 		bl	delay
  41:LCD.c         **** 	IOCLR1 = data_pins;		//set p1.16-P1.23 to 0
  50              		.loc 1 41 0
  51 0054 0E32A0E3 		mov	r3, #-536870912
  52 0058 0A3983E2 		add	r3, r3, #163840
  53 005c 1C3083E2 		add	r3, r3, #28
  54 0060 FF28A0E3 		mov	r2, #16711680
  55 0064 002083E5 		str	r2, [r3, #0]
  42:LCD.c         **** 	delay(100);
  56              		.loc 1 42 0
  57 0068 6400A0E3 		mov	r0, #100
  58 006c FEFFFFEB 		bl	delay
  43:LCD.c         **** 	IOSET1 = instruction<<16;
  59              		.loc 1 43 0
  60 0070 0E32A0E3 		mov	r3, #-536870912
  61 0074 0A3983E2 		add	r3, r3, #163840
  62 0078 143083E2 		add	r3, r3, #20
  63 007c 10201BE5 		ldr	r2, [fp, #-16]
  64 0080 0228A0E1 		mov	r2, r2, asl #16
  65 0084 002083E5 		str	r2, [r3, #0]
  44:LCD.c         **** 	delay(100);
  66              		.loc 1 44 0
ARM GAS  /cygdrive/c/DOCUME~1/deforce/LOKALA~1/Temp/cce8Kowe.s 			page 3


  67 0088 6400A0E3 		mov	r0, #100
  68 008c FEFFFFEB 		bl	delay
  45:LCD.c         **** 	IOCLR1 = E;			//end write pulse
  69              		.loc 1 45 0
  70 0090 0E32A0E3 		mov	r3, #-536870912
  71 0094 0A3983E2 		add	r3, r3, #163840
  72 0098 1C3083E2 		add	r3, r3, #28
  73 009c 0224A0E3 		mov	r2, #33554432
  74 00a0 002083E5 		str	r2, [r3, #0]
  46:LCD.c         **** }
  75              		.loc 1 46 0
  76 00a4 0CD04BE2 		sub	sp, fp, #12
  77 00a8 00689DE8 		ldmfd	sp, {fp, sp, lr}
  78 00ac 1EFF2FE1 		bx	lr
  79              	.LFE2:
  80              		.size	send_instruction, .-send_instruction
  81              		.align	2
  82              		.global	send_character
  83              		.type	send_character, %function
  84              	send_character:
  85              	.LFB3:
  47:LCD.c         **** 
  48:LCD.c         **** void send_character(long character)
  49:LCD.c         **** {
  86              		.loc 1 49 0
  87              		@ Function supports interworking.
  88              		@ args = 0, pretend = 0, frame = 4
  89              		@ frame_needed = 1, uses_anonymous_args = 0
  90 00b0 0DC0A0E1 		mov	ip, sp
  91              	.LCFI4:
  92 00b4 00D82DE9 		stmfd	sp!, {fp, ip, lr, pc}
  93              	.LCFI5:
  94 00b8 04B04CE2 		sub	fp, ip, #4
  95              	.LCFI6:
  96 00bc 04D04DE2 		sub	sp, sp, #4
  97              	.LCFI7:
  98 00c0 10000BE5 		str	r0, [fp, #-16]
  50:LCD.c         **** 	IOSET1 = RS;		//send character
  99              		.loc 1 50 0
 100 00c4 0E32A0E3 		mov	r3, #-536870912
 101 00c8 0A3983E2 		add	r3, r3, #163840
 102 00cc 143083E2 		add	r3, r3, #20
 103 00d0 0124A0E3 		mov	r2, #16777216
 104 00d4 002083E5 		str	r2, [r3, #0]
  51:LCD.c         **** 	IOSET1 = E;			//start a write pulse
 105              		.loc 1 51 0
 106 00d8 0E32A0E3 		mov	r3, #-536870912
 107 00dc 0A3983E2 		add	r3, r3, #163840
 108 00e0 143083E2 		add	r3, r3, #20
 109 00e4 0224A0E3 		mov	r2, #33554432
 110 00e8 002083E5 		str	r2, [r3, #0]
  52:LCD.c         **** 	IOCLR1 = data_pins;		//set p1.16-P1.23 to 0
 111              		.loc 1 52 0
 112 00ec 0E32A0E3 		mov	r3, #-536870912
 113 00f0 0A3983E2 		add	r3, r3, #163840
 114 00f4 1C3083E2 		add	r3, r3, #28
 115 00f8 FF28A0E3 		mov	r2, #16711680
ARM GAS  /cygdrive/c/DOCUME~1/deforce/LOKALA~1/Temp/cce8Kowe.s 			page 4


 116 00fc 002083E5 		str	r2, [r3, #0]
  53:LCD.c         **** 	IOSET1 = character<<16;
 117              		.loc 1 53 0
 118 0100 0E32A0E3 		mov	r3, #-536870912
 119 0104 0A3983E2 		add	r3, r3, #163840
 120 0108 143083E2 		add	r3, r3, #20
 121 010c 10201BE5 		ldr	r2, [fp, #-16]
 122 0110 0228A0E1 		mov	r2, r2, asl #16
 123 0114 002083E5 		str	r2, [r3, #0]
  54:LCD.c         **** 	IOCLR1 = E;			//end write pulse
 124              		.loc 1 54 0
 125 0118 0E32A0E3 		mov	r3, #-536870912
 126 011c 0A3983E2 		add	r3, r3, #163840
 127 0120 1C3083E2 		add	r3, r3, #28
 128 0124 0224A0E3 		mov	r2, #33554432
 129 0128 002083E5 		str	r2, [r3, #0]
  55:LCD.c         **** }
 130              		.loc 1 55 0
 131 012c 0CD04BE2 		sub	sp, fp, #12
 132 0130 00689DE8 		ldmfd	sp, {fp, sp, lr}
 133 0134 1EFF2FE1 		bx	lr
 134              	.LFE3:
 135              		.size	send_character, .-send_character
 136              		.align	2
 137              		.global	wait_BF
 138              		.type	wait_BF, %function
 139              	wait_BF:
 140              	.LFB4:
  56:LCD.c         **** 
  57:LCD.c         **** void wait_BF(void)
  58:LCD.c         **** {
 141              		.loc 1 58 0
 142              		@ Function supports interworking.
 143              		@ args = 0, pretend = 0, frame = 0
 144              		@ frame_needed = 1, uses_anonymous_args = 0
 145 0138 0DC0A0E1 		mov	ip, sp
 146              	.LCFI8:
 147 013c 00D82DE9 		stmfd	sp!, {fp, ip, lr, pc}
 148              	.LCFI9:
 149 0140 04B04CE2 		sub	fp, ip, #4
 150              	.LCFI10:
  59:LCD.c         **** //	IODIR1 |= BF;  alternativ lsg på kapacitansproblemet nedan
  60:LCD.c         **** //	IOSET1 = BF;
  61:LCD.c         **** 
  62:LCD.c         **** 	IOSET0 = RW;		//read from display
 151              		.loc 1 62 0
 152 0144 4E32A0E3 		mov	r3, #-536870908
 153 0148 0A3983E2 		add	r3, r3, #163840
 154 014c 0125A0E3 		mov	r2, #4194304
 155 0150 002083E5 		str	r2, [r3, #0]
  63:LCD.c         **** 	IODIR1 &= ~data_pins;		//make data_pins input
 156              		.loc 1 63 0
 157 0154 0E22A0E3 		mov	r2, #-536870912
 158 0158 0A2982E2 		add	r2, r2, #163840
 159 015c 182082E2 		add	r2, r2, #24
 160 0160 0E32A0E3 		mov	r3, #-536870912
 161 0164 0A3983E2 		add	r3, r3, #163840
ARM GAS  /cygdrive/c/DOCUME~1/deforce/LOKALA~1/Temp/cce8Kowe.s 			page 5


 162 0168 183083E2 		add	r3, r3, #24
 163 016c 003093E5 		ldr	r3, [r3, #0]
 164 0170 FF38C3E3 		bic	r3, r3, #16711680
 165 0174 003082E5 		str	r3, [r2, #0]
  64:LCD.c         **** 	IOCLR1 = RS;		//read status
 166              		.loc 1 64 0
 167 0178 0E32A0E3 		mov	r3, #-536870912
 168 017c 0A3983E2 		add	r3, r3, #163840
 169 0180 1C3083E2 		add	r3, r3, #28
 170 0184 0124A0E3 		mov	r2, #16777216
 171 0188 002083E5 		str	r2, [r3, #0]
  65:LCD.c         **** 	IOSET1 = E;
 172              		.loc 1 65 0
 173 018c 0E32A0E3 		mov	r3, #-536870912
 174 0190 0A3983E2 		add	r3, r3, #163840
 175 0194 143083E2 		add	r3, r3, #20
 176 0198 0224A0E3 		mov	r2, #33554432
 177 019c 002083E5 		str	r2, [r3, #0]
  66:LCD.c         **** 	delay(2);			//behövs pga kapacitanser i flatkabel
 178              		.loc 1 66 0
 179 01a0 0200A0E3 		mov	r0, #2
 180 01a4 FEFFFFEB 		bl	delay
 181              	.L6:
  67:LCD.c         **** 	while(IOPIN1 & BF);		//wait until BF == 0
 182              		.loc 1 67 0
 183 01a8 0E32A0E3 		mov	r3, #-536870912
 184 01ac 0A3983E2 		add	r3, r3, #163840
 185 01b0 103083E2 		add	r3, r3, #16
 186 01b4 003093E5 		ldr	r3, [r3, #0]
 187 01b8 023503E2 		and	r3, r3, #8388608
 188 01bc 000053E3 		cmp	r3, #0
 189 01c0 F8FFFF1A 		bne	.L6
  68:LCD.c         **** 	IOCLR1 = E;
 190              		.loc 1 68 0
 191 01c4 0E32A0E3 		mov	r3, #-536870912
 192 01c8 0A3983E2 		add	r3, r3, #163840
 193 01cc 1C3083E2 		add	r3, r3, #28
 194 01d0 0224A0E3 		mov	r2, #33554432
 195 01d4 002083E5 		str	r2, [r3, #0]
  69:LCD.c         **** 	IODIR1 |= data_pins;		//make data_pins output
 196              		.loc 1 69 0
 197 01d8 0E22A0E3 		mov	r2, #-536870912
 198 01dc 0A2982E2 		add	r2, r2, #163840
 199 01e0 182082E2 		add	r2, r2, #24
 200 01e4 0E32A0E3 		mov	r3, #-536870912
 201 01e8 0A3983E2 		add	r3, r3, #163840
 202 01ec 183083E2 		add	r3, r3, #24
 203 01f0 003093E5 		ldr	r3, [r3, #0]
 204 01f4 FF3883E3 		orr	r3, r3, #16711680
 205 01f8 003082E5 		str	r3, [r2, #0]
  70:LCD.c         **** //	delay(1);  //behövs inte om optimering O0, behövs om O2
  71:LCD.c         **** 	IOCLR0 = RW;		//restore write to display
 206              		.loc 1 71 0
 207 01fc CE32A0E3 		mov	r3, #-536870900
 208 0200 0A3983E2 		add	r3, r3, #163840
 209 0204 0125A0E3 		mov	r2, #4194304
 210 0208 002083E5 		str	r2, [r3, #0]
ARM GAS  /cygdrive/c/DOCUME~1/deforce/LOKALA~1/Temp/cce8Kowe.s 			page 6


  72:LCD.c         **** }
 211              		.loc 1 72 0
 212 020c 0CD04BE2 		sub	sp, fp, #12
 213 0210 00689DE8 		ldmfd	sp, {fp, sp, lr}
 214 0214 1EFF2FE1 		bx	lr
 215              	.LFE4:
 216              		.size	wait_BF, .-wait_BF
 217              		.align	2
 218              		.global	init_LCD
 219              		.type	init_LCD, %function
 220              	init_LCD:
 221              	.LFB5:
  73:LCD.c         **** 
  74:LCD.c         **** 
  75:LCD.c         **** void init_LCD(void)
  76:LCD.c         **** {
 222              		.loc 1 76 0
 223              		@ Function supports interworking.
 224              		@ args = 0, pretend = 0, frame = 0
 225              		@ frame_needed = 1, uses_anonymous_args = 0
 226 0218 0DC0A0E1 		mov	ip, sp
 227              	.LCFI11:
 228 021c 00D82DE9 		stmfd	sp!, {fp, ip, lr, pc}
 229              	.LCFI12:
 230 0220 04B04CE2 		sub	fp, ip, #4
 231              	.LCFI13:
  77:LCD.c         **** 	IODIR0 |= RW|backlight;
 232              		.loc 1 77 0
 233 0224 8E22A0E3 		mov	r2, #-536870904
 234 0228 0A2982E2 		add	r2, r2, #163840
 235 022c 8E32A0E3 		mov	r3, #-536870904
 236 0230 0A3983E2 		add	r3, r3, #163840
 237 0234 003093E5 		ldr	r3, [r3, #0]
 238 0238 013183E3 		orr	r3, r3, #1073741824
 239 023c 013583E3 		orr	r3, r3, #4194304
 240 0240 003082E5 		str	r3, [r2, #0]
  78:LCD.c         **** 	IODIR1 |= data_pins|E|RS;
 241              		.loc 1 78 0
 242 0244 0E22A0E3 		mov	r2, #-536870912
 243 0248 0A2982E2 		add	r2, r2, #163840
 244 024c 182082E2 		add	r2, r2, #24
 245 0250 0E32A0E3 		mov	r3, #-536870912
 246 0254 0A3983E2 		add	r3, r3, #163840
 247 0258 183083E2 		add	r3, r3, #24
 248 025c 003093E5 		ldr	r3, [r3, #0]
 249 0260 FF3783E3 		orr	r3, r3, #66846720
 250 0264 033883E3 		orr	r3, r3, #196608
 251 0268 003082E5 		str	r3, [r2, #0]
  79:LCD.c         **** 	IOCLR1 = E;
 252              		.loc 1 79 0
 253 026c 0E32A0E3 		mov	r3, #-536870912
 254 0270 0A3983E2 		add	r3, r3, #163840
 255 0274 1C3083E2 		add	r3, r3, #28
 256 0278 0224A0E3 		mov	r2, #33554432
 257 027c 002083E5 		str	r2, [r3, #0]
  80:LCD.c         **** 	IOCLR0 = RW;		//write to the display
 258              		.loc 1 80 0
ARM GAS  /cygdrive/c/DOCUME~1/deforce/LOKALA~1/Temp/cce8Kowe.s 			page 7


 259 0280 CE32A0E3 		mov	r3, #-536870900
 260 0284 0A3983E2 		add	r3, r3, #163840
 261 0288 0125A0E3 		mov	r2, #4194304
 262 028c 002083E5 		str	r2, [r3, #0]
  81:LCD.c         **** 	IOSET0 = backlight;		//turn on the backlight
 263              		.loc 1 81 0
 264 0290 4E32A0E3 		mov	r3, #-536870908
 265 0294 0A3983E2 		add	r3, r3, #163840
 266 0298 0121A0E3 		mov	r2, #1073741824
 267 029c 002083E5 		str	r2, [r3, #0]
  82:LCD.c         **** 	send_instruction(0x38);		//function set
 268              		.loc 1 82 0
 269 02a0 3800A0E3 		mov	r0, #56
 270 02a4 FEFFFFEB 		bl	send_instruction
  83:LCD.c         **** 	delay(1200);			//12*60/48 * 80 (80µs)
 271              		.loc 1 83 0
 272 02a8 4B0EA0E3 		mov	r0, #1200
 273 02ac FEFFFFEB 		bl	delay
  84:LCD.c         **** 	send_instruction(0x38);
 274              		.loc 1 84 0
 275 02b0 3800A0E3 		mov	r0, #56
 276 02b4 FEFFFFEB 		bl	send_instruction
  85:LCD.c         **** 	delay(1200);
 277              		.loc 1 85 0
 278 02b8 4B0EA0E3 		mov	r0, #1200
 279 02bc FEFFFFEB 		bl	delay
  86:LCD.c         **** 	send_instruction(0x0F);		//display on/off
 280              		.loc 1 86 0
 281 02c0 0F00A0E3 		mov	r0, #15
 282 02c4 FEFFFFEB 		bl	send_instruction
  87:LCD.c         **** 	delay(1200);
 283              		.loc 1 87 0
 284 02c8 4B0EA0E3 		mov	r0, #1200
 285 02cc FEFFFFEB 		bl	delay
  88:LCD.c         **** 	send_instruction(0x01);		//display clear
 286              		.loc 1 88 0
 287 02d0 0100A0E3 		mov	r0, #1
 288 02d4 FEFFFFEB 		bl	send_instruction
  89:LCD.c         **** 	delay(49250);		//12* 60/48 * 3283 (3,283 ms)
 289              		.loc 1 89 0
 290 02d8 0309A0E3 		mov	r0, #49152
 291 02dc 620080E2 		add	r0, r0, #98
 292 02e0 FEFFFFEB 		bl	delay
  90:LCD.c         **** 	send_instruction(0x06);		//entry mode set
 293              		.loc 1 90 0
 294 02e4 0600A0E3 		mov	r0, #6
 295 02e8 FEFFFFEB 		bl	send_instruction
  91:LCD.c         **** 	delay(1200);
 296              		.loc 1 91 0
 297 02ec 4B0EA0E3 		mov	r0, #1200
 298 02f0 FEFFFFEB 		bl	delay
  92:LCD.c         **** }
 299              		.loc 1 92 0
 300 02f4 0CD04BE2 		sub	sp, fp, #12
 301 02f8 00689DE8 		ldmfd	sp, {fp, sp, lr}
 302 02fc 1EFF2FE1 		bx	lr
 303              	.LFE5:
ARM GAS  /cygdrive/c/DOCUME~1/deforce/LOKALA~1/Temp/cce8Kowe.s 			page 8


 304              		.size	init_LCD, .-init_LCD
 305              		.align	2
 306              		.global	delay
 307              		.type	delay, %function
 308              	delay:
 309              	.LFB6:
  93:LCD.c         **** 
  94:LCD.c         **** // *********************************
  95:LCD.c         **** // CUSTOM CODE
  96:LCD.c         **** // *********************************
  97:LCD.c         **** 
  98:LCD.c         **** // Med CCLK=60 MHz ger denna rutin en delay på pulses*66,666 ns + anropstiden
  99:LCD.c         **** void delay(long pulses) {               	// pulses is stored in R0 when this function is called
 310              		.loc 1 99 0
 311              		@ Function supports interworking.
 312              		@ args = 0, pretend = 0, frame = 4
 313              		@ frame_needed = 1, uses_anonymous_args = 0
 314 0300 0DC0A0E1 		mov	ip, sp
 315              	.LCFI14:
 316 0304 00D82DE9 		stmfd	sp!, {fp, ip, lr, pc}
 317              	.LCFI15:
 318 0308 04B04CE2 		sub	fp, ip, #4
 319              	.LCFI16:
 320 030c 04D04DE2 		sub	sp, sp, #4
 321              	.LCFI17:
 322 0310 10000BE5 		str	r0, [fp, #-16]
 100:LCD.c         ****         asm("wait:   SUBS R0, R0, #1");     // the label "wait" is declared, decrements the content
 323              		.loc 1 100 0
 324 0314 010050E2 		wait:   SUBS R0, R0, #1
 101:LCD.c         ****         asm("BNE wait");                    // branches to the label "wait" unless the contents of 
 325              		.loc 1 101 0
 326 0318 FDFFFF1A 		BNE wait
 102:LCD.c         **** }
 327              		.loc 1 102 0
 328 031c 0CD04BE2 		sub	sp, fp, #12
 329 0320 00689DE8 		ldmfd	sp, {fp, sp, lr}
 330 0324 1EFF2FE1 		bx	lr
 331              	.LFE6:
 332              		.size	delay, .-delay
 333              		.align	2
 334              		.global	delay_mikros
 335              		.type	delay_mikros, %function
 336              	delay_mikros:
 337              	.LFB7:
 103:LCD.c         **** 
 104:LCD.c         **** void delay_mikros(long us) {            	// delays by the provided parameter (in mikroseconds)
 338              		.loc 1 104 0
 339              		@ Function supports interworking.
 340              		@ args = 0, pretend = 0, frame = 4
 341              		@ frame_needed = 1, uses_anonymous_args = 0
 342 0328 0DC0A0E1 		mov	ip, sp
 343              	.LCFI18:
 344 032c 00D82DE9 		stmfd	sp!, {fp, ip, lr, pc}
 345              	.LCFI19:
 346 0330 04B04CE2 		sub	fp, ip, #4
 347              	.LCFI20:
 348 0334 04D04DE2 		sub	sp, sp, #4
ARM GAS  /cygdrive/c/DOCUME~1/deforce/LOKALA~1/Temp/cce8Kowe.s 			page 9


 349              	.LCFI21:
 350 0338 10000BE5 		str	r0, [fp, #-16]
 105:LCD.c         ****     delay(us*15);
 351              		.loc 1 105 0
 352 033c 10301BE5 		ldr	r3, [fp, #-16]
 353 0340 0320A0E1 		mov	r2, r3
 354 0344 0222A0E1 		mov	r2, r2, asl #4
 355 0348 023063E0 		rsb	r3, r3, r2
 356 034c 0300A0E1 		mov	r0, r3
 357 0350 FEFFFFEB 		bl	delay
 106:LCD.c         **** }
 358              		.loc 1 106 0
 359 0354 0CD04BE2 		sub	sp, fp, #12
 360 0358 00689DE8 		ldmfd	sp, {fp, sp, lr}
 361 035c 1EFF2FE1 		bx	lr
 362              	.LFE7:
 363              		.size	delay_mikros, .-delay_mikros
 364              		.align	2
 365              		.global	delay_millis
 366              		.type	delay_millis, %function
 367              	delay_millis:
 368              	.LFB8:
 107:LCD.c         **** 
 108:LCD.c         **** void delay_millis(long ms) {            	// delays by the provided parameter (in milliseconds)
 369              		.loc 1 108 0
 370              		@ Function supports interworking.
 371              		@ args = 0, pretend = 0, frame = 4
 372              		@ frame_needed = 1, uses_anonymous_args = 0
 373 0360 0DC0A0E1 		mov	ip, sp
 374              	.LCFI22:
 375 0364 00D82DE9 		stmfd	sp!, {fp, ip, lr, pc}
 376              	.LCFI23:
 377 0368 04B04CE2 		sub	fp, ip, #4
 378              	.LCFI24:
 379 036c 04D04DE2 		sub	sp, sp, #4
 380              	.LCFI25:
 381 0370 10000BE5 		str	r0, [fp, #-16]
 109:LCD.c         ****     delay(ms*15000);
 382              		.loc 1 109 0
 383 0374 10201BE5 		ldr	r2, [fp, #-16]
 384 0378 0230A0E1 		mov	r3, r2
 385 037c 8332A0E1 		mov	r3, r3, asl #5
 386 0380 033062E0 		rsb	r3, r2, r3
 387 0384 0331A0E1 		mov	r3, r3, asl #2
 388 0388 023083E0 		add	r3, r3, r2
 389 038c 0322A0E1 		mov	r2, r3, asl #4
 390 0390 022063E0 		rsb	r2, r3, r2
 391 0394 8231A0E1 		mov	r3, r2, asl #3
 392 0398 0300A0E1 		mov	r0, r3
 393 039c FEFFFFEB 		bl	delay
 110:LCD.c         **** }
 394              		.loc 1 110 0
 395 03a0 0CD04BE2 		sub	sp, fp, #12
 396 03a4 00689DE8 		ldmfd	sp, {fp, sp, lr}
 397 03a8 1EFF2FE1 		bx	lr
 398              	.LFE8:
 399              		.size	delay_millis, .-delay_millis
ARM GAS  /cygdrive/c/DOCUME~1/deforce/LOKALA~1/Temp/cce8Kowe.s 			page 10


 400              		.align	2
 401              		.global	delay_secs
 402              		.type	delay_secs, %function
 403              	delay_secs:
 404              	.LFB9:
 111:LCD.c         **** 
 112:LCD.c         **** void delay_secs(long secs) {              	// delays by the provided parameter (in seconds)
 405              		.loc 1 112 0
 406              		@ Function supports interworking.
 407              		@ args = 0, pretend = 0, frame = 4
 408              		@ frame_needed = 1, uses_anonymous_args = 0
 409 03ac 0DC0A0E1 		mov	ip, sp
 410              	.LCFI26:
 411 03b0 00D82DE9 		stmfd	sp!, {fp, ip, lr, pc}
 412              	.LCFI27:
 413 03b4 04B04CE2 		sub	fp, ip, #4
 414              	.LCFI28:
 415 03b8 04D04DE2 		sub	sp, sp, #4
 416              	.LCFI29:
 417 03bc 10000BE5 		str	r0, [fp, #-16]
 113:LCD.c         ****     delay(secs*15000000);
 418              		.loc 1 113 0
 419 03c0 10101BE5 		ldr	r1, [fp, #-16]
 420 03c4 0120A0E1 		mov	r2, r1
 421 03c8 8222A0E1 		mov	r2, r2, asl #5
 422 03cc 022061E0 		rsb	r2, r1, r2
 423 03d0 0233A0E1 		mov	r3, r2, asl #6
 424 03d4 033062E0 		rsb	r3, r2, r3
 425 03d8 8331A0E1 		mov	r3, r3, asl #3
 426 03dc 013083E0 		add	r3, r3, r1
 427 03e0 0322A0E1 		mov	r2, r3, asl #4
 428 03e4 022063E0 		rsb	r2, r3, r2
 429 03e8 0233A0E1 		mov	r3, r2, asl #6
 430 03ec 0300A0E1 		mov	r0, r3
 431 03f0 FEFFFFEB 		bl	delay
 114:LCD.c         **** }
 432              		.loc 1 114 0
 433 03f4 0CD04BE2 		sub	sp, fp, #12
 434 03f8 00689DE8 		ldmfd	sp, {fp, sp, lr}
 435 03fc 1EFF2FE1 		bx	lr
 436              	.LFE9:
 437              		.size	delay_secs, .-delay_secs
 438              		.section	.debug_frame,"",%progbits
 439              	.Lframe0:
 440 0000 0C000000 		.4byte	.LECIE0-.LSCIE0
 441              	.LSCIE0:
 442 0004 FFFFFFFF 		.4byte	0xffffffff
 443 0008 01       		.byte	0x1
 444 0009 00       		.ascii	"\000"
 445 000a 01       		.uleb128 0x1
 446 000b 7C       		.sleb128 -4
 447 000c 0E       		.byte	0xe
 448 000d 0C       		.byte	0xc
 449 000e 0D       		.uleb128 0xd
 450 000f 00       		.uleb128 0x0
 451              		.align	2
 452              	.LECIE0:
ARM GAS  /cygdrive/c/DOCUME~1/deforce/LOKALA~1/Temp/cce8Kowe.s 			page 11


 453              	.LSFDE0:
 454 0010 1C000000 		.4byte	.LEFDE0-.LASFDE0
 455              	.LASFDE0:
 456 0014 00000000 		.4byte	.Lframe0
 457 0018 00000000 		.4byte	.LFB2
 458 001c B0000000 		.4byte	.LFE2-.LFB2
 459 0020 44       		.byte	0x4
 460              		.4byte	.LCFI0-.LFB2
 461 0021 0D       		.byte	0xd
 462 0022 0C       		.uleb128 0xc
 463 0023 44       		.byte	0x4
 464              		.4byte	.LCFI1-.LCFI0
 465 0024 8E       		.byte	0x8e
 466 0025 02       		.uleb128 0x2
 467 0026 8D       		.byte	0x8d
 468 0027 03       		.uleb128 0x3
 469 0028 8B       		.byte	0x8b
 470 0029 04       		.uleb128 0x4
 471 002a 44       		.byte	0x4
 472              		.4byte	.LCFI2-.LCFI1
 473 002b 0C       		.byte	0xc
 474 002c 0B       		.uleb128 0xb
 475 002d 04       		.uleb128 0x4
 476 002e 0000     		.align	2
 477              	.LEFDE0:
 478              	.LSFDE2:
 479 0030 1C000000 		.4byte	.LEFDE2-.LASFDE2
 480              	.LASFDE2:
 481 0034 00000000 		.4byte	.Lframe0
 482 0038 B0000000 		.4byte	.LFB3
 483 003c 88000000 		.4byte	.LFE3-.LFB3
 484 0040 44       		.byte	0x4
 485              		.4byte	.LCFI4-.LFB3
 486 0041 0D       		.byte	0xd
 487 0042 0C       		.uleb128 0xc
 488 0043 44       		.byte	0x4
 489              		.4byte	.LCFI5-.LCFI4
 490 0044 8E       		.byte	0x8e
 491 0045 02       		.uleb128 0x2
 492 0046 8D       		.byte	0x8d
 493 0047 03       		.uleb128 0x3
 494 0048 8B       		.byte	0x8b
 495 0049 04       		.uleb128 0x4
 496 004a 44       		.byte	0x4
 497              		.4byte	.LCFI6-.LCFI5
 498 004b 0C       		.byte	0xc
 499 004c 0B       		.uleb128 0xb
 500 004d 04       		.uleb128 0x4
 501 004e 0000     		.align	2
 502              	.LEFDE2:
 503              	.LSFDE4:
 504 0050 1C000000 		.4byte	.LEFDE4-.LASFDE4
 505              	.LASFDE4:
 506 0054 00000000 		.4byte	.Lframe0
 507 0058 38010000 		.4byte	.LFB4
 508 005c E0000000 		.4byte	.LFE4-.LFB4
 509 0060 44       		.byte	0x4
ARM GAS  /cygdrive/c/DOCUME~1/deforce/LOKALA~1/Temp/cce8Kowe.s 			page 12


 510              		.4byte	.LCFI8-.LFB4
 511 0061 0D       		.byte	0xd
 512 0062 0C       		.uleb128 0xc
 513 0063 44       		.byte	0x4
 514              		.4byte	.LCFI9-.LCFI8
 515 0064 8E       		.byte	0x8e
 516 0065 02       		.uleb128 0x2
 517 0066 8D       		.byte	0x8d
 518 0067 03       		.uleb128 0x3
 519 0068 8B       		.byte	0x8b
 520 0069 04       		.uleb128 0x4
 521 006a 44       		.byte	0x4
 522              		.4byte	.LCFI10-.LCFI9
 523 006b 0C       		.byte	0xc
 524 006c 0B       		.uleb128 0xb
 525 006d 04       		.uleb128 0x4
 526 006e 0000     		.align	2
 527              	.LEFDE4:
 528              	.LSFDE6:
 529 0070 1C000000 		.4byte	.LEFDE6-.LASFDE6
 530              	.LASFDE6:
 531 0074 00000000 		.4byte	.Lframe0
 532 0078 18020000 		.4byte	.LFB5
 533 007c E8000000 		.4byte	.LFE5-.LFB5
 534 0080 44       		.byte	0x4
 535              		.4byte	.LCFI11-.LFB5
 536 0081 0D       		.byte	0xd
 537 0082 0C       		.uleb128 0xc
 538 0083 44       		.byte	0x4
 539              		.4byte	.LCFI12-.LCFI11
 540 0084 8E       		.byte	0x8e
 541 0085 02       		.uleb128 0x2
 542 0086 8D       		.byte	0x8d
 543 0087 03       		.uleb128 0x3
 544 0088 8B       		.byte	0x8b
 545 0089 04       		.uleb128 0x4
 546 008a 44       		.byte	0x4
 547              		.4byte	.LCFI13-.LCFI12
 548 008b 0C       		.byte	0xc
 549 008c 0B       		.uleb128 0xb
 550 008d 04       		.uleb128 0x4
 551 008e 0000     		.align	2
 552              	.LEFDE6:
 553              	.LSFDE8:
 554 0090 1C000000 		.4byte	.LEFDE8-.LASFDE8
 555              	.LASFDE8:
 556 0094 00000000 		.4byte	.Lframe0
 557 0098 00030000 		.4byte	.LFB6
 558 009c 28000000 		.4byte	.LFE6-.LFB6
 559 00a0 44       		.byte	0x4
 560              		.4byte	.LCFI14-.LFB6
 561 00a1 0D       		.byte	0xd
 562 00a2 0C       		.uleb128 0xc
 563 00a3 44       		.byte	0x4
 564              		.4byte	.LCFI15-.LCFI14
 565 00a4 8E       		.byte	0x8e
 566 00a5 02       		.uleb128 0x2
ARM GAS  /cygdrive/c/DOCUME~1/deforce/LOKALA~1/Temp/cce8Kowe.s 			page 13


 567 00a6 8D       		.byte	0x8d
 568 00a7 03       		.uleb128 0x3
 569 00a8 8B       		.byte	0x8b
 570 00a9 04       		.uleb128 0x4
 571 00aa 44       		.byte	0x4
 572              		.4byte	.LCFI16-.LCFI15
 573 00ab 0C       		.byte	0xc
 574 00ac 0B       		.uleb128 0xb
 575 00ad 04       		.uleb128 0x4
 576 00ae 0000     		.align	2
 577              	.LEFDE8:
 578              	.LSFDE10:
 579 00b0 1C000000 		.4byte	.LEFDE10-.LASFDE10
 580              	.LASFDE10:
 581 00b4 00000000 		.4byte	.Lframe0
 582 00b8 28030000 		.4byte	.LFB7
 583 00bc 38000000 		.4byte	.LFE7-.LFB7
 584 00c0 44       		.byte	0x4
 585              		.4byte	.LCFI18-.LFB7
 586 00c1 0D       		.byte	0xd
 587 00c2 0C       		.uleb128 0xc
 588 00c3 44       		.byte	0x4
 589              		.4byte	.LCFI19-.LCFI18
 590 00c4 8E       		.byte	0x8e
 591 00c5 02       		.uleb128 0x2
 592 00c6 8D       		.byte	0x8d
 593 00c7 03       		.uleb128 0x3
 594 00c8 8B       		.byte	0x8b
 595 00c9 04       		.uleb128 0x4
 596 00ca 44       		.byte	0x4
 597              		.4byte	.LCFI20-.LCFI19
 598 00cb 0C       		.byte	0xc
 599 00cc 0B       		.uleb128 0xb
 600 00cd 04       		.uleb128 0x4
 601 00ce 0000     		.align	2
 602              	.LEFDE10:
 603              	.LSFDE12:
 604 00d0 1C000000 		.4byte	.LEFDE12-.LASFDE12
 605              	.LASFDE12:
 606 00d4 00000000 		.4byte	.Lframe0
 607 00d8 60030000 		.4byte	.LFB8
 608 00dc 4C000000 		.4byte	.LFE8-.LFB8
 609 00e0 44       		.byte	0x4
 610              		.4byte	.LCFI22-.LFB8
 611 00e1 0D       		.byte	0xd
 612 00e2 0C       		.uleb128 0xc
 613 00e3 44       		.byte	0x4
 614              		.4byte	.LCFI23-.LCFI22
 615 00e4 8E       		.byte	0x8e
 616 00e5 02       		.uleb128 0x2
 617 00e6 8D       		.byte	0x8d
 618 00e7 03       		.uleb128 0x3
 619 00e8 8B       		.byte	0x8b
 620 00e9 04       		.uleb128 0x4
 621 00ea 44       		.byte	0x4
 622              		.4byte	.LCFI24-.LCFI23
 623 00eb 0C       		.byte	0xc
ARM GAS  /cygdrive/c/DOCUME~1/deforce/LOKALA~1/Temp/cce8Kowe.s 			page 14


 624 00ec 0B       		.uleb128 0xb
 625 00ed 04       		.uleb128 0x4
 626 00ee 0000     		.align	2
 627              	.LEFDE12:
 628              	.LSFDE14:
 629 00f0 1C000000 		.4byte	.LEFDE14-.LASFDE14
 630              	.LASFDE14:
 631 00f4 00000000 		.4byte	.Lframe0
 632 00f8 AC030000 		.4byte	.LFB9
 633 00fc 54000000 		.4byte	.LFE9-.LFB9
 634 0100 44       		.byte	0x4
 635              		.4byte	.LCFI26-.LFB9
 636 0101 0D       		.byte	0xd
 637 0102 0C       		.uleb128 0xc
 638 0103 44       		.byte	0x4
 639              		.4byte	.LCFI27-.LCFI26
 640 0104 8E       		.byte	0x8e
 641 0105 02       		.uleb128 0x2
 642 0106 8D       		.byte	0x8d
 643 0107 03       		.uleb128 0x3
 644 0108 8B       		.byte	0x8b
 645 0109 04       		.uleb128 0x4
 646 010a 44       		.byte	0x4
 647              		.4byte	.LCFI28-.LCFI27
 648 010b 0C       		.byte	0xc
 649 010c 0B       		.uleb128 0xb
 650 010d 04       		.uleb128 0x4
 651 010e 0000     		.align	2
 652              	.LEFDE14:
 653              		.text
 654              	.Letext0: