ARM GAS  /cygdrive/c/DOCUME~1/deforce/LOKALA~1/Temp/ccbv526R.s 			page 1


   1              		.file	"LCD.c"
   2              		.section	.debug_abbrev,"",%progbits
   3              	.Ldebug_abbrev0:
   4              		.section	.debug_info,"",%progbits
   5              	.Ldebug_info0:
   6              		.section	.debug_line,"",%progbits
   7              	.Ldebug_line0:
   8 0000 73000000 		.text
   8      02001C00 
   8      00000201 
   8      FB0E0D00 
   8      01010101 
   9              	.Ltext0:
  10              		.align	2
  11              		.global	delay
  12              		.type	delay, %function
  13              	delay:
  14              	.LFB2:
  15              		.file 1 "LCD.c"
   1:LCD.c         **** /**********************************************************************************************
   2:LCD.c         ****  *
   3:LCD.c         ****  *	LCD.c
   4:LCD.c         ****  *	111031 TA
   5:LCD.c         ****  *
   6:LCD.c         ****  * 	Jonas LCD-rutiner med vissa justeringar
   7:LCD.c         ****  *
   8:LCD.c         ****  *
   9:LCD.c         ****  *  Makefilen i mappen LCD generar lib_LDC.a i ARM-format, behövs pga asm instruktionerna i delay
  10:LCD.c         ****  *
  11:LCD.c         ****  ************************************************************************************************/
  12:LCD.c         **** 
  13:LCD.c         **** 
  14:LCD.c         **** 
  15:LCD.c         **** 
  16:LCD.c         **** #include "../startup/lpc2xxx.h"
  17:LCD.c         **** 
  18:LCD.c         **** /* Med CCLK=60 MHz ger denna rutin en delay på pulses*66,666 ns + anropstiden */
  19:LCD.c         **** 
  20:LCD.c         **** /***************************************************
  21:LCD.c         ****  * Delay functions
  22:LCD.c         ****  ***************************************************/
  23:LCD.c         **** void delay(long pulses) {               // pulses is stored in R0 when this function is called
  16              		.loc 1 23 0
  17              		@ Function supports interworking.
  18              		@ args = 0, pretend = 0, frame = 4
  19              		@ frame_needed = 1, uses_anonymous_args = 0
  20 0000 0DC0A0E1 		mov	ip, sp
  21              	.LCFI0:
  22 0004 00D82DE9 		stmfd	sp!, {fp, ip, lr, pc}
  23              	.LCFI1:
  24 0008 04B04CE2 		sub	fp, ip, #4
  25              	.LCFI2:
  26 000c 04D04DE2 		sub	sp, sp, #4
  27              	.LCFI3:
  28 0010 10000BE5 		str	r0, [fp, #-16]
  24:LCD.c         **** 	asm("wait:   SUBS R0, R0, #1");     // the label "wait" is declared, decrements the contents of R0
  29              		.loc 1 24 0
ARM GAS  /cygdrive/c/DOCUME~1/deforce/LOKALA~1/Temp/ccbv526R.s 			page 2


  30 0014 010050E2 		wait:   SUBS R0, R0, #1
  25:LCD.c         **** 	asm("BNE wait");                    // branches to the label "wait" unless the contents of R0 equa
  31              		.loc 1 25 0
  32 0018 FDFFFF1A 		BNE wait
  26:LCD.c         **** }
  33              		.loc 1 26 0
  34 001c 0CD04BE2 		sub	sp, fp, #12
  35 0020 00689DE8 		ldmfd	sp, {fp, sp, lr}
  36 0024 1EFF2FE1 		bx	lr
  37              	.LFE2:
  38              		.size	delay, .-delay
  39              		.align	2
  40              		.global	delay_mikros
  41              		.type	delay_mikros, %function
  42              	delay_mikros:
  43              	.LFB3:
  27:LCD.c         **** 
  28:LCD.c         **** void delay_mikros(long us) {            // delays by the provided parameter (in mikroseconds)
  44              		.loc 1 28 0
  45              		@ Function supports interworking.
  46              		@ args = 0, pretend = 0, frame = 4
  47              		@ frame_needed = 1, uses_anonymous_args = 0
  48 0028 0DC0A0E1 		mov	ip, sp
  49              	.LCFI4:
  50 002c 00D82DE9 		stmfd	sp!, {fp, ip, lr, pc}
  51              	.LCFI5:
  52 0030 04B04CE2 		sub	fp, ip, #4
  53              	.LCFI6:
  54 0034 04D04DE2 		sub	sp, sp, #4
  55              	.LCFI7:
  56 0038 10000BE5 		str	r0, [fp, #-16]
  29:LCD.c         ****     delay(us*15);
  57              		.loc 1 29 0
  58 003c 10301BE5 		ldr	r3, [fp, #-16]
  59 0040 0320A0E1 		mov	r2, r3
  60 0044 0222A0E1 		mov	r2, r2, asl #4
  61 0048 023063E0 		rsb	r3, r3, r2
  62 004c 0300A0E1 		mov	r0, r3
  63 0050 FEFFFFEB 		bl	delay
  30:LCD.c         **** }
  64              		.loc 1 30 0
  65 0054 0CD04BE2 		sub	sp, fp, #12
  66 0058 00689DE8 		ldmfd	sp, {fp, sp, lr}
  67 005c 1EFF2FE1 		bx	lr
  68              	.LFE3:
  69              		.size	delay_mikros, .-delay_mikros
  70              		.align	2
  71              		.global	delay_millis
  72              		.type	delay_millis, %function
  73              	delay_millis:
  74              	.LFB4:
  31:LCD.c         **** 
  32:LCD.c         **** void delay_millis(long ms) {            // delays by the provided parameter (in milliseconds)
  75              		.loc 1 32 0
  76              		@ Function supports interworking.
  77              		@ args = 0, pretend = 0, frame = 4
  78              		@ frame_needed = 1, uses_anonymous_args = 0
ARM GAS  /cygdrive/c/DOCUME~1/deforce/LOKALA~1/Temp/ccbv526R.s 			page 3


  79 0060 0DC0A0E1 		mov	ip, sp
  80              	.LCFI8:
  81 0064 00D82DE9 		stmfd	sp!, {fp, ip, lr, pc}
  82              	.LCFI9:
  83 0068 04B04CE2 		sub	fp, ip, #4
  84              	.LCFI10:
  85 006c 04D04DE2 		sub	sp, sp, #4
  86              	.LCFI11:
  87 0070 10000BE5 		str	r0, [fp, #-16]
  33:LCD.c         ****     delay(ms*15000);
  88              		.loc 1 33 0
  89 0074 10201BE5 		ldr	r2, [fp, #-16]
  90 0078 0230A0E1 		mov	r3, r2
  91 007c 8332A0E1 		mov	r3, r3, asl #5
  92 0080 033062E0 		rsb	r3, r2, r3
  93 0084 0331A0E1 		mov	r3, r3, asl #2
  94 0088 023083E0 		add	r3, r3, r2
  95 008c 0322A0E1 		mov	r2, r3, asl #4
  96 0090 022063E0 		rsb	r2, r3, r2
  97 0094 8231A0E1 		mov	r3, r2, asl #3
  98 0098 0300A0E1 		mov	r0, r3
  99 009c FEFFFFEB 		bl	delay
  34:LCD.c         **** }
 100              		.loc 1 34 0
 101 00a0 0CD04BE2 		sub	sp, fp, #12
 102 00a4 00689DE8 		ldmfd	sp, {fp, sp, lr}
 103 00a8 1EFF2FE1 		bx	lr
 104              	.LFE4:
 105              		.size	delay_millis, .-delay_millis
 106              		.align	2
 107              		.global	delay_secs
 108              		.type	delay_secs, %function
 109              	delay_secs:
 110              	.LFB5:
  35:LCD.c         **** 
  36:LCD.c         **** void delay_secs(long secs) {              // delays by the provided parameter (in seconds)
 111              		.loc 1 36 0
 112              		@ Function supports interworking.
 113              		@ args = 0, pretend = 0, frame = 4
 114              		@ frame_needed = 1, uses_anonymous_args = 0
 115 00ac 0DC0A0E1 		mov	ip, sp
 116              	.LCFI12:
 117 00b0 00D82DE9 		stmfd	sp!, {fp, ip, lr, pc}
 118              	.LCFI13:
 119 00b4 04B04CE2 		sub	fp, ip, #4
 120              	.LCFI14:
 121 00b8 04D04DE2 		sub	sp, sp, #4
 122              	.LCFI15:
 123 00bc 10000BE5 		str	r0, [fp, #-16]
  37:LCD.c         ****     delay(secs*15000000);
 124              		.loc 1 37 0
 125 00c0 10101BE5 		ldr	r1, [fp, #-16]
 126 00c4 0120A0E1 		mov	r2, r1
 127 00c8 8222A0E1 		mov	r2, r2, asl #5
 128 00cc 022061E0 		rsb	r2, r1, r2
 129 00d0 0233A0E1 		mov	r3, r2, asl #6
 130 00d4 033062E0 		rsb	r3, r2, r3
ARM GAS  /cygdrive/c/DOCUME~1/deforce/LOKALA~1/Temp/ccbv526R.s 			page 4


 131 00d8 8331A0E1 		mov	r3, r3, asl #3
 132 00dc 013083E0 		add	r3, r3, r1
 133 00e0 0322A0E1 		mov	r2, r3, asl #4
 134 00e4 022063E0 		rsb	r2, r3, r2
 135 00e8 0233A0E1 		mov	r3, r2, asl #6
 136 00ec 0300A0E1 		mov	r0, r3
 137 00f0 FEFFFFEB 		bl	delay
  38:LCD.c         **** }
 138              		.loc 1 38 0
 139 00f4 0CD04BE2 		sub	sp, fp, #12
 140 00f8 00689DE8 		ldmfd	sp, {fp, sp, lr}
 141 00fc 1EFF2FE1 		bx	lr
 142              	.LFE5:
 143              		.size	delay_secs, .-delay_secs
 144              		.align	2
 145              		.global	send_instruction
 146              		.type	send_instruction, %function
 147              	send_instruction:
 148              	.LFB6:
  39:LCD.c         **** 
  40:LCD.c         **** 
  41:LCD.c         **** #define	data_pins	0x00FF0000		//P1.16-P1.23
  42:LCD.c         **** #define	RS	0x01000000		//P1.24
  43:LCD.c         **** #define	RW	0x00400000		//P0.22
  44:LCD.c         **** #define	E	0x02000000		//P1.25
  45:LCD.c         **** #define	backlight	0x40000000		//P0.30
  46:LCD.c         **** #define	BF	0x00800000
  47:LCD.c         **** 
  48:LCD.c         **** void send_instruction(long instruction)
  49:LCD.c         **** {
 149              		.loc 1 49 0
 150              		@ Function supports interworking.
 151              		@ args = 0, pretend = 0, frame = 4
 152              		@ frame_needed = 1, uses_anonymous_args = 0
 153 0100 0DC0A0E1 		mov	ip, sp
 154              	.LCFI16:
 155 0104 00D82DE9 		stmfd	sp!, {fp, ip, lr, pc}
 156              	.LCFI17:
 157 0108 04B04CE2 		sub	fp, ip, #4
 158              	.LCFI18:
 159 010c 04D04DE2 		sub	sp, sp, #4
 160              	.LCFI19:
 161 0110 10000BE5 		str	r0, [fp, #-16]
  50:LCD.c         **** 	delay(100);
 162              		.loc 1 50 0
 163 0114 6400A0E3 		mov	r0, #100
 164 0118 FEFFFFEB 		bl	delay
  51:LCD.c         **** 	IOCLR1 = RS;		//send instruction
 165              		.loc 1 51 0
 166 011c 0E32A0E3 		mov	r3, #-536870912
 167 0120 0A3983E2 		add	r3, r3, #163840
 168 0124 1C3083E2 		add	r3, r3, #28
 169 0128 0124A0E3 		mov	r2, #16777216
 170 012c 002083E5 		str	r2, [r3, #0]
  52:LCD.c         **** 	delay(100);
 171              		.loc 1 52 0
 172 0130 6400A0E3 		mov	r0, #100
ARM GAS  /cygdrive/c/DOCUME~1/deforce/LOKALA~1/Temp/ccbv526R.s 			page 5


 173 0134 FEFFFFEB 		bl	delay
  53:LCD.c         **** 	IOSET1 = E;			//start a write pulse
 174              		.loc 1 53 0
 175 0138 0E32A0E3 		mov	r3, #-536870912
 176 013c 0A3983E2 		add	r3, r3, #163840
 177 0140 143083E2 		add	r3, r3, #20
 178 0144 0224A0E3 		mov	r2, #33554432
 179 0148 002083E5 		str	r2, [r3, #0]
  54:LCD.c         **** 	delay(100);
 180              		.loc 1 54 0
 181 014c 6400A0E3 		mov	r0, #100
 182 0150 FEFFFFEB 		bl	delay
  55:LCD.c         **** 	IOCLR1 = data_pins;		//set p1.16-P1.23 to 0
 183              		.loc 1 55 0
 184 0154 0E32A0E3 		mov	r3, #-536870912
 185 0158 0A3983E2 		add	r3, r3, #163840
 186 015c 1C3083E2 		add	r3, r3, #28
 187 0160 FF28A0E3 		mov	r2, #16711680
 188 0164 002083E5 		str	r2, [r3, #0]
  56:LCD.c         **** 	delay(100);
 189              		.loc 1 56 0
 190 0168 6400A0E3 		mov	r0, #100
 191 016c FEFFFFEB 		bl	delay
  57:LCD.c         **** 	IOSET1 = instruction<<16;
 192              		.loc 1 57 0
 193 0170 0E32A0E3 		mov	r3, #-536870912
 194 0174 0A3983E2 		add	r3, r3, #163840
 195 0178 143083E2 		add	r3, r3, #20
 196 017c 10201BE5 		ldr	r2, [fp, #-16]
 197 0180 0228A0E1 		mov	r2, r2, asl #16
 198 0184 002083E5 		str	r2, [r3, #0]
  58:LCD.c         **** 	delay(100);
 199              		.loc 1 58 0
 200 0188 6400A0E3 		mov	r0, #100
 201 018c FEFFFFEB 		bl	delay
  59:LCD.c         **** 	IOCLR1 = E;			//end write pulse
 202              		.loc 1 59 0
 203 0190 0E32A0E3 		mov	r3, #-536870912
 204 0194 0A3983E2 		add	r3, r3, #163840
 205 0198 1C3083E2 		add	r3, r3, #28
 206 019c 0224A0E3 		mov	r2, #33554432
 207 01a0 002083E5 		str	r2, [r3, #0]
  60:LCD.c         **** }
 208              		.loc 1 60 0
 209 01a4 0CD04BE2 		sub	sp, fp, #12
 210 01a8 00689DE8 		ldmfd	sp, {fp, sp, lr}
 211 01ac 1EFF2FE1 		bx	lr
 212              	.LFE6:
 213              		.size	send_instruction, .-send_instruction
 214              		.align	2
 215              		.global	send_character
 216              		.type	send_character, %function
 217              	send_character:
 218              	.LFB7:
  61:LCD.c         **** 
  62:LCD.c         **** void send_character(long character)
  63:LCD.c         **** {
ARM GAS  /cygdrive/c/DOCUME~1/deforce/LOKALA~1/Temp/ccbv526R.s 			page 6


 219              		.loc 1 63 0
 220              		@ Function supports interworking.
 221              		@ args = 0, pretend = 0, frame = 4
 222              		@ frame_needed = 1, uses_anonymous_args = 0
 223 01b0 0DC0A0E1 		mov	ip, sp
 224              	.LCFI20:
 225 01b4 00D82DE9 		stmfd	sp!, {fp, ip, lr, pc}
 226              	.LCFI21:
 227 01b8 04B04CE2 		sub	fp, ip, #4
 228              	.LCFI22:
 229 01bc 04D04DE2 		sub	sp, sp, #4
 230              	.LCFI23:
 231 01c0 10000BE5 		str	r0, [fp, #-16]
  64:LCD.c         **** 	IOSET1 = RS;		//send character
 232              		.loc 1 64 0
 233 01c4 0E32A0E3 		mov	r3, #-536870912
 234 01c8 0A3983E2 		add	r3, r3, #163840
 235 01cc 143083E2 		add	r3, r3, #20
 236 01d0 0124A0E3 		mov	r2, #16777216
 237 01d4 002083E5 		str	r2, [r3, #0]
  65:LCD.c         **** 	IOSET1 = E;			//start a write pulse
 238              		.loc 1 65 0
 239 01d8 0E32A0E3 		mov	r3, #-536870912
 240 01dc 0A3983E2 		add	r3, r3, #163840
 241 01e0 143083E2 		add	r3, r3, #20
 242 01e4 0224A0E3 		mov	r2, #33554432
 243 01e8 002083E5 		str	r2, [r3, #0]
  66:LCD.c         **** 	IOCLR1 = data_pins;		//set p1.16-P1.23 to 0
 244              		.loc 1 66 0
 245 01ec 0E32A0E3 		mov	r3, #-536870912
 246 01f0 0A3983E2 		add	r3, r3, #163840
 247 01f4 1C3083E2 		add	r3, r3, #28
 248 01f8 FF28A0E3 		mov	r2, #16711680
 249 01fc 002083E5 		str	r2, [r3, #0]
  67:LCD.c         **** 	IOSET1 = character<<16;
 250              		.loc 1 67 0
 251 0200 0E32A0E3 		mov	r3, #-536870912
 252 0204 0A3983E2 		add	r3, r3, #163840
 253 0208 143083E2 		add	r3, r3, #20
 254 020c 10201BE5 		ldr	r2, [fp, #-16]
 255 0210 0228A0E1 		mov	r2, r2, asl #16
 256 0214 002083E5 		str	r2, [r3, #0]
  68:LCD.c         **** 	IOCLR1 = E;			//end write pulse
 257              		.loc 1 68 0
 258 0218 0E32A0E3 		mov	r3, #-536870912
 259 021c 0A3983E2 		add	r3, r3, #163840
 260 0220 1C3083E2 		add	r3, r3, #28
 261 0224 0224A0E3 		mov	r2, #33554432
 262 0228 002083E5 		str	r2, [r3, #0]
  69:LCD.c         **** }
 263              		.loc 1 69 0
 264 022c 0CD04BE2 		sub	sp, fp, #12
 265 0230 00689DE8 		ldmfd	sp, {fp, sp, lr}
 266 0234 1EFF2FE1 		bx	lr
 267              	.LFE7:
 268              		.size	send_character, .-send_character
 269              		.align	2
ARM GAS  /cygdrive/c/DOCUME~1/deforce/LOKALA~1/Temp/ccbv526R.s 			page 7


 270              		.global	wait_BF
 271              		.type	wait_BF, %function
 272              	wait_BF:
 273              	.LFB8:
  70:LCD.c         **** 
  71:LCD.c         **** // deprecated (do not use!)
  72:LCD.c         **** void wait_BF(void)
  73:LCD.c         **** {
 274              		.loc 1 73 0
 275              		@ Function supports interworking.
 276              		@ args = 0, pretend = 0, frame = 0
 277              		@ frame_needed = 1, uses_anonymous_args = 0
 278 0238 0DC0A0E1 		mov	ip, sp
 279              	.LCFI24:
 280 023c 00D82DE9 		stmfd	sp!, {fp, ip, lr, pc}
 281              	.LCFI25:
 282 0240 04B04CE2 		sub	fp, ip, #4
 283              	.LCFI26:
  74:LCD.c         **** //	IODIR1 |= BF;  alternativ lsg på kapacitansproblemet nedan
  75:LCD.c         **** //	IOSET1 = BF;
  76:LCD.c         **** 
  77:LCD.c         **** 	IOSET0 = RW;		//read from display
 284              		.loc 1 77 0
 285 0244 4E32A0E3 		mov	r3, #-536870908
 286 0248 0A3983E2 		add	r3, r3, #163840
 287 024c 0125A0E3 		mov	r2, #4194304
 288 0250 002083E5 		str	r2, [r3, #0]
  78:LCD.c         **** 	IODIR1 &= ~data_pins;		//make data_pins input
 289              		.loc 1 78 0
 290 0254 0E22A0E3 		mov	r2, #-536870912
 291 0258 0A2982E2 		add	r2, r2, #163840
 292 025c 182082E2 		add	r2, r2, #24
 293 0260 0E32A0E3 		mov	r3, #-536870912
 294 0264 0A3983E2 		add	r3, r3, #163840
 295 0268 183083E2 		add	r3, r3, #24
 296 026c 003093E5 		ldr	r3, [r3, #0]
 297 0270 FF38C3E3 		bic	r3, r3, #16711680
 298 0274 003082E5 		str	r3, [r2, #0]
  79:LCD.c         **** 	IOCLR1 = RS;		//read status
 299              		.loc 1 79 0
 300 0278 0E32A0E3 		mov	r3, #-536870912
 301 027c 0A3983E2 		add	r3, r3, #163840
 302 0280 1C3083E2 		add	r3, r3, #28
 303 0284 0124A0E3 		mov	r2, #16777216
 304 0288 002083E5 		str	r2, [r3, #0]
  80:LCD.c         **** 	IOSET1 = E;
 305              		.loc 1 80 0
 306 028c 0E32A0E3 		mov	r3, #-536870912
 307 0290 0A3983E2 		add	r3, r3, #163840
 308 0294 143083E2 		add	r3, r3, #20
 309 0298 0224A0E3 		mov	r2, #33554432
 310 029c 002083E5 		str	r2, [r3, #0]
  81:LCD.c         **** 	delay(2);			//behövs pga kapacitanser i flatkabel
 311              		.loc 1 81 0
 312 02a0 0200A0E3 		mov	r0, #2
 313 02a4 FEFFFFEB 		bl	delay
 314              	.L14:
ARM GAS  /cygdrive/c/DOCUME~1/deforce/LOKALA~1/Temp/ccbv526R.s 			page 8


  82:LCD.c         **** 	while(IOPIN1 & BF);		//wait until BF == 0
 315              		.loc 1 82 0
 316 02a8 0E32A0E3 		mov	r3, #-536870912
 317 02ac 0A3983E2 		add	r3, r3, #163840
 318 02b0 103083E2 		add	r3, r3, #16
 319 02b4 003093E5 		ldr	r3, [r3, #0]
 320 02b8 023503E2 		and	r3, r3, #8388608
 321 02bc 000053E3 		cmp	r3, #0
 322 02c0 F8FFFF1A 		bne	.L14
  83:LCD.c         **** 	IOCLR1 = E;
 323              		.loc 1 83 0
 324 02c4 0E32A0E3 		mov	r3, #-536870912
 325 02c8 0A3983E2 		add	r3, r3, #163840
 326 02cc 1C3083E2 		add	r3, r3, #28
 327 02d0 0224A0E3 		mov	r2, #33554432
 328 02d4 002083E5 		str	r2, [r3, #0]
  84:LCD.c         **** 	IODIR1 |= data_pins;		//make data_pins output
 329              		.loc 1 84 0
 330 02d8 0E22A0E3 		mov	r2, #-536870912
 331 02dc 0A2982E2 		add	r2, r2, #163840
 332 02e0 182082E2 		add	r2, r2, #24
 333 02e4 0E32A0E3 		mov	r3, #-536870912
 334 02e8 0A3983E2 		add	r3, r3, #163840
 335 02ec 183083E2 		add	r3, r3, #24
 336 02f0 003093E5 		ldr	r3, [r3, #0]
 337 02f4 FF3883E3 		orr	r3, r3, #16711680
 338 02f8 003082E5 		str	r3, [r2, #0]
  85:LCD.c         **** //	delay(1);  //behövs inte om optimering O0, behövs om O2
  86:LCD.c         **** 	IOCLR0 = RW;		//restore write to display
 339              		.loc 1 86 0
 340 02fc CE32A0E3 		mov	r3, #-536870900
 341 0300 0A3983E2 		add	r3, r3, #163840
 342 0304 0125A0E3 		mov	r2, #4194304
 343 0308 002083E5 		str	r2, [r3, #0]
  87:LCD.c         **** }
 344              		.loc 1 87 0
 345 030c 0CD04BE2 		sub	sp, fp, #12
 346 0310 00689DE8 		ldmfd	sp, {fp, sp, lr}
 347 0314 1EFF2FE1 		bx	lr
 348              	.LFE8:
 349              		.size	wait_BF, .-wait_BF
 350              		.align	2
 351              		.global	init_LCD
 352              		.type	init_LCD, %function
 353              	init_LCD:
 354              	.LFB9:
  88:LCD.c         **** 
  89:LCD.c         **** 
  90:LCD.c         **** void init_LCD(void)
  91:LCD.c         **** {
 355              		.loc 1 91 0
 356              		@ Function supports interworking.
 357              		@ args = 0, pretend = 0, frame = 0
 358              		@ frame_needed = 1, uses_anonymous_args = 0
 359 0318 0DC0A0E1 		mov	ip, sp
 360              	.LCFI27:
 361 031c 00D82DE9 		stmfd	sp!, {fp, ip, lr, pc}
ARM GAS  /cygdrive/c/DOCUME~1/deforce/LOKALA~1/Temp/ccbv526R.s 			page 9


 362              	.LCFI28:
 363 0320 04B04CE2 		sub	fp, ip, #4
 364              	.LCFI29:
  92:LCD.c         **** 	IODIR0 |= RW|backlight;
 365              		.loc 1 92 0
 366 0324 8E22A0E3 		mov	r2, #-536870904
 367 0328 0A2982E2 		add	r2, r2, #163840
 368 032c 8E32A0E3 		mov	r3, #-536870904
 369 0330 0A3983E2 		add	r3, r3, #163840
 370 0334 003093E5 		ldr	r3, [r3, #0]
 371 0338 013183E3 		orr	r3, r3, #1073741824
 372 033c 013583E3 		orr	r3, r3, #4194304
 373 0340 003082E5 		str	r3, [r2, #0]
  93:LCD.c         **** 	IODIR1 |= data_pins|E|RS;
 374              		.loc 1 93 0
 375 0344 0E22A0E3 		mov	r2, #-536870912
 376 0348 0A2982E2 		add	r2, r2, #163840
 377 034c 182082E2 		add	r2, r2, #24
 378 0350 0E32A0E3 		mov	r3, #-536870912
 379 0354 0A3983E2 		add	r3, r3, #163840
 380 0358 183083E2 		add	r3, r3, #24
 381 035c 003093E5 		ldr	r3, [r3, #0]
 382 0360 FF3783E3 		orr	r3, r3, #66846720
 383 0364 033883E3 		orr	r3, r3, #196608
 384 0368 003082E5 		str	r3, [r2, #0]
  94:LCD.c         **** 	IOCLR1 = E;
 385              		.loc 1 94 0
 386 036c 0E32A0E3 		mov	r3, #-536870912
 387 0370 0A3983E2 		add	r3, r3, #163840
 388 0374 1C3083E2 		add	r3, r3, #28
 389 0378 0224A0E3 		mov	r2, #33554432
 390 037c 002083E5 		str	r2, [r3, #0]
  95:LCD.c         **** 	IOCLR0 = RW;		//write to the display
 391              		.loc 1 95 0
 392 0380 CE32A0E3 		mov	r3, #-536870900
 393 0384 0A3983E2 		add	r3, r3, #163840
 394 0388 0125A0E3 		mov	r2, #4194304
 395 038c 002083E5 		str	r2, [r3, #0]
  96:LCD.c         **** 	IOSET0 = backlight;		//turn on the backlight
 396              		.loc 1 96 0
 397 0390 4E32A0E3 		mov	r3, #-536870908
 398 0394 0A3983E2 		add	r3, r3, #163840
 399 0398 0121A0E3 		mov	r2, #1073741824
 400 039c 002083E5 		str	r2, [r3, #0]
  97:LCD.c         **** 	send_instruction(0x38);		//function set
 401              		.loc 1 97 0
 402 03a0 3800A0E3 		mov	r0, #56
 403 03a4 FEFFFFEB 		bl	send_instruction
  98:LCD.c         **** 	delay(1200);			//12*60/48 * 80 (80µs)
 404              		.loc 1 98 0
 405 03a8 4B0EA0E3 		mov	r0, #1200
 406 03ac FEFFFFEB 		bl	delay
  99:LCD.c         **** 	send_instruction(0x38);
 407              		.loc 1 99 0
 408 03b0 3800A0E3 		mov	r0, #56
 409 03b4 FEFFFFEB 		bl	send_instruction
 100:LCD.c         **** 	delay(1200);
ARM GAS  /cygdrive/c/DOCUME~1/deforce/LOKALA~1/Temp/ccbv526R.s 			page 10


 410              		.loc 1 100 0
 411 03b8 4B0EA0E3 		mov	r0, #1200
 412 03bc FEFFFFEB 		bl	delay
 101:LCD.c         **** 	send_instruction(0x0F);		//display on/off
 413              		.loc 1 101 0
 414 03c0 0F00A0E3 		mov	r0, #15
 415 03c4 FEFFFFEB 		bl	send_instruction
 102:LCD.c         **** 	delay(1200);
 416              		.loc 1 102 0
 417 03c8 4B0EA0E3 		mov	r0, #1200
 418 03cc FEFFFFEB 		bl	delay
 103:LCD.c         **** 	send_instruction(0x01);		//display clear
 419              		.loc 1 103 0
 420 03d0 0100A0E3 		mov	r0, #1
 421 03d4 FEFFFFEB 		bl	send_instruction
 104:LCD.c         **** 	delay(49250);		//12* 60/48 * 3283 (3,283 ms)
 422              		.loc 1 104 0
 423 03d8 0309A0E3 		mov	r0, #49152
 424 03dc 620080E2 		add	r0, r0, #98
 425 03e0 FEFFFFEB 		bl	delay
 105:LCD.c         **** 	send_instruction(0x06);		//entry mode set
 426              		.loc 1 105 0
 427 03e4 0600A0E3 		mov	r0, #6
 428 03e8 FEFFFFEB 		bl	send_instruction
 106:LCD.c         **** 	delay(1200);
 429              		.loc 1 106 0
 430 03ec 4B0EA0E3 		mov	r0, #1200
 431 03f0 FEFFFFEB 		bl	delay
 107:LCD.c         **** }
 432              		.loc 1 107 0
 433 03f4 0CD04BE2 		sub	sp, fp, #12
 434 03f8 00689DE8 		ldmfd	sp, {fp, sp, lr}
 435 03fc 1EFF2FE1 		bx	lr
 436              	.LFE9:
 437              		.size	init_LCD, .-init_LCD
 438              		.section	.debug_frame,"",%progbits
 439              	.Lframe0:
 440 0000 0C000000 		.4byte	.LECIE0-.LSCIE0
 441              	.LSCIE0:
 442 0004 FFFFFFFF 		.4byte	0xffffffff
 443 0008 01       		.byte	0x1
 444 0009 00       		.ascii	"\000"
 445 000a 01       		.uleb128 0x1
 446 000b 7C       		.sleb128 -4
 447 000c 0E       		.byte	0xe
 448 000d 0C       		.byte	0xc
 449 000e 0D       		.uleb128 0xd
 450 000f 00       		.uleb128 0x0
 451              		.align	2
 452              	.LECIE0:
 453              	.LSFDE0:
 454 0010 1C000000 		.4byte	.LEFDE0-.LASFDE0
 455              	.LASFDE0:
 456 0014 00000000 		.4byte	.Lframe0
 457 0018 00000000 		.4byte	.LFB2
 458 001c 28000000 		.4byte	.LFE2-.LFB2
 459 0020 44       		.byte	0x4
ARM GAS  /cygdrive/c/DOCUME~1/deforce/LOKALA~1/Temp/ccbv526R.s 			page 11


 460              		.4byte	.LCFI0-.LFB2
 461 0021 0D       		.byte	0xd
 462 0022 0C       		.uleb128 0xc
 463 0023 44       		.byte	0x4
 464              		.4byte	.LCFI1-.LCFI0
 465 0024 8E       		.byte	0x8e
 466 0025 02       		.uleb128 0x2
 467 0026 8D       		.byte	0x8d
 468 0027 03       		.uleb128 0x3
 469 0028 8B       		.byte	0x8b
 470 0029 04       		.uleb128 0x4
 471 002a 44       		.byte	0x4
 472              		.4byte	.LCFI2-.LCFI1
 473 002b 0C       		.byte	0xc
 474 002c 0B       		.uleb128 0xb
 475 002d 04       		.uleb128 0x4
 476 002e 0000     		.align	2
 477              	.LEFDE0:
 478              	.LSFDE2:
 479 0030 1C000000 		.4byte	.LEFDE2-.LASFDE2
 480              	.LASFDE2:
 481 0034 00000000 		.4byte	.Lframe0
 482 0038 28000000 		.4byte	.LFB3
 483 003c 38000000 		.4byte	.LFE3-.LFB3
 484 0040 44       		.byte	0x4
 485              		.4byte	.LCFI4-.LFB3
 486 0041 0D       		.byte	0xd
 487 0042 0C       		.uleb128 0xc
 488 0043 44       		.byte	0x4
 489              		.4byte	.LCFI5-.LCFI4
 490 0044 8E       		.byte	0x8e
 491 0045 02       		.uleb128 0x2
 492 0046 8D       		.byte	0x8d
 493 0047 03       		.uleb128 0x3
 494 0048 8B       		.byte	0x8b
 495 0049 04       		.uleb128 0x4
 496 004a 44       		.byte	0x4
 497              		.4byte	.LCFI6-.LCFI5
 498 004b 0C       		.byte	0xc
 499 004c 0B       		.uleb128 0xb
 500 004d 04       		.uleb128 0x4
 501 004e 0000     		.align	2
 502              	.LEFDE2:
 503              	.LSFDE4:
 504 0050 1C000000 		.4byte	.LEFDE4-.LASFDE4
 505              	.LASFDE4:
 506 0054 00000000 		.4byte	.Lframe0
 507 0058 60000000 		.4byte	.LFB4
 508 005c 4C000000 		.4byte	.LFE4-.LFB4
 509 0060 44       		.byte	0x4
 510              		.4byte	.LCFI8-.LFB4
 511 0061 0D       		.byte	0xd
 512 0062 0C       		.uleb128 0xc
 513 0063 44       		.byte	0x4
 514              		.4byte	.LCFI9-.LCFI8
 515 0064 8E       		.byte	0x8e
 516 0065 02       		.uleb128 0x2
ARM GAS  /cygdrive/c/DOCUME~1/deforce/LOKALA~1/Temp/ccbv526R.s 			page 12


 517 0066 8D       		.byte	0x8d
 518 0067 03       		.uleb128 0x3
 519 0068 8B       		.byte	0x8b
 520 0069 04       		.uleb128 0x4
 521 006a 44       		.byte	0x4
 522              		.4byte	.LCFI10-.LCFI9
 523 006b 0C       		.byte	0xc
 524 006c 0B       		.uleb128 0xb
 525 006d 04       		.uleb128 0x4
 526 006e 0000     		.align	2
 527              	.LEFDE4:
 528              	.LSFDE6:
 529 0070 1C000000 		.4byte	.LEFDE6-.LASFDE6
 530              	.LASFDE6:
 531 0074 00000000 		.4byte	.Lframe0
 532 0078 AC000000 		.4byte	.LFB5
 533 007c 54000000 		.4byte	.LFE5-.LFB5
 534 0080 44       		.byte	0x4
 535              		.4byte	.LCFI12-.LFB5
 536 0081 0D       		.byte	0xd
 537 0082 0C       		.uleb128 0xc
 538 0083 44       		.byte	0x4
 539              		.4byte	.LCFI13-.LCFI12
 540 0084 8E       		.byte	0x8e
 541 0085 02       		.uleb128 0x2
 542 0086 8D       		.byte	0x8d
 543 0087 03       		.uleb128 0x3
 544 0088 8B       		.byte	0x8b
 545 0089 04       		.uleb128 0x4
 546 008a 44       		.byte	0x4
 547              		.4byte	.LCFI14-.LCFI13
 548 008b 0C       		.byte	0xc
 549 008c 0B       		.uleb128 0xb
 550 008d 04       		.uleb128 0x4
 551 008e 0000     		.align	2
 552              	.LEFDE6:
 553              	.LSFDE8:
 554 0090 1C000000 		.4byte	.LEFDE8-.LASFDE8
 555              	.LASFDE8:
 556 0094 00000000 		.4byte	.Lframe0
 557 0098 00010000 		.4byte	.LFB6
 558 009c B0000000 		.4byte	.LFE6-.LFB6
 559 00a0 44       		.byte	0x4
 560              		.4byte	.LCFI16-.LFB6
 561 00a1 0D       		.byte	0xd
 562 00a2 0C       		.uleb128 0xc
 563 00a3 44       		.byte	0x4
 564              		.4byte	.LCFI17-.LCFI16
 565 00a4 8E       		.byte	0x8e
 566 00a5 02       		.uleb128 0x2
 567 00a6 8D       		.byte	0x8d
 568 00a7 03       		.uleb128 0x3
 569 00a8 8B       		.byte	0x8b
 570 00a9 04       		.uleb128 0x4
 571 00aa 44       		.byte	0x4
 572              		.4byte	.LCFI18-.LCFI17
 573 00ab 0C       		.byte	0xc
ARM GAS  /cygdrive/c/DOCUME~1/deforce/LOKALA~1/Temp/ccbv526R.s 			page 13


 574 00ac 0B       		.uleb128 0xb
 575 00ad 04       		.uleb128 0x4
 576 00ae 0000     		.align	2
 577              	.LEFDE8:
 578              	.LSFDE10:
 579 00b0 1C000000 		.4byte	.LEFDE10-.LASFDE10
 580              	.LASFDE10:
 581 00b4 00000000 		.4byte	.Lframe0
 582 00b8 B0010000 		.4byte	.LFB7
 583 00bc 88000000 		.4byte	.LFE7-.LFB7
 584 00c0 44       		.byte	0x4
 585              		.4byte	.LCFI20-.LFB7
 586 00c1 0D       		.byte	0xd
 587 00c2 0C       		.uleb128 0xc
 588 00c3 44       		.byte	0x4
 589              		.4byte	.LCFI21-.LCFI20
 590 00c4 8E       		.byte	0x8e
 591 00c5 02       		.uleb128 0x2
 592 00c6 8D       		.byte	0x8d
 593 00c7 03       		.uleb128 0x3
 594 00c8 8B       		.byte	0x8b
 595 00c9 04       		.uleb128 0x4
 596 00ca 44       		.byte	0x4
 597              		.4byte	.LCFI22-.LCFI21
 598 00cb 0C       		.byte	0xc
 599 00cc 0B       		.uleb128 0xb
 600 00cd 04       		.uleb128 0x4
 601 00ce 0000     		.align	2
 602              	.LEFDE10:
 603              	.LSFDE12:
 604 00d0 1C000000 		.4byte	.LEFDE12-.LASFDE12
 605              	.LASFDE12:
 606 00d4 00000000 		.4byte	.Lframe0
 607 00d8 38020000 		.4byte	.LFB8
 608 00dc E0000000 		.4byte	.LFE8-.LFB8
 609 00e0 44       		.byte	0x4
 610              		.4byte	.LCFI24-.LFB8
 611 00e1 0D       		.byte	0xd
 612 00e2 0C       		.uleb128 0xc
 613 00e3 44       		.byte	0x4
 614              		.4byte	.LCFI25-.LCFI24
 615 00e4 8E       		.byte	0x8e
 616 00e5 02       		.uleb128 0x2
 617 00e6 8D       		.byte	0x8d
 618 00e7 03       		.uleb128 0x3
 619 00e8 8B       		.byte	0x8b
 620 00e9 04       		.uleb128 0x4
 621 00ea 44       		.byte	0x4
 622              		.4byte	.LCFI26-.LCFI25
 623 00eb 0C       		.byte	0xc
 624 00ec 0B       		.uleb128 0xb
 625 00ed 04       		.uleb128 0x4
 626 00ee 0000     		.align	2
 627              	.LEFDE12:
 628              	.LSFDE14:
 629 00f0 1C000000 		.4byte	.LEFDE14-.LASFDE14
 630              	.LASFDE14:
ARM GAS  /cygdrive/c/DOCUME~1/deforce/LOKALA~1/Temp/ccbv526R.s 			page 14


 631 00f4 00000000 		.4byte	.Lframe0
 632 00f8 18030000 		.4byte	.LFB9
 633 00fc E8000000 		.4byte	.LFE9-.LFB9
 634 0100 44       		.byte	0x4
 635              		.4byte	.LCFI27-.LFB9
 636 0101 0D       		.byte	0xd
 637 0102 0C       		.uleb128 0xc
 638 0103 44       		.byte	0x4
 639              		.4byte	.LCFI28-.LCFI27
 640 0104 8E       		.byte	0x8e
 641 0105 02       		.uleb128 0x2
 642 0106 8D       		.byte	0x8d
 643 0107 03       		.uleb128 0x3
 644 0108 8B       		.byte	0x8b
 645 0109 04       		.uleb128 0x4
 646 010a 44       		.byte	0x4
 647              		.4byte	.LCFI29-.LCFI28
 648 010b 0C       		.byte	0xc
 649 010c 0B       		.uleb128 0xb
 650 010d 04       		.uleb128 0x4
 651 010e 0000     		.align	2
 652              	.LEFDE14:
 653              		.text
 654              	.Letext0:
 655              		.section	.debug_loc,"",%progbits
 656              	.Ldebug_loc0:
 657              	.LLST0:
 658 0000 00000000 		.4byte	.LFB2-.Ltext0
 659 0004 04000000 		.4byte	.LCFI0-.Ltext0
 660 0008 0100     		.2byte	0x1
 661 000a 5D       		.byte	0x5d
 662 000b 04000000 		.4byte	.LCFI0-.Ltext0
 663 000f 0C000000 		.4byte	.LCFI2-.Ltext0
 664 0013 0100     		.2byte	0x1
 665 0015 5C       		.byte	0x5c
 666 0016 0C000000 		.4byte	.LCFI2-.Ltext0
 667 001a 28000000 		.4byte	.LFE2-.Ltext0
 668 001e 0200     		.2byte	0x2
 669 0020 7B       		.byte	0x7b
 670 0021 04       		.sleb128 4
 671 0022 00000000 		.4byte	0x0
 672 0026 00000000 		.4byte	0x0
 673              	.LLST1:
 674 002a 28000000 		.4byte	.LFB3-.Ltext0
 675 002e 2C000000 		.4byte	.LCFI4-.Ltext0
 676 0032 0100     		.2byte	0x1
 677 0034 5D       		.byte	0x5d
 678 0035 2C000000 		.4byte	.LCFI4-.Ltext0
 679 0039 34000000 		.4byte	.LCFI6-.Ltext0
 680 003d 0100     		.2byte	0x1
 681 003f 5C       		.byte	0x5c
 682 0040 34000000 		.4byte	.LCFI6-.Ltext0
 683 0044 60000000 		.4byte	.LFE3-.Ltext0
 684 0048 0200     		.2byte	0x2
 685 004a 7B       		.byte	0x7b
 686 004b 04       		.sleb128 4
 687 004c 00000000 		.4byte	0x0
ARM GAS  /cygdrive/c/DOCUME~1/deforce/LOKALA~1/Temp/ccbv526R.s 			page 15


 688 0050 00000000 		.4byte	0x0
 689              	.LLST2:
 690 0054 60000000 		.4byte	.LFB4-.Ltext0
 691 0058 64000000 		.4byte	.LCFI8-.Ltext0
 692 005c 0100     		.2byte	0x1
 693 005e 5D       		.byte	0x5d
 694 005f 64000000 		.4byte	.LCFI8-.Ltext0
 695 0063 6C000000 		.4byte	.LCFI10-.Ltext0
 696 0067 0100     		.2byte	0x1
 697 0069 5C       		.byte	0x5c
 698 006a 6C000000 		.4byte	.LCFI10-.Ltext0
 699 006e AC000000 		.4byte	.LFE4-.Ltext0
 700 0072 0200     		.2byte	0x2
 701 0074 7B       		.byte	0x7b
 702 0075 04       		.sleb128 4
 703 0076 00000000 		.4byte	0x0
 704 007a 00000000 		.4byte	0x0
 705              	.LLST3:
 706 007e AC000000 		.4byte	.LFB5-.Ltext0
 707 0082 B0000000 		.4byte	.LCFI12-.Ltext0
 708 0086 0100     		.2byte	0x1
 709 0088 5D       		.byte	0x5d
 710 0089 B0000000 		.4byte	.LCFI12-.Ltext0
 711 008d B8000000 		.4byte	.LCFI14-.Ltext0
 712 0091 0100     		.2byte	0x1
 713 0093 5C       		.byte	0x5c
 714 0094 B8000000 		.4byte	.LCFI14-.Ltext0
 715 0098 00010000 		.4byte	.LFE5-.Ltext0
 716 009c 0200     		.2byte	0x2
 717 009e 7B       		.byte	0x7b
 718 009f 04       		.sleb128 4
 719 00a0 00000000 		.4byte	0x0
 720 00a4 00000000 		.4byte	0x0
 721              	.LLST4:
 722 00a8 00010000 		.4byte	.LFB6-.Ltext0
 723 00ac 04010000 		.4byte	.LCFI16-.Ltext0
 724 00b0 0100     		.2byte	0x1
 725 00b2 5D       		.byte	0x5d
 726 00b3 04010000 		.4byte	.LCFI16-.Ltext0
 727 00b7 0C010000 		.4byte	.LCFI18-.Ltext0
 728 00bb 0100     		.2byte	0x1
 729 00bd 5C       		.byte	0x5c
 730 00be 0C010000 		.4byte	.LCFI18-.Ltext0
 731 00c2 B0010000 		.4byte	.LFE6-.Ltext0
 732 00c6 0200     		.2byte	0x2
 733 00c8 7B       		.byte	0x7b
 734 00c9 04       		.sleb128 4
 735 00ca 00000000 		.4byte	0x0
 736 00ce 00000000 		.4byte	0x0
 737              	.LLST5:
 738 00d2 B0010000 		.4byte	.LFB7-.Ltext0
 739 00d6 B4010000 		.4byte	.LCFI20-.Ltext0
 740 00da 0100     		.2byte	0x1
 741 00dc 5D       		.byte	0x5d
 742 00dd B4010000 		.4byte	.LCFI20-.Ltext0
 743 00e1 BC010000 		.4byte	.LCFI22-.Ltext0
 744 00e5 0100     		.2byte	0x1
ARM GAS  /cygdrive/c/DOCUME~1/deforce/LOKALA~1/Temp/ccbv526R.s 			page 16


 745 00e7 5C       		.byte	0x5c
 746 00e8 BC010000 		.4byte	.LCFI22-.Ltext0
 747 00ec 38020000 		.4byte	.LFE7-.Ltext0
 748 00f0 0200     		.2byte	0x2
 749 00f2 7B       		.byte	0x7b
 750 00f3 04       		.sleb128 4
 751 00f4 00000000 		.4byte	0x0
 752 00f8 00000000 		.4byte	0x0
 753              	.LLST6:
 754 00fc 38020000 		.4byte	.LFB8-.Ltext0
 755 0100 3C020000 		.4byte	.LCFI24-.Ltext0
 756 0104 0100     		.2byte	0x1
 757 0106 5D       		.byte	0x5d
 758 0107 3C020000 		.4byte	.LCFI24-.Ltext0
 759 010b 44020000 		.4byte	.LCFI26-.Ltext0
 760 010f 0100     		.2byte	0x1
 761 0111 5C       		.byte	0x5c
 762 0112 44020000 		.4byte	.LCFI26-.Ltext0
 763 0116 18030000 		.4byte	.LFE8-.Ltext0
 764 011a 0200     		.2byte	0x2
 765 011c 7B       		.byte	0x7b
 766 011d 04       		.sleb128 4
 767 011e 00000000 		.4byte	0x0
 768 0122 00000000 		.4byte	0x0
 769              	.LLST7:
 770 0126 18030000 		.4byte	.LFB9-.Ltext0
 771 012a 1C030000 		.4byte	.LCFI27-.Ltext0
 772 012e 0100     		.2byte	0x1
 773 0130 5D       		.byte	0x5d
 774 0131 1C030000 		.4byte	.LCFI27-.Ltext0
 775 0135 24030000 		.4byte	.LCFI29-.Ltext0
 776 0139 0100     		.2byte	0x1
 777 013b 5C       		.byte	0x5c
 778 013c 24030000 		.4byte	.LCFI29-.Ltext0
 779 0140 00040000 		.4byte	.LFE9-.Ltext0
 780 0144 0200     		.2byte	0x2
 781 0146 7B       		.byte	0x7b
 782 0147 04       		.sleb128 4
 783 0148 00000000 		.4byte	0x0
 784 014c 00000000 		.4byte	0x0
 785              		.section	.debug_info
 786 0000 C8010000 		.4byte	0x1c8
 787 0004 0200     		.2byte	0x2
 788 0006 00000000 		.4byte	.Ldebug_abbrev0
 789 000a 04       		.byte	0x4
 790 000b 01       		.uleb128 0x1
 791 000c 00000000 		.4byte	.Ldebug_line0
 792 0010 00040000 		.4byte	.Letext0
 793 0014 00000000 		.4byte	.Ltext0
 794 0018 474E5520 		.ascii	"GNU C 4.1.1\000"
 794      4320342E 
 794      312E3100 
 795 0024 01       		.byte	0x1
 796 0025 4C43442E 		.ascii	"LCD.c\000"
 796      6300
 797 002b 2F637967 		.ascii	"/cygdrive/c/armprojects/projekt/Project12/LCD\000"
 797      64726976 
ARM GAS  /cygdrive/c/DOCUME~1/deforce/LOKALA~1/Temp/ccbv526R.s 			page 17


 797      652F632F 
 797      61726D70 
 797      726F6A65 
 798 0059 02       		.uleb128 0x2
 799 005a 86000000 		.4byte	0x86
 800 005e 01       		.byte	0x1
 801 005f 64656C61 		.ascii	"delay\000"
 801      7900
 802 0065 01       		.byte	0x1
 803 0066 17       		.byte	0x17
 804 0067 01       		.byte	0x1
 805 0068 00000000 		.4byte	.LFB2
 806 006c 28000000 		.4byte	.LFE2
 807 0070 00000000 		.4byte	.LLST0
 808 0074 03       		.uleb128 0x3
 809 0075 70756C73 		.ascii	"pulses\000"
 809      657300
 810 007c 01       		.byte	0x1
 811 007d 17       		.byte	0x17
 812 007e 86000000 		.4byte	0x86
 813 0082 02       		.byte	0x2
 814 0083 91       		.byte	0x91
 815 0084 6C       		.sleb128 -20
 816 0085 00       		.byte	0x0
 817 0086 04       		.uleb128 0x4
 818 0087 6C6F6E67 		.ascii	"long int\000"
 818      20696E74 
 818      00
 819 0090 04       		.byte	0x4
 820 0091 05       		.byte	0x5
 821 0092 02       		.uleb128 0x2
 822 0093 C2000000 		.4byte	0xc2
 823 0097 01       		.byte	0x1
 824 0098 64656C61 		.ascii	"delay_mikros\000"
 824      795F6D69 
 824      6B726F73 
 824      00
 825 00a5 01       		.byte	0x1
 826 00a6 1C       		.byte	0x1c
 827 00a7 01       		.byte	0x1
 828 00a8 28000000 		.4byte	.LFB3
 829 00ac 60000000 		.4byte	.LFE3
 830 00b0 2A000000 		.4byte	.LLST1
 831 00b4 03       		.uleb128 0x3
 832 00b5 757300   		.ascii	"us\000"
 833 00b8 01       		.byte	0x1
 834 00b9 1C       		.byte	0x1c
 835 00ba 86000000 		.4byte	0x86
 836 00be 02       		.byte	0x2
 837 00bf 91       		.byte	0x91
 838 00c0 6C       		.sleb128 -20
 839 00c1 00       		.byte	0x0
 840 00c2 02       		.uleb128 0x2
 841 00c3 F2000000 		.4byte	0xf2
 842 00c7 01       		.byte	0x1
 843 00c8 64656C61 		.ascii	"delay_millis\000"
 843      795F6D69 
ARM GAS  /cygdrive/c/DOCUME~1/deforce/LOKALA~1/Temp/ccbv526R.s 			page 18


 843      6C6C6973 
 843      00
 844 00d5 01       		.byte	0x1
 845 00d6 20       		.byte	0x20
 846 00d7 01       		.byte	0x1
 847 00d8 60000000 		.4byte	.LFB4
 848 00dc AC000000 		.4byte	.LFE4
 849 00e0 54000000 		.4byte	.LLST2
 850 00e4 03       		.uleb128 0x3
 851 00e5 6D7300   		.ascii	"ms\000"
 852 00e8 01       		.byte	0x1
 853 00e9 20       		.byte	0x20
 854 00ea 86000000 		.4byte	0x86
 855 00ee 02       		.byte	0x2
 856 00ef 91       		.byte	0x91
 857 00f0 6C       		.sleb128 -20
 858 00f1 00       		.byte	0x0
 859 00f2 02       		.uleb128 0x2
 860 00f3 22010000 		.4byte	0x122
 861 00f7 01       		.byte	0x1
 862 00f8 64656C61 		.ascii	"delay_secs\000"
 862      795F7365 
 862      637300
 863 0103 01       		.byte	0x1
 864 0104 24       		.byte	0x24
 865 0105 01       		.byte	0x1
 866 0106 AC000000 		.4byte	.LFB5
 867 010a 00010000 		.4byte	.LFE5
 868 010e 7E000000 		.4byte	.LLST3
 869 0112 03       		.uleb128 0x3
 870 0113 73656373 		.ascii	"secs\000"
 870      00
 871 0118 01       		.byte	0x1
 872 0119 24       		.byte	0x24
 873 011a 86000000 		.4byte	0x86
 874 011e 02       		.byte	0x2
 875 011f 91       		.byte	0x91
 876 0120 6C       		.sleb128 -20
 877 0121 00       		.byte	0x0
 878 0122 02       		.uleb128 0x2
 879 0123 5F010000 		.4byte	0x15f
 880 0127 01       		.byte	0x1
 881 0128 73656E64 		.ascii	"send_instruction\000"
 881      5F696E73 
 881      74727563 
 881      74696F6E 
 881      00
 882 0139 01       		.byte	0x1
 883 013a 31       		.byte	0x31
 884 013b 01       		.byte	0x1
 885 013c 00010000 		.4byte	.LFB6
 886 0140 B0010000 		.4byte	.LFE6
 887 0144 A8000000 		.4byte	.LLST4
 888 0148 03       		.uleb128 0x3
 889 0149 696E7374 		.ascii	"instruction\000"
 889      72756374 
 889      696F6E00 
ARM GAS  /cygdrive/c/DOCUME~1/deforce/LOKALA~1/Temp/ccbv526R.s 			page 19


 890 0155 01       		.byte	0x1
 891 0156 30       		.byte	0x30
 892 0157 86000000 		.4byte	0x86
 893 015b 02       		.byte	0x2
 894 015c 91       		.byte	0x91
 895 015d 6C       		.sleb128 -20
 896 015e 00       		.byte	0x0
 897 015f 02       		.uleb128 0x2
 898 0160 98010000 		.4byte	0x198
 899 0164 01       		.byte	0x1
 900 0165 73656E64 		.ascii	"send_character\000"
 900      5F636861 
 900      72616374 
 900      657200
 901 0174 01       		.byte	0x1
 902 0175 3F       		.byte	0x3f
 903 0176 01       		.byte	0x1
 904 0177 B0010000 		.4byte	.LFB7
 905 017b 38020000 		.4byte	.LFE7
 906 017f D2000000 		.4byte	.LLST5
 907 0183 03       		.uleb128 0x3
 908 0184 63686172 		.ascii	"character\000"
 908      61637465 
 908      7200
 909 018e 01       		.byte	0x1
 910 018f 3E       		.byte	0x3e
 911 0190 86000000 		.4byte	0x86
 912 0194 02       		.byte	0x2
 913 0195 91       		.byte	0x91
 914 0196 6C       		.sleb128 -20
 915 0197 00       		.byte	0x0
 916 0198 05       		.uleb128 0x5
 917 0199 01       		.byte	0x1
 918 019a 77616974 		.ascii	"wait_BF\000"
 918      5F424600 
 919 01a2 01       		.byte	0x1
 920 01a3 49       		.byte	0x49
 921 01a4 01       		.byte	0x1
 922 01a5 38020000 		.4byte	.LFB8
 923 01a9 18030000 		.4byte	.LFE8
 924 01ad FC000000 		.4byte	.LLST6
 925 01b1 05       		.uleb128 0x5
 926 01b2 01       		.byte	0x1
 927 01b3 696E6974 		.ascii	"init_LCD\000"
 927      5F4C4344 
 927      00
 928 01bc 01       		.byte	0x1
 929 01bd 5B       		.byte	0x5b
 930 01be 01       		.byte	0x1
 931 01bf 18030000 		.4byte	.LFB9
 932 01c3 00040000 		.4byte	.LFE9
 933 01c7 26010000 		.4byte	.LLST7
 934 01cb 00       		.byte	0x0
 935              		.section	.debug_abbrev
 936 0000 01       		.uleb128 0x1
 937 0001 11       		.uleb128 0x11
 938 0002 01       		.byte	0x1
ARM GAS  /cygdrive/c/DOCUME~1/deforce/LOKALA~1/Temp/ccbv526R.s 			page 20


 939 0003 10       		.uleb128 0x10
 940 0004 06       		.uleb128 0x6
 941 0005 12       		.uleb128 0x12
 942 0006 01       		.uleb128 0x1
 943 0007 11       		.uleb128 0x11
 944 0008 01       		.uleb128 0x1
 945 0009 25       		.uleb128 0x25
 946 000a 08       		.uleb128 0x8
 947 000b 13       		.uleb128 0x13
 948 000c 0B       		.uleb128 0xb
 949 000d 03       		.uleb128 0x3
 950 000e 08       		.uleb128 0x8
 951 000f 1B       		.uleb128 0x1b
 952 0010 08       		.uleb128 0x8
 953 0011 00       		.byte	0x0
 954 0012 00       		.byte	0x0
 955 0013 02       		.uleb128 0x2
 956 0014 2E       		.uleb128 0x2e
 957 0015 01       		.byte	0x1
 958 0016 01       		.uleb128 0x1
 959 0017 13       		.uleb128 0x13
 960 0018 3F       		.uleb128 0x3f
 961 0019 0C       		.uleb128 0xc
 962 001a 03       		.uleb128 0x3
 963 001b 08       		.uleb128 0x8
 964 001c 3A       		.uleb128 0x3a
 965 001d 0B       		.uleb128 0xb
 966 001e 3B       		.uleb128 0x3b
 967 001f 0B       		.uleb128 0xb
 968 0020 27       		.uleb128 0x27
 969 0021 0C       		.uleb128 0xc
 970 0022 11       		.uleb128 0x11
 971 0023 01       		.uleb128 0x1
 972 0024 12       		.uleb128 0x12
 973 0025 01       		.uleb128 0x1
 974 0026 40       		.uleb128 0x40
 975 0027 06       		.uleb128 0x6
 976 0028 00       		.byte	0x0
 977 0029 00       		.byte	0x0
 978 002a 03       		.uleb128 0x3
 979 002b 05       		.uleb128 0x5
 980 002c 00       		.byte	0x0
 981 002d 03       		.uleb128 0x3
 982 002e 08       		.uleb128 0x8
 983 002f 3A       		.uleb128 0x3a
 984 0030 0B       		.uleb128 0xb
 985 0031 3B       		.uleb128 0x3b
 986 0032 0B       		.uleb128 0xb
 987 0033 49       		.uleb128 0x49
 988 0034 13       		.uleb128 0x13
 989 0035 02       		.uleb128 0x2
 990 0036 0A       		.uleb128 0xa
 991 0037 00       		.byte	0x0
 992 0038 00       		.byte	0x0
 993 0039 04       		.uleb128 0x4
 994 003a 24       		.uleb128 0x24
 995 003b 00       		.byte	0x0
ARM GAS  /cygdrive/c/DOCUME~1/deforce/LOKALA~1/Temp/ccbv526R.s 			page 21


 996 003c 03       		.uleb128 0x3
 997 003d 08       		.uleb128 0x8
 998 003e 0B       		.uleb128 0xb
 999 003f 0B       		.uleb128 0xb
 1000 0040 3E       		.uleb128 0x3e
 1001 0041 0B       		.uleb128 0xb
 1002 0042 00       		.byte	0x0
 1003 0043 00       		.byte	0x0
 1004 0044 05       		.uleb128 0x5
 1005 0045 2E       		.uleb128 0x2e
 1006 0046 00       		.byte	0x0
 1007 0047 3F       		.uleb128 0x3f
 1008 0048 0C       		.uleb128 0xc
 1009 0049 03       		.uleb128 0x3
 1010 004a 08       		.uleb128 0x8
 1011 004b 3A       		.uleb128 0x3a
 1012 004c 0B       		.uleb128 0xb
 1013 004d 3B       		.uleb128 0x3b
 1014 004e 0B       		.uleb128 0xb
 1015 004f 27       		.uleb128 0x27
 1016 0050 0C       		.uleb128 0xc
 1017 0051 11       		.uleb128 0x11
 1018 0052 01       		.uleb128 0x1
 1019 0053 12       		.uleb128 0x12
 1020 0054 01       		.uleb128 0x1
 1021 0055 40       		.uleb128 0x40
 1022 0056 06       		.uleb128 0x6
 1023 0057 00       		.byte	0x0
 1024 0058 00       		.byte	0x0
 1025 0059 00       		.byte	0x0
 1026              		.section	.debug_pubnames,"",%progbits
 1027 0000 8A000000 		.4byte	0x8a
 1028 0004 0200     		.2byte	0x2
 1029 0006 00000000 		.4byte	.Ldebug_info0
 1030 000a CC010000 		.4byte	0x1cc
 1031 000e 59000000 		.4byte	0x59
 1032 0012 64656C61 		.ascii	"delay\000"
 1032      7900
 1033 0018 92000000 		.4byte	0x92
 1034 001c 64656C61 		.ascii	"delay_mikros\000"
 1034      795F6D69 
 1034      6B726F73 
 1034      00
 1035 0029 C2000000 		.4byte	0xc2
 1036 002d 64656C61 		.ascii	"delay_millis\000"
 1036      795F6D69 
 1036      6C6C6973 
 1036      00
 1037 003a F2000000 		.4byte	0xf2
 1038 003e 64656C61 		.ascii	"delay_secs\000"
 1038      795F7365 
 1038      637300
 1039 0049 22010000 		.4byte	0x122
 1040 004d 73656E64 		.ascii	"send_instruction\000"
 1040      5F696E73 
 1040      74727563 
 1040      74696F6E 
ARM GAS  /cygdrive/c/DOCUME~1/deforce/LOKALA~1/Temp/ccbv526R.s 			page 22


 1040      00
 1041 005e 5F010000 		.4byte	0x15f
 1042 0062 73656E64 		.ascii	"send_character\000"
 1042      5F636861 
 1042      72616374 
 1042      657200
 1043 0071 98010000 		.4byte	0x198
 1044 0075 77616974 		.ascii	"wait_BF\000"
 1044      5F424600 
 1045 007d B1010000 		.4byte	0x1b1
 1046 0081 696E6974 		.ascii	"init_LCD\000"
 1046      5F4C4344 
 1046      00
 1047 008a 00000000 		.4byte	0x0
 1048              		.section	.debug_aranges,"",%progbits
 1049 0000 1C000000 		.4byte	0x1c
 1050 0004 0200     		.2byte	0x2
 1051 0006 00000000 		.4byte	.Ldebug_info0
 1052 000a 04       		.byte	0x4
 1053 000b 00       		.byte	0x0
 1054 000c 0000     		.2byte	0x0
 1055 000e 0000     		.2byte	0x0
 1056 0010 00000000 		.4byte	.Ltext0
 1057 0014 00040000 		.4byte	.Letext0-.Ltext0
 1058 0018 00000000 		.4byte	0x0
 1059 001c 00000000 		.4byte	0x0
 1060              		.ident	"GCC: (GNU) 4.1.1"
ARM GAS  /cygdrive/c/DOCUME~1/deforce/LOKALA~1/Temp/ccbv526R.s 			page 23


DEFINED SYMBOLS
                            *ABS*:00000000 LCD.c
/cygdrive/c/DOCUME~1/deforce/LOKALA~1/Temp/ccbv526R.s:13     .text:00000000 delay
/cygdrive/c/DOCUME~1/deforce/LOKALA~1/Temp/ccbv526R.s:20     .text:00000000 $a
/cygdrive/c/DOCUME~1/deforce/LOKALA~1/Temp/ccbv526R.s:30     .text:00000014 wait
/cygdrive/c/DOCUME~1/deforce/LOKALA~1/Temp/ccbv526R.s:42     .text:00000028 delay_mikros
/cygdrive/c/DOCUME~1/deforce/LOKALA~1/Temp/ccbv526R.s:73     .text:00000060 delay_millis
/cygdrive/c/DOCUME~1/deforce/LOKALA~1/Temp/ccbv526R.s:109    .text:000000ac delay_secs
/cygdrive/c/DOCUME~1/deforce/LOKALA~1/Temp/ccbv526R.s:147    .text:00000100 send_instruction
/cygdrive/c/DOCUME~1/deforce/LOKALA~1/Temp/ccbv526R.s:217    .text:000001b0 send_character
/cygdrive/c/DOCUME~1/deforce/LOKALA~1/Temp/ccbv526R.s:272    .text:00000238 wait_BF
/cygdrive/c/DOCUME~1/deforce/LOKALA~1/Temp/ccbv526R.s:353    .text:00000318 init_LCD

NO UNDEFINED SYMBOLS
