ARM GAS  /cygdrive/c/DOCUME~1/deforce/LOKALA~1/Temp/ccbv526R.s 			page 1


   1              		.file	"LCD.c"
   8 0000 73000000 		.text
   8      02001C00 
   8      00000201 
   8      FB0E0D00 
   8      01010101 
   9              	.Ltext0:
  10              		.align	2
  11              		.global	delay
  12              		.type	delay, %function
  13              	delay:
  14              	.LFB2:
  15              		.file 1 "LCD.c"
   1:LCD.c         **** /**********************************************************************************************
   2:LCD.c         ****  *
   3:LCD.c         ****  *	LCD.c
   4:LCD.c         ****  *	111031 TA
   5:LCD.c         ****  *
   6:LCD.c         ****  * 	Jonas LCD-rutiner med vissa justeringar
   7:LCD.c         ****  *
   8:LCD.c         ****  *
   9:LCD.c         ****  *  Makefilen i mappen LCD generar lib_LDC.a i ARM-format, behövs pga asm instruktionerna i delay
  10:LCD.c         ****  *
  11:LCD.c         ****  ************************************************************************************************/
  12:LCD.c         **** 
  13:LCD.c         **** 
  14:LCD.c         **** 
  15:LCD.c         **** 
  16:LCD.c         **** #include "../startup/lpc2xxx.h"
  17:LCD.c         **** 
  18:LCD.c         **** /* Med CCLK=60 MHz ger denna rutin en delay på pulses*66,666 ns + anropstiden */
  19:LCD.c         **** 
  20:LCD.c         **** /***************************************************
  21:LCD.c         ****  * Delay functions
  22:LCD.c         ****  ***************************************************/
  23:LCD.c         **** void delay(long pulses) {               // pulses is stored in R0 when this function is called
  16              		.loc 1 23 0
  17              		@ Function supports interworking.
  18              		@ args = 0, pretend = 0, frame = 4
  19              		@ frame_needed = 1, uses_anonymous_args = 0
  20 0000 0DC0A0E1 		mov	ip, sp
  21              	.LCFI0:
  22 0004 00D82DE9 		stmfd	sp!, {fp, ip, lr, pc}
  23              	.LCFI1:
  24 0008 04B04CE2 		sub	fp, ip, #4
  25              	.LCFI2:
  26 000c 04D04DE2 		sub	sp, sp, #4
  27              	.LCFI3:
  28 0010 10000BE5 		str	r0, [fp, #-16]
  24:LCD.c         **** 	asm("wait:   SUBS R0, R0, #1");     // the label "wait" is declared, decrements the contents of R0
  29              		.loc 1 24 0
ARM GAS  /cygdrive/c/DOCUME~1/deforce/LOKALA~1/Temp/ccbv526R.s 			page 2


  30 0014 010050E2 		wait:   SUBS R0, R0, #1
  25:LCD.c         **** 	asm("BNE wait");                    // branches to the label "wait" unless the contents of R0 equa
  31              		.loc 1 25 0
  32 0018 FDFFFF1A 		BNE wait
  26:LCD.c         **** }
  33              		.loc 1 26 0
  34 001c 0CD04BE2 		sub	sp, fp, #12
  35 0020 00689DE8 		ldmfd	sp, {fp, sp, lr}
  36 0024 1EFF2FE1 		bx	lr
  37              	.LFE2:
  38              		.size	delay, .-delay
  39              		.align	2
  40              		.global	delay_mikros
  41              		.type	delay_mikros, %function
  42              	delay_mikros:
  43              	.LFB3:
  27:LCD.c         **** 
  28:LCD.c         **** void delay_mikros(long us) {            // delays by the provided parameter (in mikroseconds)
  44              		.loc 1 28 0
  45              		@ Function supports interworking.
  46              		@ args = 0, pretend = 0, frame = 4
  47              		@ frame_needed = 1, uses_anonymous_args = 0
  48 0028 0DC0A0E1 		mov	ip, sp
  49              	.LCFI4:
  50 002c 00D82DE9 		stmfd	sp!, {fp, ip, lr, pc}
  51              	.LCFI5:
  52 0030 04B04CE2 		sub	fp, ip, #4
  53              	.LCFI6:
  54 0034 04D04DE2 		sub	sp, sp, #4
  55              	.LCFI7:
  56 0038 10000BE5 		str	r0, [fp, #-16]
  29:LCD.c         ****     delay(us*15);
  57              		.loc 1 29 0
  58 003c 10301BE5 		ldr	r3, [fp, #-16]
  59 0040 0320A0E1 		mov	r2, r3
  60 0044 0222A0E1 		mov	r2, r2, asl #4
  61 0048 023063E0 		rsb	r3, r3, r2
  62 004c 0300A0E1 		mov	r0, r3
  63 0050 FEFFFFEB 		bl	delay
  30:LCD.c         **** }
  64              		.loc 1 30 0
  65 0054 0CD04BE2 		sub	sp, fp, #12
  66 0058 00689DE8 		ldmfd	sp, {fp, sp, lr}
  67 005c 1EFF2FE1 		bx	lr
  68              	.LFE3:
  69              		.size	delay_mikros, .-delay_mikros
  70              		.align	2
  71              		.global	delay_millis
  72              		.type	delay_millis, %function
  73              	delay_millis:
  74              	.LFB4:
  31:LCD.c         **** 
  32:LCD.c         **** void delay_millis(long ms) {            // delays by the provided parameter (in milliseconds)
  75              		.loc 1 32 0
  76              		@ Function supports interworking.
  77              		@ args = 0, pretend = 0, frame = 4
  78              		@ frame_needed = 1, uses_anonymous_args = 0
ARM GAS  /cygdrive/c/DOCUME~1/deforce/LOKALA~1/Temp/ccbv526R.s 			page 3


  79 0060 0DC0A0E1 		mov	ip, sp
  80              	.LCFI8:
  81 0064 00D82DE9 		stmfd	sp!, {fp, ip, lr, pc}
  82              	.LCFI9:
  83 0068 04B04CE2 		sub	fp, ip, #4
  84              	.LCFI10:
  85 006c 04D04DE2 		sub	sp, sp, #4
  86              	.LCFI11:
  87 0070 10000BE5 		str	r0, [fp, #-16]
  33:LCD.c         ****     delay(ms*15000);
  88              		.loc 1 33 0
  89 0074 10201BE5 		ldr	r2, [fp, #-16]
  90 0078 0230A0E1 		mov	r3, r2
  91 007c 8332A0E1 		mov	r3, r3, asl #5
  92 0080 033062E0 		rsb	r3, r2, r3
  93 0084 0331A0E1 		mov	r3, r3, asl #2
  94 0088 023083E0 		add	r3, r3, r2
  95 008c 0322A0E1 		mov	r2, r3, asl #4
  96 0090 022063E0 		rsb	r2, r3, r2
  97 0094 8231A0E1 		mov	r3, r2, asl #3
  98 0098 0300A0E1 		mov	r0, r3
  99 009c FEFFFFEB 		bl	delay
  34:LCD.c         **** }
 100              		.loc 1 34 0
 101 00a0 0CD04BE2 		sub	sp, fp, #12
 102 00a4 00689DE8 		ldmfd	sp, {fp, sp, lr}
 103 00a8 1EFF2FE1 		bx	lr
 104              	.LFE4:
 105              		.size	delay_millis, .-delay_millis
 106              		.align	2
 107              		.global	delay_secs
 108              		.type	delay_secs, %function
 109              	delay_secs:
 110              	.LFB5:
  35:LCD.c         **** 
  36:LCD.c         **** void delay_secs(long secs) {              // delays by the provided parameter (in seconds)
 111              		.loc 1 36 0
 112              		@ Function supports interworking.
 113              		@ args = 0, pretend = 0, frame = 4
 114              		@ frame_needed = 1, uses_anonymous_args = 0
 115 00ac 0DC0A0E1 		mov	ip, sp
 116              	.LCFI12:
 117 00b0 00D82DE9 		stmfd	sp!, {fp, ip, lr, pc}
 118              	.LCFI13:
 119 00b4 04B04CE2 		sub	fp, ip, #4
 120              	.LCFI14:
 121 00b8 04D04DE2 		sub	sp, sp, #4
 122              	.LCFI15:
 123 00bc 10000BE5 		str	r0, [fp, #-16]
  37:LCD.c         ****     delay(secs*15000000);
 124              		.loc 1 37 0
 125 00c0 10101BE5 		ldr	r1, [fp, #-16]
 126 00c4 0120A0E1 		mov	r2, r1
 127 00c8 8222A0E1 		mov	r2, r2, asl #5
 128 00cc 022061E0 		rsb	r2, r1, r2
 129 00d0 0233A0E1 		mov	r3, r2, asl #6
 130 00d4 033062E0 		rsb	r3, r2, r3
ARM GAS  /cygdrive/c/DOCUME~1/deforce/LOKALA~1/Temp/ccbv526R.s 			page 4


 131 00d8 8331A0E1 		mov	r3, r3, asl #3
 132 00dc 013083E0 		add	r3, r3, r1
 133 00e0 0322A0E1 		mov	r2, r3, asl #4
 134 00e4 022063E0 		rsb	r2, r3, r2
 135 00e8 0233A0E1 		mov	r3, r2, asl #6
 136 00ec 0300A0E1 		mov	r0, r3
 137 00f0 FEFFFFEB 		bl	delay
  38:LCD.c         **** }
 138              		.loc 1 38 0
 139 00f4 0CD04BE2 		sub	sp, fp, #12
 140 00f8 00689DE8 		ldmfd	sp, {fp, sp, lr}
 141 00fc 1EFF2FE1 		bx	lr
 142              	.LFE5:
 143              		.size	delay_secs, .-delay_secs
 144              		.align	2
 145              		.global	send_instruction
 146              		.type	send_instruction, %function
 147              	send_instruction:
 148              	.LFB6:
  39:LCD.c         **** 
  40:LCD.c         **** 
  41:LCD.c         **** #define	data_pins	0x00FF0000		//P1.16-P1.23
  42:LCD.c         **** #define	RS	0x01000000		//P1.24
  43:LCD.c         **** #define	RW	0x00400000		//P0.22
  44:LCD.c         **** #define	E	0x02000000		//P1.25
  45:LCD.c         **** #define	backlight	0x40000000		//P0.30
  46:LCD.c         **** #define	BF	0x00800000
  47:LCD.c         **** 
  48:LCD.c         **** void send_instruction(long instruction)
  49:LCD.c         **** {
 149              		.loc 1 49 0
 150              		@ Function supports interworking.
 151              		@ args = 0, pretend = 0, frame = 4
 152              		@ frame_needed = 1, uses_anonymous_args = 0
 153 0100 0DC0A0E1 		mov	ip, sp
 154              	.LCFI16:
 155 0104 00D82DE9 		stmfd	sp!, {fp, ip, lr, pc}
 156              	.LCFI17:
 157 0108 04B04CE2 		sub	fp, ip, #4
 158              	.LCFI18:
 159 010c 04D04DE2 		sub	sp, sp, #4
 160              	.LCFI19:
 161 0110 10000BE5 		str	r0, [fp, #-16]
  50:LCD.c         **** 	delay(100);
 162              		.loc 1 50 0
 163 0114 6400A0E3 		mov	r0, #100
 164 0118 FEFFFFEB 		bl	delay
  51:LCD.c         **** 	IOCLR1 = RS;		//send instruction
 165              		.loc 1 51 0
 166 011c 0E32A0E3 		mov	r3, #-536870912
 167 0120 0A3983E2 		add	r3, r3, #163840
 168 0124 1C3083E2 		add	r3, r3, #28
 169 0128 0124A0E3 		mov	r2, #16777216
 170 012c 002083E5 		str	r2, [r3, #0]
  52:LCD.c         **** 	delay(100);
 171              		.loc 1 52 0
 172 0130 6400A0E3 		mov	r0, #100
ARM GAS  /cygdrive/c/DOCUME~1/deforce/LOKALA~1/Temp/ccbv526R.s 			page 5


 173 0134 FEFFFFEB 		bl	delay
  53:LCD.c         **** 	IOSET1 = E;			//start a write pulse
 174              		.loc 1 53 0
 175 0138 0E32A0E3 		mov	r3, #-536870912
 176 013c 0A3983E2 		add	r3, r3, #163840
 177 0140 143083E2 		add	r3, r3, #20
 178 0144 0224A0E3 		mov	r2, #33554432
 179 0148 002083E5 		str	r2, [r3, #0]
  54:LCD.c         **** 	delay(100);
 180              		.loc 1 54 0
 181 014c 6400A0E3 		mov	r0, #100
 182 0150 FEFFFFEB 		bl	delay
  55:LCD.c         **** 	IOCLR1 = data_pins;		//set p1.16-P1.23 to 0
 183              		.loc 1 55 0
 184 0154 0E32A0E3 		mov	r3, #-536870912
 185 0158 0A3983E2 		add	r3, r3, #163840
 186 015c 1C3083E2 		add	r3, r3, #28
 187 0160 FF28A0E3 		mov	r2, #16711680
 188 0164 002083E5 		str	r2, [r3, #0]
  56:LCD.c         **** 	delay(100);
 189              		.loc 1 56 0
 190 0168 6400A0E3 		mov	r0, #100
 191 016c FEFFFFEB 		bl	delay
  57:LCD.c         **** 	IOSET1 = instruction<<16;
 192              		.loc 1 57 0
 193 0170 0E32A0E3 		mov	r3, #-536870912
 194 0174 0A3983E2 		add	r3, r3, #163840
 195 0178 143083E2 		add	r3, r3, #20
 196 017c 10201BE5 		ldr	r2, [fp, #-16]
 197 0180 0228A0E1 		mov	r2, r2, asl #16
 198 0184 002083E5 		str	r2, [r3, #0]
  58:LCD.c         **** 	delay(100);
 199              		.loc 1 58 0
 200 0188 6400A0E3 		mov	r0, #100
 201 018c FEFFFFEB 		bl	delay
  59:LCD.c         **** 	IOCLR1 = E;			//end write pulse
 202              		.loc 1 59 0
 203 0190 0E32A0E3 		mov	r3, #-536870912
 204 0194 0A3983E2 		add	r3, r3, #163840
 205 0198 1C3083E2 		add	r3, r3, #28
 206 019c 0224A0E3 		mov	r2, #33554432
 207 01a0 002083E5 		str	r2, [r3, #0]
  60:LCD.c         **** }
 208              		.loc 1 60 0
 209 01a4 0CD04BE2 		sub	sp, fp, #12
 210 01a8 00689DE8 		ldmfd	sp, {fp, sp, lr}
 211 01ac 1EFF2FE1 		bx	lr
 212              	.LFE6:
 213              		.size	send_instruction, .-send_instruction
 214              		.align	2
 215              		.global	send_character
 216              		.type	send_character, %function
 217              	send_character:
 218              	.LFB7:
  61:LCD.c         **** 
  62:LCD.c         **** void send_character(long character)
  63:LCD.c         **** {
ARM GAS  /cygdrive/c/DOCUME~1/deforce/LOKALA~1/Temp/ccbv526R.s 			page 6


 219              		.loc 1 63 0
 220              		@ Function supports interworking.
 221              		@ args = 0, pretend = 0, frame = 4
 222              		@ frame_needed = 1, uses_anonymous_args = 0
 223 01b0 0DC0A0E1 		mov	ip, sp
 224              	.LCFI20:
 225 01b4 00D82DE9 		stmfd	sp!, {fp, ip, lr, pc}
 226              	.LCFI21:
 227 01b8 04B04CE2 		sub	fp, ip, #4
 228              	.LCFI22:
 229 01bc 04D04DE2 		sub	sp, sp, #4
 230              	.LCFI23:
 231 01c0 10000BE5 		str	r0, [fp, #-16]
  64:LCD.c         **** 	IOSET1 = RS;		//send character
 232              		.loc 1 64 0
 233 01c4 0E32A0E3 		mov	r3, #-536870912
 234 01c8 0A3983E2 		add	r3, r3, #163840
 235 01cc 143083E2 		add	r3, r3, #20
 236 01d0 0124A0E3 		mov	r2, #16777216
 237 01d4 002083E5 		str	r2, [r3, #0]
  65:LCD.c         **** 	IOSET1 = E;			//start a write pulse
 238              		.loc 1 65 0
 239 01d8 0E32A0E3 		mov	r3, #-536870912
 240 01dc 0A3983E2 		add	r3, r3, #163840
 241 01e0 143083E2 		add	r3, r3, #20
 242 01e4 0224A0E3 		mov	r2, #33554432
 243 01e8 002083E5 		str	r2, [r3, #0]
  66:LCD.c         **** 	IOCLR1 = data_pins;		//set p1.16-P1.23 to 0
 244              		.loc 1 66 0
 245 01ec 0E32A0E3 		mov	r3, #-536870912
 246 01f0 0A3983E2 		add	r3, r3, #163840
 247 01f4 1C3083E2 		add	r3, r3, #28
 248 01f8 FF28A0E3 		mov	r2, #16711680
 249 01fc 002083E5 		str	r2, [r3, #0]
  67:LCD.c         **** 	IOSET1 = character<<16;
 250              		.loc 1 67 0
 251 0200 0E32A0E3 		mov	r3, #-536870912
 252 0204 0A3983E2 		add	r3, r3, #163840
 253 0208 143083E2 		add	r3, r3, #20
 254 020c 10201BE5 		ldr	r2, [fp, #-16]
 255 0210 0228A0E1 		mov	r2, r2, asl #16
 256 0214 002083E5 		str	r2, [r3, #0]
  68:LCD.c         **** 	IOCLR1 = E;			//end write pulse
 257              		.loc 1 68 0
 258 0218 0E32A0E3 		mov	r3, #-536870912
 259 021c 0A3983E2 		add	r3, r3, #163840
 260 0220 1C3083E2 		add	r3, r3, #28
 261 0224 0224A0E3 		mov	r2, #33554432
 262 0228 002083E5 		str	r2, [r3, #0]
  69:LCD.c         **** }
 263              		.loc 1 69 0
 264 022c 0CD04BE2 		sub	sp, fp, #12
 265 0230 00689DE8 		ldmfd	sp, {fp, sp, lr}
 266 0234 1EFF2FE1 		bx	lr
 267              	.LFE7:
 268              		.size	send_character, .-send_character
 269              		.align	2
ARM GAS  /cygdrive/c/DOCUME~1/deforce/LOKALA~1/Temp/ccbv526R.s 			page 7


 270              		.global	wait_BF
 271              		.type	wait_BF, %function
 272              	wait_BF:
 273              	.LFB8:
  70:LCD.c         **** 
  71:LCD.c         **** // deprecated (do not use!)
  72:LCD.c         **** void wait_BF(void)
  73:LCD.c         **** {
 274              		.loc 1 73 0
 275              		@ Function supports interworking.
 276              		@ args = 0, pretend = 0, frame = 0
 277              		@ frame_needed = 1, uses_anonymous_args = 0
 278 0238 0DC0A0E1 		mov	ip, sp
 279              	.LCFI24:
 280 023c 00D82DE9 		stmfd	sp!, {fp, ip, lr, pc}
 281              	.LCFI25:
 282 0240 04B04CE2 		sub	fp, ip, #4
 283              	.LCFI26:
  74:LCD.c         **** //	IODIR1 |= BF;  alternativ lsg på kapacitansproblemet nedan
  75:LCD.c         **** //	IOSET1 = BF;
  76:LCD.c         **** 
  77:LCD.c         **** 	IOSET0 = RW;		//read from display
 284              		.loc 1 77 0
 285 0244 4E32A0E3 		mov	r3, #-536870908
 286 0248 0A3983E2 		add	r3, r3, #163840
 287 024c 0125A0E3 		mov	r2, #4194304
 288 0250 002083E5 		str	r2, [r3, #0]
  78:LCD.c         **** 	IODIR1 &= ~data_pins;		//make data_pins input
 289              		.loc 1 78 0
 290 0254 0E22A0E3 		mov	r2, #-536870912
 291 0258 0A2982E2 		add	r2, r2, #163840
 292 025c 182082E2 		add	r2, r2, #24
 293 0260 0E32A0E3 		mov	r3, #-536870912
 294 0264 0A3983E2 		add	r3, r3, #163840
 295 0268 183083E2 		add	r3, r3, #24
 296 026c 003093E5 		ldr	r3, [r3, #0]
 297 0270 FF38C3E3 		bic	r3, r3, #16711680
 298 0274 003082E5 		str	r3, [r2, #0]
  79:LCD.c         **** 	IOCLR1 = RS;		//read status
 299              		.loc 1 79 0
 300 0278 0E32A0E3 		mov	r3, #-536870912
 301 027c 0A3983E2 		add	r3, r3, #163840
 302 0280 1C3083E2 		add	r3, r3, #28
 303 0284 0124A0E3 		mov	r2, #16777216
 304 0288 002083E5 		str	r2, [r3, #0]
  80:LCD.c         **** 	IOSET1 = E;
 305              		.loc 1 80 0
 306 028c 0E32A0E3 		mov	r3, #-536870912
 307 0290 0A3983E2 		add	r3, r3, #163840
 308 0294 143083E2 		add	r3, r3, #20
 309 0298 0224A0E3 		mov	r2, #33554432
 310 029c 002083E5 		str	r2, [r3, #0]
  81:LCD.c         **** 	delay(2);			//behövs pga kapacitanser i flatkabel
 311              		.loc 1 81 0
 312 02a0 0200A0E3 		mov	r0, #2
 313 02a4 FEFFFFEB 		bl	delay
 314              	.L14:
ARM GAS  /cygdrive/c/DOCUME~1/deforce/LOKALA~1/Temp/ccbv526R.s 			page 8


  82:LCD.c         **** 	while(IOPIN1 & BF);		//wait until BF == 0
 315              		.loc 1 82 0
 316 02a8 0E32A0E3 		mov	r3, #-536870912
 317 02ac 0A3983E2 		add	r3, r3, #163840
 318 02b0 103083E2 		add	r3, r3, #16
 319 02b4 003093E5 		ldr	r3, [r3, #0]
 320 02b8 023503E2 		and	r3, r3, #8388608
 321 02bc 000053E3 		cmp	r3, #0
 322 02c0 F8FFFF1A 		bne	.L14
  83:LCD.c         **** 	IOCLR1 = E;
 323              		.loc 1 83 0
 324 02c4 0E32A0E3 		mov	r3, #-536870912
 325 02c8 0A3983E2 		add	r3, r3, #163840
 326 02cc 1C3083E2 		add	r3, r3, #28
 327 02d0 0224A0E3 		mov	r2, #33554432
 328 02d4 002083E5 		str	r2, [r3, #0]
  84:LCD.c         **** 	IODIR1 |= data_pins;		//make data_pins output
 329              		.loc 1 84 0
 330 02d8 0E22A0E3 		mov	r2, #-536870912
 331 02dc 0A2982E2 		add	r2, r2, #163840
 332 02e0 182082E2 		add	r2, r2, #24
 333 02e4 0E32A0E3 		mov	r3, #-536870912
 334 02e8 0A3983E2 		add	r3, r3, #163840
 335 02ec 183083E2 		add	r3, r3, #24
 336 02f0 003093E5 		ldr	r3, [r3, #0]
 337 02f4 FF3883E3 		orr	r3, r3, #16711680
 338 02f8 003082E5 		str	r3, [r2, #0]
  85:LCD.c         **** //	delay(1);  //behövs inte om optimering O0, behövs om O2
  86:LCD.c         **** 	IOCLR0 = RW;		//restore write to display
 339              		.loc 1 86 0
 340 02fc CE32A0E3 		mov	r3, #-536870900
 341 0300 0A3983E2 		add	r3, r3, #163840
 342 0304 0125A0E3 		mov	r2, #4194304
 343 0308 002083E5 		str	r2, [r3, #0]
  87:LCD.c         **** }
 344              		.loc 1 87 0
 345 030c 0CD04BE2 		sub	sp, fp, #12
 346 0310 00689DE8 		ldmfd	sp, {fp, sp, lr}
 347 0314 1EFF2FE1 		bx	lr
 348              	.LFE8:
 349              		.size	wait_BF, .-wait_BF
 350              		.align	2
 351              		.global	init_LCD
 352              		.type	init_LCD, %function
 353              	init_LCD:
 354              	.LFB9:
  88:LCD.c         **** 
  89:LCD.c         **** 
  90:LCD.c         **** void init_LCD(void)
  91:LCD.c         **** {
 355              		.loc 1 91 0
 356              		@ Function supports interworking.
 357              		@ args = 0, pretend = 0, frame = 0
 358              		@ frame_needed = 1, uses_anonymous_args = 0
 359 0318 0DC0A0E1 		mov	ip, sp
 360              	.LCFI27:
 361 031c 00D82DE9 		stmfd	sp!, {fp, ip, lr, pc}
ARM GAS  /cygdrive/c/DOCUME~1/deforce/LOKALA~1/Temp/ccbv526R.s 			page 9


 362              	.LCFI28:
 363 0320 04B04CE2 		sub	fp, ip, #4
 364              	.LCFI29:
  92:LCD.c         **** 	IODIR0 |= RW|backlight;
 365              		.loc 1 92 0
 366 0324 8E22A0E3 		mov	r2, #-536870904
 367 0328 0A2982E2 		add	r2, r2, #163840
 368 032c 8E32A0E3 		mov	r3, #-536870904
 369 0330 0A3983E2 		add	r3, r3, #163840
 370 0334 003093E5 		ldr	r3, [r3, #0]
 371 0338 013183E3 		orr	r3, r3, #1073741824
 372 033c 013583E3 		orr	r3, r3, #4194304
 373 0340 003082E5 		str	r3, [r2, #0]
  93:LCD.c         **** 	IODIR1 |= data_pins|E|RS;
 374              		.loc 1 93 0
 375 0344 0E22A0E3 		mov	r2, #-536870912
 376 0348 0A2982E2 		add	r2, r2, #163840
 377 034c 182082E2 		add	r2, r2, #24
 378 0350 0E32A0E3 		mov	r3, #-536870912
 379 0354 0A3983E2 		add	r3, r3, #163840
 380 0358 183083E2 		add	r3, r3, #24
 381 035c 003093E5 		ldr	r3, [r3, #0]
 382 0360 FF3783E3 		orr	r3, r3, #66846720
 383 0364 033883E3 		orr	r3, r3, #196608
 384 0368 003082E5 		str	r3, [r2, #0]
  94:LCD.c         **** 	IOCLR1 = E;
 385              		.loc 1 94 0
 386 036c 0E32A0E3 		mov	r3, #-536870912
 387 0370 0A3983E2 		add	r3, r3, #163840
 388 0374 1C3083E2 		add	r3, r3, #28
 389 0378 0224A0E3 		mov	r2, #33554432
 390 037c 002083E5 		str	r2, [r3, #0]
  95:LCD.c         **** 	IOCLR0 = RW;		//write to the display
 391              		.loc 1 95 0
 392 0380 CE32A0E3 		mov	r3, #-536870900
 393 0384 0A3983E2 		add	r3, r3, #163840
 394 0388 0125A0E3 		mov	r2, #4194304
 395 038c 002083E5 		str	r2, [r3, #0]
  96:LCD.c         **** 	IOSET0 = backlight;		//turn on the backlight
 396              		.loc 1 96 0
 397 0390 4E32A0E3 		mov	r3, #-536870908
 398 0394 0A3983E2 		add	r3, r3, #163840
 399 0398 0121A0E3 		mov	r2, #1073741824
 400 039c 002083E5 		str	r2, [r3, #0]
  97:LCD.c         **** 	send_instruction(0x38);		//function set
 401              		.loc 1 97 0
 402 03a0 3800A0E3 		mov	r0, #56
 403 03a4 FEFFFFEB 		bl	send_instruction
  98:LCD.c         **** 	delay(1200);			//12*60/48 * 80 (80µs)
 404              		.loc 1 98 0
 405 03a8 4B0EA0E3 		mov	r0, #1200
 406 03ac FEFFFFEB 		bl	delay
  99:LCD.c         **** 	send_instruction(0x38);
 407              		.loc 1 99 0
 408 03b0 3800A0E3 		mov	r0, #56
 409 03b4 FEFFFFEB 		bl	send_instruction
 100:LCD.c         **** 	delay(1200);
ARM GAS  /cygdrive/c/DOCUME~1/deforce/LOKALA~1/Temp/ccbv526R.s 			page 10


 410              		.loc 1 100 0
 411 03b8 4B0EA0E3 		mov	r0, #1200
 412 03bc FEFFFFEB 		bl	delay
 101:LCD.c         **** 	send_instruction(0x0F);		//display on/off
 413              		.loc 1 101 0
 414 03c0 0F00A0E3 		mov	r0, #15
 415 03c4 FEFFFFEB 		bl	send_instruction
 102:LCD.c         **** 	delay(1200);
 416              		.loc 1 102 0
 417 03c8 4B0EA0E3 		mov	r0, #1200
 418 03cc FEFFFFEB 		bl	delay
 103:LCD.c         **** 	send_instruction(0x01);		//display clear
 419              		.loc 1 103 0
 420 03d0 0100A0E3 		mov	r0, #1
 421 03d4 FEFFFFEB 		bl	send_instruction
 104:LCD.c         **** 	delay(49250);		//12* 60/48 * 3283 (3,283 ms)
 422              		.loc 1 104 0
 423 03d8 0309A0E3 		mov	r0, #49152
 424 03dc 620080E2 		add	r0, r0, #98
 425 03e0 FEFFFFEB 		bl	delay
 105:LCD.c         **** 	send_instruction(0x06);		//entry mode set
 426              		.loc 1 105 0
 427 03e4 0600A0E3 		mov	r0, #6
 428 03e8 FEFFFFEB 		bl	send_instruction
 106:LCD.c         **** 	delay(1200);
 429              		.loc 1 106 0
 430 03ec 4B0EA0E3 		mov	r0, #1200
 431 03f0 FEFFFFEB 		bl	delay
 107:LCD.c         **** }
 432              		.loc 1 107 0
 433 03f4 0CD04BE2 		sub	sp, fp, #12
 434 03f8 00689DE8 		ldmfd	sp, {fp, sp, lr}
 435 03fc 1EFF2FE1 		bx	lr
 436              	.LFE9:
 437              		.size	init_LCD, .-init_LCD
 438              		.section	.debug_frame,"",%progbits
 439              	.Lframe0:
 440 0000 0C000000 		.4byte	.LECIE0-.LSCIE0
 441              	.LSCIE0:
 442 0004 FFFFFFFF 		.4byte	0xffffffff
 443 0008 01       		.byte	0x1
 444 0009 00       		.ascii	"\000"
 445 000a 01       		.uleb128 0x1
 446 000b 7C       		.sleb128 -4
 447 000c 0E       		.byte	0xe
 448 000d 0C       		.byte	0xc
 449 000e 0D       		.uleb128 0xd
 450 000f 00       		.uleb128 0x0
 451              		.align	2
 452              	.LECIE0:
 453              	.LSFDE0:
 454 0010 1C000000 		.4byte	.LEFDE0-.LASFDE0
 455              	.LASFDE0:
 456 0014 00000000 		.4byte	.Lframe0
 457 0018 00000000 		.4byte	.LFB2
 458 001c 28000000 		.4byte	.LFE2-.LFB2
 459 0020 44       		.byte	0x4
ARM GAS  /cygdrive/c/DOCUME~1/deforce/LOKALA~1/Temp/ccbv526R.s 			page 11


 460              		.4byte	.LCFI0-.LFB2
 461 0021 0D       		.byte	0xd
 462 0022 0C       		.uleb128 0xc
 463 0023 44       		.byte	0x4
 464              		.4byte	.LCFI1-.LCFI0
 465 0024 8E       		.byte	0x8e
 466 0025 02       		.uleb128 0x2
 467 0026 8D       		.byte	0x8d
 468 0027 03       		.uleb128 0x3
 469 0028 8B       		.byte	0x8b
 470 0029 04       		.uleb128 0x4
 471 002a 44       		.byte	0x4
 472              		.4byte	.LCFI2-.LCFI1
 473 002b 0C       		.byte	0xc
 474 002c 0B       		.uleb128 0xb
 475 002d 04       		.uleb128 0x4
 476 002e 0000     		.align	2
 477              	.LEFDE0:
 478              	.LSFDE2:
 479 0030 1C000000 		.4byte	.LEFDE2-.LASFDE2
 480              	.LASFDE2:
 481 0034 00000000 		.4byte	.Lframe0
 482 0038 28000000 		.4byte	.LFB3
 483 003c 38000000 		.4byte	.LFE3-.LFB3
 484 0040 44       		.byte	0x4
 485              		.4byte	.LCFI4-.LFB3
 486 0041 0D       		.byte	0xd
 487 0042 0C       		.uleb128 0xc
 488 0043 44       		.byte	0x4
 489              		.4byte	.LCFI5-.LCFI4
 490 0044 8E       		.byte	0x8e
 491 0045 02       		.uleb128 0x2
 492 0046 8D       		.byte	0x8d
 493 0047 03       		.uleb128 0x3
 494 0048 8B       		.byte	0x8b
 495 0049 04       		.uleb128 0x4
 496 004a 44       		.byte	0x4
 497              		.4byte	.LCFI6-.LCFI5
 498 004b 0C       		.byte	0xc
 499 004c 0B       		.uleb128 0xb
 500 004d 04       		.uleb128 0x4
 501 004e 0000     		.align	2
 502              	.LEFDE2:
 503              	.LSFDE4:
 504 0050 1C000000 		.4byte	.LEFDE4-.LASFDE4
 505              	.LASFDE4:
 506 0054 00000000 		.4byte	.Lframe0
 507 0058 60000000 		.4byte	.LFB4
 508 005c 4C000000 		.4byte	.LFE4-.LFB4
 509 0060 44       		.byte	0x4
 510              		.4byte	.LCFI8-.LFB4
 511 0061 0D       		.byte	0xd
 512 0062 0C       		.uleb128 0xc
 513 0063 44       		.byte	0x4
 514              		.4byte	.LCFI9-.LCFI8
 515 0064 8E       		.byte	0x8e
 516 0065 02       		.uleb128 0x2
ARM GAS  /cygdrive/c/DOCUME~1/deforce/LOKALA~1/Temp/ccbv526R.s 			page 12


 517 0066 8D       		.byte	0x8d
 518 0067 03       		.uleb128 0x3
 519 0068 8B       		.byte	0x8b
 520 0069 04       		.uleb128 0x4
 521 006a 44       		.byte	0x4
 522              		.4byte	.LCFI10-.LCFI9
 523 006b 0C       		.byte	0xc
 524 006c 0B       		.uleb128 0xb
 525 006d 04       		.uleb128 0x4
 526 006e 0000     		.align	2
 527              	.LEFDE4:
 528              	.LSFDE6:
 529 0070 1C000000 		.4byte	.LEFDE6-.LASFDE6
 530              	.LASFDE6:
 531 0074 00000000 		.4byte	.Lframe0
 532 0078 AC000000 		.4byte	.LFB5
 533 007c 54000000 		.4byte	.LFE5-.LFB5
 534 0080 44       		.byte	0x4
 535              		.4byte	.LCFI12-.LFB5
 536 0081 0D       		.byte	0xd
 537 0082 0C       		.uleb128 0xc
 538 0083 44       		.byte	0x4
 539              		.4byte	.LCFI13-.LCFI12
 540 0084 8E       		.byte	0x8e
 541 0085 02       		.uleb128 0x2
 542 0086 8D       		.byte	0x8d
 543 0087 03       		.uleb128 0x3
 544 0088 8B       		.byte	0x8b
 545 0089 04       		.uleb128 0x4
 546 008a 44       		.byte	0x4
 547              		.4byte	.LCFI14-.LCFI13
 548 008b 0C       		.byte	0xc
 549 008c 0B       		.uleb128 0xb
 550 008d 04       		.uleb128 0x4
 551 008e 0000     		.align	2
 552              	.LEFDE6:
 553              	.LSFDE8:
 554 0090 1C000000 		.4byte	.LEFDE8-.LASFDE8
 555              	.LASFDE8:
 556 0094 00000000 		.4byte	.Lframe0
 557 0098 00010000 		.4byte	.LFB6
 558 009c B0000000 		.4byte	.LFE6-.LFB6
 559 00a0 44       		.byte	0x4
 560              		.4byte	.LCFI16-.LFB6
 561 00a1 0D       		.byte	0xd
 562 00a2 0C       		.uleb128 0xc
 563 00a3 44       		.byte	0x4
 564              		.4byte	.LCFI17-.LCFI16
 565 00a4 8E       		.byte	0x8e
 566 00a5 02       		.uleb128 0x2
 567 00a6 8D       		.byte	0x8d
 568 00a7 03       		.uleb128 0x3
 569 00a8 8B       		.byte	0x8b
 570 00a9 04       		.uleb128 0x4
 571 00aa 44       		.byte	0x4
 572              		.4byte	.LCFI18-.LCFI17
 573 00ab 0C       		.byte	0xc
ARM GAS  /cygdrive/c/DOCUME~1/deforce/LOKALA~1/Temp/ccbv526R.s 			page 13


 574 00ac 0B       		.uleb128 0xb
 575 00ad 04       		.uleb128 0x4
 576 00ae 0000     		.align	2
 577              	.LEFDE8:
 578              	.LSFDE10:
 579 00b0 1C000000 		.4byte	.LEFDE10-.LASFDE10
 580              	.LASFDE10:
 581 00b4 00000000 		.4byte	.Lframe0
 582 00b8 B0010000 		.4byte	.LFB7
 583 00bc 88000000 		.4byte	.LFE7-.LFB7
 584 00c0 44       		.byte	0x4
 585              		.4byte	.LCFI20-.LFB7
 586 00c1 0D       		.byte	0xd
 587 00c2 0C       		.uleb128 0xc
 588 00c3 44       		.byte	0x4
 589              		.4byte	.LCFI21-.LCFI20
 590 00c4 8E       		.byte	0x8e
 591 00c5 02       		.uleb128 0x2
 592 00c6 8D       		.byte	0x8d
 593 00c7 03       		.uleb128 0x3
 594 00c8 8B       		.byte	0x8b
 595 00c9 04       		.uleb128 0x4
 596 00ca 44       		.byte	0x4
 597              		.4byte	.LCFI22-.LCFI21
 598 00cb 0C       		.byte	0xc
 599 00cc 0B       		.uleb128 0xb
 600 00cd 04       		.uleb128 0x4
 601 00ce 0000     		.align	2
 602              	.LEFDE10:
 603              	.LSFDE12:
 604 00d0 1C000000 		.4byte	.LEFDE12-.LASFDE12
 605              	.LASFDE12:
 606 00d4 00000000 		.4byte	.Lframe0
 607 00d8 38020000 		.4byte	.LFB8
 608 00dc E0000000 		.4byte	.LFE8-.LFB8
 609 00e0 44       		.byte	0x4
 610              		.4byte	.LCFI24-.LFB8
 611 00e1 0D       		.byte	0xd
 612 00e2 0C       		.uleb128 0xc
 613 00e3 44       		.byte	0x4
 614              		.4byte	.LCFI25-.LCFI24
 615 00e4 8E       		.byte	0x8e
 616 00e5 02       		.uleb128 0x2
 617 00e6 8D       		.byte	0x8d
 618 00e7 03       		.uleb128 0x3
 619 00e8 8B       		.byte	0x8b
 620 00e9 04       		.uleb128 0x4
 621 00ea 44       		.byte	0x4
 622              		.4byte	.LCFI26-.LCFI25
 623 00eb 0C       		.byte	0xc
 624 00ec 0B       		.uleb128 0xb
 625 00ed 04       		.uleb128 0x4
 626 00ee 0000     		.align	2
 627              	.LEFDE12:
 628              	.LSFDE14:
 629 00f0 1C000000 		.4byte	.LEFDE14-.LASFDE14
 630              	.LASFDE14:
ARM GAS  /cygdrive/c/DOCUME~1/deforce/LOKALA~1/Temp/ccbv526R.s 			page 14


 631 00f4 00000000 		.4byte	.Lframe0
 632 00f8 18030000 		.4byte	.LFB9
 633 00fc E8000000 		.4byte	.LFE9-.LFB9
 634 0100 44       		.byte	0x4
 635              		.4byte	.LCFI27-.LFB9
 636 0101 0D       		.byte	0xd
 637 0102 0C       		.uleb128 0xc
 638 0103 44       		.byte	0x4
 639              		.4byte	.LCFI28-.LCFI27
 640 0104 8E       		.byte	0x8e
 641 0105 02       		.uleb128 0x2
 642 0106 8D       		.byte	0x8d
 643 0107 03       		.uleb128 0x3
 644 0108 8B       		.byte	0x8b
 645 0109 04       		.uleb128 0x4
 646 010a 44       		.byte	0x4
 647              		.4byte	.LCFI29-.LCFI28
 648 010b 0C       		.byte	0xc
 649 010c 0B       		.uleb128 0xb
 650 010d 04       		.uleb128 0x4
 651 010e 0000     		.align	2
 652              	.LEFDE14:
 653              		.text
 654              	.Letext0: