ARM GAS  /cygdrive/c/DOCUME~1/deforce/LOKALA~1/Temp/ccDKvaBg.s 			page 1


   1              		.code	16
   2              		.file	"i2c.c"
   3              		.section	.debug_abbrev,"",%progbits
   4              	.Ldebug_abbrev0:
   5              		.section	.debug_info,"",%progbits
   6              	.Ldebug_info0:
   7              		.section	.debug_line,"",%progbits
   8              	.Ldebug_line0:
   9 0000 05010000 		.text
   9      02001C00 
   9      00000201 
   9      FB0E0D00 
   9      01010101 
  10              	.Ltext0:
  11              		.align	2
  12              		.global	i2cCheckStatus
  13              		.code 16
  14              		.thumb_func
  15              		.type	i2cCheckStatus, %function
  16              	i2cCheckStatus:
  17              	.LFB2:
  18              		.file 1 "i2c.c"
   1:i2c.c         **** /******************************************************************************
   2:i2c.c         ****  *
   3:i2c.c         ****  * Copyright:
   4:i2c.c         ****  *    (C) 2005 Embedded Artists AB
   5:i2c.c         ****  *
   6:i2c.c         ****  * File:
   7:i2c.c         ****  *    i2c.c
   8:i2c.c         ****  *
   9:i2c.c         ****  * Description:
  10:i2c.c         ****  *    Implements a generic I2C function library for the LPC2xxx processor.
  11:i2c.c         ****  *
  12:i2c.c         ****  *****************************************************************************/
  13:i2c.c         **** 
  14:i2c.c         **** /******************************************************************************
  15:i2c.c         ****  * Includes
  16:i2c.c         ****  *****************************************************************************/
  17:i2c.c         **** #include "i2c.h"
  18:i2c.c         **** #include <lpc2xxx.h>
  19:i2c.c         **** #include "startup/config.h"
  20:i2c.c         **** 
  21:i2c.c         **** 
  22:i2c.c         **** /******************************************************************************
  23:i2c.c         ****  * Defines and typedefs
  24:i2c.c         ****  *****************************************************************************/
  25:i2c.c         **** #define CRYSTAL_FREQUENCY FOSC
  26:i2c.c         **** #define PLL_FACTOR        PLL_MUL
  27:i2c.c         **** #define VPBDIV_FACTOR     PBSD
  28:i2c.c         **** 
  29:i2c.c         **** //different modes
  30:i2c.c         **** #define I2C_MODE_ACK0 0
  31:i2c.c         **** #define I2C_MODE_ACK1 1
  32:i2c.c         **** #define I2C_MODE_READ 2
  33:i2c.c         **** 
  34:i2c.c         **** 
  35:i2c.c         **** /******************************************************************************
ARM GAS  /cygdrive/c/DOCUME~1/deforce/LOKALA~1/Temp/ccDKvaBg.s 			page 2


  36:i2c.c         ****  *
  37:i2c.c         ****  * Description:
  38:i2c.c         ****  *    Checks the I2C status.
  39:i2c.c         ****  *
  40:i2c.c         ****  *  Returns:
  41:i2c.c         ****  *      00h Bus error
  42:i2c.c         ****  *      08h START condition transmitted
  43:i2c.c         ****  *      10h Repeated START condition transmitted
  44:i2c.c         ****  *      18h SLA + W transmitted, ACK received
  45:i2c.c         ****  *      20h SLA + W transmitted, ACK not received
  46:i2c.c         ****  *      28h Data byte transmitted, ACK received
  47:i2c.c         ****  *      30h Data byte transmitted, ACK not received
  48:i2c.c         ****  *      38h Arbitration lost
  49:i2c.c         ****  *      40h SLA + R transmitted, ACK received
  50:i2c.c         ****  *      48h SLA + R transmitted, ACK not received
  51:i2c.c         ****  *      50h Data byte received in master mode, ACK transmitted
  52:i2c.c         ****  *      58h Data byte received in master mode, ACK not transmitted
  53:i2c.c         ****  *      60h SLA + W received, ACK transmitted
  54:i2c.c         ****  *      68h Arbitration lost, SLA + W received, ACK transmitted
  55:i2c.c         ****  *      70h General call address received, ACK transmitted
  56:i2c.c         ****  *      78h Arbitration lost, general call addr received, ACK transmitted
  57:i2c.c         ****  *      80h Data byte received with own SLA, ACK transmitted
  58:i2c.c         ****  *      88h Data byte received with own SLA, ACK not transmitted
  59:i2c.c         ****  *      90h Data byte received after general call, ACK transmitted
  60:i2c.c         ****  *      98h Data byte received after general call, ACK not transmitted
  61:i2c.c         ****  *      A0h STOP or repeated START condition received in slave mode
  62:i2c.c         ****  *      A8h SLA + R received, ACK transmitted
  63:i2c.c         ****  *      B0h Arbitration lost, SLA + R received, ACK transmitted
  64:i2c.c         ****  *      B8h Data byte transmitted in slave mode, ACK received
  65:i2c.c         ****  *      C0h Data byte transmitted in slave mode, ACK not received
  66:i2c.c         ****  *      C8h Last byte transmitted in slave mode, ACK received
  67:i2c.c         ****  *      F8h No relevant status information, SI=0
  68:i2c.c         ****  *      FFh Channel error
  69:i2c.c         ****  *
  70:i2c.c         ****  *****************************************************************************/
  71:i2c.c         **** tU8
  72:i2c.c         **** i2cCheckStatus(void)
  73:i2c.c         **** {
  19              		.loc 1 73 0
  20              		@ lr needed for prologue
  21              	.L3:
  74:i2c.c         ****   tU8 status;
  75:i2c.c         **** 
  76:i2c.c         ****   //wait for I2C Status changed
  77:i2c.c         ****   while( (I2C_I2CONSET & 0x08) == 0)   //while SI == 0
  22              		.loc 1 77 0
  23 0000 044B     		ldr	r3, .L8
  24 0002 1B68     		ldr	r3, [r3]
  25 0004 1A07     		lsl	r2, r3, #28
  26 0006 FBD5     		bpl	.L3
  78:i2c.c         ****     ;
  79:i2c.c         **** 
  80:i2c.c         ****   //read I2C State
  81:i2c.c         ****   status = I2C_I2STAT;
  27              		.loc 1 81 0
  28 0008 034B     		ldr	r3, .L8+4
  29 000a 1868     		ldr	r0, [r3]
ARM GAS  /cygdrive/c/DOCUME~1/deforce/LOKALA~1/Temp/ccDKvaBg.s 			page 3


  30 000c 0006     		lsl	r0, r0, #24
  31 000e 000E     		lsr	r0, r0, #24
  82:i2c.c         **** 
  83:i2c.c         ****   //NOTE! SI flag is not cleared here
  84:i2c.c         **** 
  85:i2c.c         ****   return status;
  86:i2c.c         **** }
  32              		.loc 1 86 0
  33              		@ sp needed for prologue
  34 0010 7047     		bx	lr
  35              	.L9:
  36 0012 0000     		.align	2
  37              	.L8:
  38 0014 00C001E0 		.word	-536756224
  39 0018 04C001E0 		.word	-536756220
  40              	.LFE2:
  41              		.size	i2cCheckStatus, .-i2cCheckStatus
  42              		.global	__udivsi3
  43              		.align	2
  44              		.global	i2cInit
  45              		.code 16
  46              		.thumb_func
  47              		.type	i2cInit, %function
  48              	i2cInit:
  49              	.LFB3:
  87:i2c.c         **** 
  88:i2c.c         **** /******************************************************************************
  89:i2c.c         ****  *
  90:i2c.c         ****  * Description:
  91:i2c.c         ****  *    Reset and initialize the I2C peripheral.
  92:i2c.c         ****  *
  93:i2c.c         ****  * Params:
  94:i2c.c         ****  *    [in]  i2cFrequency  - frequency on clock signal in Hz (max 400 kHz)
  95:i2c.c         ****  *
  96:i2c.c         ****  *****************************************************************************/
  97:i2c.c         **** void
  98:i2c.c         **** i2cInit(tU32 i2cFrequency)
  99:i2c.c         **** {
  50              		.loc 1 99 0
  51 001c 10B5     		push	{r4, lr}
  52              	.LCFI0:
  53              	.LVL0:
 100:i2c.c         **** 	//connect I2C signals (SDA & SCL) to P0.2 and P0.3
 101:i2c.c         ****   PINSEL0 &= ~0x000000F0;
  54              		.loc 1 101 0
  55 001e 1449     		ldr	r1, .L13
  56 0020 0B68     		ldr	r3, [r1]
  57 0022 F022     		mov	r2, #240
  58 0024 9343     		bic	r3, r3, r2
  59 0026 0B60     		str	r3, [r1]
 102:i2c.c         ****   PINSEL0 |=  0x00000050;
  60              		.loc 1 102 0
  61 0028 0B68     		ldr	r3, [r1]
  62 002a 5022     		mov	r2, #80
  63 002c 1343     		orr	r3, r3, r2
  64 002e 0B60     		str	r3, [r1]
 103:i2c.c         **** 
ARM GAS  /cygdrive/c/DOCUME~1/deforce/LOKALA~1/Temp/ccDKvaBg.s 			page 4


 104:i2c.c         ****   //clear flags
 105:i2c.c         ****   I2C_I2CONCLR = 0x6c;
  65              		.loc 1 105 0
  66 0030 104B     		ldr	r3, .L13+4
  67 0032 6C22     		mov	r2, #108
  68 0034 1A60     		str	r2, [r3]
  69 0036 104B     		ldr	r3, .L13+8
  70 0038 041C     		mov	r4, r0
  71              	.LVL1:
  72 003a 9842     		cmp	r0, r3
  73 003c 00D9     		bls	.L11
  74              	.LVL2:
  75 003e 1C1C     		mov	r4, r3
  76              	.L11:
 106:i2c.c         **** 
 107:i2c.c         ****   //set bit timing ans start with checking for maximum speed (400kHz)
 108:i2c.c         ****   if (i2cFrequency > 400000)
 109:i2c.c         ****     i2cFrequency = 400000;
 110:i2c.c         ****   I2C_I2SCLH   = (((CRYSTAL_FREQUENCY * PLL_FACTOR) / VPBDIV_FACTOR) / i2cFrequency + 1) / 2;
  77              		.loc 1 110 0
  78 0040 211C     		mov	r1, r4
  79 0042 0E48     		ldr	r0, .L13+12
  80              	.LVL3:
  81 0044 FFF7FEFF 		bl	__udivsi3
  82              	.LVL4:
  83 0048 0D4B     		ldr	r3, .L13+16
  84 004a 0130     		add	r0, r0, #1
  85 004c 4008     		lsr	r0, r0, #1
  86 004e 1860     		str	r0, [r3]
 111:i2c.c         ****   I2C_I2SCLL   = (((CRYSTAL_FREQUENCY * PLL_FACTOR) / VPBDIV_FACTOR) / i2cFrequency) / 2;
  87              		.loc 1 111 0
  88 0050 211C     		mov	r1, r4
  89 0052 0C48     		ldr	r0, .L13+20
  90 0054 FFF7FEFF 		bl	__udivsi3
  91 0058 0B4B     		ldr	r3, .L13+24
 112:i2c.c         **** 
 113:i2c.c         ****   //reset registers
 114:i2c.c         ****   I2C_I2ADR    = 0x00;
  92              		.loc 1 114 0
  93 005a 0022     		mov	r2, #0
  94              		.loc 1 111 0
  95 005c 1860     		str	r0, [r3]
  96              		.loc 1 114 0
  97 005e 083B     		sub	r3, r3, #8
  98 0060 1A60     		str	r2, [r3]
 115:i2c.c         ****   I2C_I2CONSET = 0x40;
  99              		.loc 1 115 0
 100 0062 4022     		mov	r2, #64
 101 0064 0C3B     		sub	r3, r3, #12
 102 0066 1A60     		str	r2, [r3]
 116:i2c.c         **** }
 103              		.loc 1 116 0
 104              		@ sp needed for prologue
 105              	.LVL5:
 106 0068 10BC     		pop	{r4}
 107 006a 01BC     		pop	{r0}
 108 006c 0047     		bx	r0
ARM GAS  /cygdrive/c/DOCUME~1/deforce/LOKALA~1/Temp/ccDKvaBg.s 			page 5


 109              	.L14:
 110 006e 0000     		.align	2
 111              	.L13:
 112 0070 00C002E0 		.word	-536690688
 113 0074 18C001E0 		.word	-536756200
 114 0078 801A0600 		.word	400000
 115 007c 00879303 		.word	60000000
 116 0080 10C001E0 		.word	-536756208
 117 0084 80C3C901 		.word	30000000
 118 0088 14C001E0 		.word	-536756204
 119              	.LFE3:
 120              		.size	i2cInit, .-i2cInit
 121              		.align	2
 122              		.global	i2cStart
 123              		.code 16
 124              		.thumb_func
 125              		.type	i2cStart, %function
 126              	i2cStart:
 127              	.LFB4:
 117:i2c.c         **** 
 118:i2c.c         **** /******************************************************************************
 119:i2c.c         ****  *
 120:i2c.c         ****  * Description:
 121:i2c.c         ****  *    Generates a start condition on I2C when bus is free.
 122:i2c.c         ****  *    Master mode will also automatically be entered.
 123:i2c.c         ****  *
 124:i2c.c         ****  * Returns:
 125:i2c.c         ****  *    I2C_CODE_OK or I2C status code
 126:i2c.c         ****  *
 127:i2c.c         ****  *****************************************************************************/
 128:i2c.c         **** tS8
 129:i2c.c         **** i2cStart(void)
 130:i2c.c         **** {
 128              		.loc 1 130 0
 131:i2c.c         ****   tU8   status  = 0;
 132:i2c.c         ****   tS8   retCode = 0;
 133:i2c.c         **** 
 134:i2c.c         ****   //issue a start condition
 135:i2c.c         ****   I2C_I2CONSET |= 0x20;   //STA = 1, set start flag
 129              		.loc 1 135 0
 130 008c 0D4B     		ldr	r3, .L31
 131 008e 1A68     		ldr	r2, [r3]
 132 0090 2021     		mov	r1, #32
 133              		.loc 1 130 0
 134              		@ lr needed for prologue
 135              		.loc 1 135 0
 136 0092 0A43     		orr	r2, r2, r1
 137              	.LVL6:
 138              	.L30:
 139 0094 1A60     		str	r2, [r3]
 140              	.L29:
 141              	.LBB6:
 142              	.LBB7:
 143              		.loc 1 77 0
 144 0096 0B4B     		ldr	r3, .L31
 145 0098 1B68     		ldr	r3, [r3]
 146 009a 0822     		mov	r2, #8
ARM GAS  /cygdrive/c/DOCUME~1/deforce/LOKALA~1/Temp/ccDKvaBg.s 			page 6


 147 009c 1342     		tst	r3, r2
 148 009e FAD0     		beq	.L29
 149              		.loc 1 81 0
 150 00a0 094B     		ldr	r3, .L31+4
 151 00a2 1B68     		ldr	r3, [r3]
 152              	.LBE7:
 153              	.LBE6:
 136:i2c.c         **** 
 137:i2c.c         ****   //wait until START transmitted
 138:i2c.c         ****   while(1)
 139:i2c.c         ****   {
 140:i2c.c         ****     status = i2cCheckStatus();
 154              		.loc 1 140 0
 155 00a4 1B06     		lsl	r3, r3, #24
 156 00a6 180E     		lsr	r0, r3, #24
 141:i2c.c         **** 
 142:i2c.c         ****     //start transmitted
 143:i2c.c         ****     if((status == 0x08) || (status == 0x10))
 157              		.loc 1 143 0
 158 00a8 0828     		cmp	r0, #8
 159 00aa 05D0     		beq	.L18
 160 00ac 1028     		cmp	r0, #16
 161 00ae 03D0     		beq	.L18
 144:i2c.c         ****     {
 145:i2c.c         ****       retCode = I2C_CODE_OK;
 146:i2c.c         ****       break;
 147:i2c.c         ****     }
 148:i2c.c         **** 
 149:i2c.c         ****     //error
 150:i2c.c         ****     else if(status != 0xf8)
 162              		.loc 1 150 0
 163 00b0 F828     		cmp	r0, #248
 164 00b2 02D1     		bne	.L23
 151:i2c.c         ****     {
 152:i2c.c         ****       retCode = (tS8) status;
 153:i2c.c         ****       break;
 154:i2c.c         ****     }
 155:i2c.c         **** 
 156:i2c.c         ****     else
 157:i2c.c         ****     {
 158:i2c.c         ****       //clear SI flag
 159:i2c.c         ****       I2C_I2CONCLR = 0x08;
 165              		.loc 1 159 0
 166 00b4 054B     		ldr	r3, .L31+8
 167 00b6 EDE7     		b	.L30
 168              	.L18:
 160:i2c.c         ****     }    
 161:i2c.c         ****   }
 169              		.loc 1 161 0
 170 00b8 0120     		mov	r0, #1
 171              	.LVL7:
 172              	.L23:
 162:i2c.c         **** 
 163:i2c.c         ****   //clear start flag
 164:i2c.c         ****   I2C_I2CONCLR = 0x20;
 173              		.loc 1 164 0
 174 00ba 044B     		ldr	r3, .L31+8
ARM GAS  /cygdrive/c/DOCUME~1/deforce/LOKALA~1/Temp/ccDKvaBg.s 			page 7


 175              	.LVL8:
 176 00bc 2022     		mov	r2, #32
 177 00be 1A60     		str	r2, [r3]
 165:i2c.c         **** 
 166:i2c.c         ****   return retCode;
 167:i2c.c         **** }
 178              		.loc 1 167 0
 179              		@ sp needed for prologue
 180 00c0 7047     		bx	lr
 181              	.L32:
 182 00c2 0000     		.align	2
 183              	.L31:
 184 00c4 00C001E0 		.word	-536756224
 185 00c8 04C001E0 		.word	-536756220
 186 00cc 18C001E0 		.word	-536756200
 187              	.LFE4:
 188              		.size	i2cStart, .-i2cStart
 189              		.align	2
 190              		.global	i2cStop
 191              		.code 16
 192              		.thumb_func
 193              		.type	i2cStop, %function
 194              	i2cStop:
 195              	.LFB6:
 168:i2c.c         **** 
 169:i2c.c         **** /******************************************************************************
 170:i2c.c         ****  *
 171:i2c.c         ****  * Description:
 172:i2c.c         ****  *    Generates a start condition on I2C when bus is free.
 173:i2c.c         ****  *    Master mode will also automatically be entered.
 174:i2c.c         ****  *
 175:i2c.c         ****  * Returns:
 176:i2c.c         ****  *    I2C_CODE_OK or I2C status code
 177:i2c.c         ****  *
 178:i2c.c         ****  *****************************************************************************/
 179:i2c.c         **** tS8
 180:i2c.c         **** i2cRepeatStart(void)
 181:i2c.c         **** {
 182:i2c.c         ****   tU8   status  = 0;
 183:i2c.c         ****   tS8   retCode = 0;
 184:i2c.c         **** 
 185:i2c.c         ****   //issue a start condition
 186:i2c.c         ****   I2C_I2CONSET |= 0x20;   //STA = 1, set start flag
 187:i2c.c         ****   I2C_I2CONCLR = 0x08;    //clear SI flag
 188:i2c.c         **** 
 189:i2c.c         ****   //wait until START transmitted
 190:i2c.c         ****   while(1)
 191:i2c.c         ****   {
 192:i2c.c         ****     status = i2cCheckStatus();
 193:i2c.c         **** 
 194:i2c.c         ****     //start transmitted
 195:i2c.c         ****     if((status == 0x08) || (status == 0x10))
 196:i2c.c         ****     {
 197:i2c.c         ****       retCode = I2C_CODE_OK;
 198:i2c.c         ****       break;
 199:i2c.c         ****     }
 200:i2c.c         **** 
ARM GAS  /cygdrive/c/DOCUME~1/deforce/LOKALA~1/Temp/ccDKvaBg.s 			page 8


 201:i2c.c         ****     //error
 202:i2c.c         ****     else if(status != 0xf8)
 203:i2c.c         ****     {
 204:i2c.c         ****       retCode = (tS8) status;
 205:i2c.c         ****       break;
 206:i2c.c         ****     }
 207:i2c.c         **** 
 208:i2c.c         ****     else
 209:i2c.c         ****     {
 210:i2c.c         ****       //clear SI flag
 211:i2c.c         ****       I2C_I2CONCLR = 0x08;
 212:i2c.c         ****     }    
 213:i2c.c         ****   }
 214:i2c.c         **** 
 215:i2c.c         ****   //clear start flag
 216:i2c.c         ****   I2C_I2CONCLR = 0x20;
 217:i2c.c         **** 
 218:i2c.c         ****   return retCode;
 219:i2c.c         **** }
 220:i2c.c         **** 
 221:i2c.c         **** /******************************************************************************
 222:i2c.c         ****  *
 223:i2c.c         ****  * Description:
 224:i2c.c         ****  *    Generates a stop condition in master mode or recovers from an error
 225:i2c.c         ****  *    condition in slave mode.
 226:i2c.c         ****  *
 227:i2c.c         ****  * Returns:
 228:i2c.c         ****  *    I2C_CODE_OK
 229:i2c.c         ****  *
 230:i2c.c         ****  *****************************************************************************/
 231:i2c.c         **** tS8
 232:i2c.c         **** i2cStop(void)
 233:i2c.c         **** {
 196              		.loc 1 233 0
 234:i2c.c         ****   I2C_I2CONSET |= 0x10;  //STO = 1, set stop flag
 197              		.loc 1 234 0
 198 00d0 0649     		ldr	r1, .L39
 199 00d2 0B68     		ldr	r3, [r1]
 200 00d4 1022     		mov	r2, #16
 201 00d6 1343     		orr	r3, r3, r2
 202 00d8 0B60     		str	r3, [r1]
 235:i2c.c         ****   I2C_I2CONCLR = 0x08;   //clear SI flag
 203              		.loc 1 235 0
 204 00da 054B     		ldr	r3, .L39+4
 205 00dc 0822     		mov	r2, #8
 206 00de 1A60     		str	r2, [r3]
 207              		.loc 1 233 0
 208              		@ lr needed for prologue
 209              	.L34:
 236:i2c.c         **** 
 237:i2c.c         ****   //wait for STOP detected (while STO = 1)
 238:i2c.c         ****   while((I2C_I2CONSET & 0x10) == 0x10)
 210              		.loc 1 238 0
 211 00e0 024B     		ldr	r3, .L39
 212 00e2 1B68     		ldr	r3, [r3]
 213 00e4 DA06     		lsl	r2, r3, #27
 214 00e6 FBD4     		bmi	.L34
ARM GAS  /cygdrive/c/DOCUME~1/deforce/LOKALA~1/Temp/ccDKvaBg.s 			page 9


 239:i2c.c         ****     ;
 240:i2c.c         **** 
 241:i2c.c         ****   return I2C_CODE_OK;
 242:i2c.c         **** }
 215              		.loc 1 242 0
 216 00e8 0120     		mov	r0, #1
 217              		@ sp needed for prologue
 218 00ea 7047     		bx	lr
 219              	.L40:
 220              		.align	2
 221              	.L39:
 222 00ec 00C001E0 		.word	-536756224
 223 00f0 18C001E0 		.word	-536756200
 224              	.LFE6:
 225              		.size	i2cStop, .-i2cStop
 226              		.align	2
 227              		.global	i2cPutChar
 228              		.code 16
 229              		.thumb_func
 230              		.type	i2cPutChar, %function
 231              	i2cPutChar:
 232              	.LFB7:
 243:i2c.c         **** 
 244:i2c.c         **** /******************************************************************************
 245:i2c.c         ****  *
 246:i2c.c         ****  * Description:
 247:i2c.c         ****  *    Sends a character on the I2C network
 248:i2c.c         ****  *
 249:i2c.c         ****  * Params:
 250:i2c.c         ****  *    [in] data - the character to send
 251:i2c.c         ****  *
 252:i2c.c         ****  * Returns:
 253:i2c.c         ****  *    I2C_CODE_OK   - successful
 254:i2c.c         ****  *    I2C_CODE_BUSY - data register is not ready -> byte was not sent
 255:i2c.c         ****  *
 256:i2c.c         ****  *****************************************************************************/
 257:i2c.c         **** tS8
 258:i2c.c         **** i2cPutChar(tU8 data)
 259:i2c.c         **** {
 233              		.loc 1 259 0
 234              	.LVL9:
 260:i2c.c         ****   tS8 retCode = 0;
 261:i2c.c         **** 
 262:i2c.c         ****   //check if I2C Data register can be accessed
 263:i2c.c         ****   if((I2C_I2CONSET & 0x08) != 0)    //if SI = 1
 235              		.loc 1 263 0
 236 00f4 074B     		ldr	r3, .L46
 237 00f6 1B68     		ldr	r3, [r3]
 238              		.loc 1 259 0
 239 00f8 0006     		lsl	r0, r0, #24
 240              	.LVL10:
 241              		.loc 1 263 0
 242 00fa 0822     		mov	r2, #8
 243              		.loc 1 259 0
 244              		@ lr needed for prologue
 245              		.loc 1 259 0
 246 00fc 000E     		lsr	r0, r0, #24
ARM GAS  /cygdrive/c/DOCUME~1/deforce/LOKALA~1/Temp/ccDKvaBg.s 			page 10


 247              	.LVL11:
 248              		.loc 1 263 0
 249 00fe 1342     		tst	r3, r2
 250 0100 01D1     		bne	.L42
 251 0102 FE20     		mov	r0, #254
 252              	.LVL12:
 253 0104 04E0     		b	.L44
 254              	.LVL13:
 255              	.L42:
 264:i2c.c         ****   {
 265:i2c.c         ****     /* send data */
 266:i2c.c         ****     I2C_I2DAT    = data;
 256              		.loc 1 266 0
 257 0106 044B     		ldr	r3, .L46+4
 258 0108 1860     		str	r0, [r3]
 267:i2c.c         ****     I2C_I2CONCLR = 0x08;       //clear SI flag
 259              		.loc 1 267 0
 260 010a 1033     		add	r3, r3, #16
 261 010c 1A60     		str	r2, [r3]
 262 010e 0120     		mov	r0, #1
 263              	.LVL14:
 264              	.L44:
 265              	.LVL15:
 268:i2c.c         ****     retCode    = I2C_CODE_OK;
 269:i2c.c         ****   }
 270:i2c.c         ****   else
 271:i2c.c         ****   {
 272:i2c.c         ****     //data register not ready
 273:i2c.c         ****     retCode = I2C_CODE_BUSY;
 274:i2c.c         ****   }
 275:i2c.c         **** 
 276:i2c.c         ****   return retCode;
 277:i2c.c         **** }
 266              		.loc 1 277 0
 267              		@ sp needed for prologue
 268 0110 7047     		bx	lr
 269              	.L47:
 270 0112 0000     		.align	2
 271              	.L46:
 272 0114 00C001E0 		.word	-536756224
 273 0118 08C001E0 		.word	-536756216
 274              	.LFE7:
 275              		.size	i2cPutChar, .-i2cPutChar
 276              		.align	2
 277              		.global	i2cGetChar
 278              		.code 16
 279              		.thumb_func
 280              		.type	i2cGetChar, %function
 281              	i2cGetChar:
 282              	.LFB8:
 278:i2c.c         **** 
 279:i2c.c         **** /******************************************************************************
 280:i2c.c         ****  *
 281:i2c.c         ****  * Description:
 282:i2c.c         ****  *    Read a character. I2C master mode is used.
 283:i2c.c         ****  *    This function is also used to prepare if the master shall generate
 284:i2c.c         ****  *    acknowledge or not acknowledge.
ARM GAS  /cygdrive/c/DOCUME~1/deforce/LOKALA~1/Temp/ccDKvaBg.s 			page 11


 285:i2c.c         ****  *
 286:i2c.c         ****  * Params:
 287:i2c.c         ****  *    [in]  mode  - I2C_MODE_ACK0 Set ACK=0. Slave sends next byte
 288:i2c.c         ****  *                  I2C_MODE_ACK1 Set ACK=1. Slave sends last byte
 289:i2c.c         ****  *                  I2C_MODE_READ Read data from data register
 290:i2c.c         ****  *    [out] pData - a pointer to where the data shall be saved.
 291:i2c.c         ****  *
 292:i2c.c         ****  * Returns:
 293:i2c.c         ****  *    I2C_CODE_OK    - successful
 294:i2c.c         ****  *    I2C_CODE_EMPTY - no data is available
 295:i2c.c         ****  *
 296:i2c.c         ****  *****************************************************************************/
 297:i2c.c         **** tS8
 298:i2c.c         **** i2cGetChar(tU8  mode,
 299:i2c.c         ****            tU8* pData)
 300:i2c.c         **** {
 283              		.loc 1 300 0
 284              	.LVL16:
 285 011c 0006     		lsl	r0, r0, #24
 286              	.LVL17:
 287 011e 000E     		lsr	r0, r0, #24
 288              	.LVL18:
 289              		@ lr needed for prologue
 301:i2c.c         ****   tS8 retCode = I2C_CODE_OK;
 302:i2c.c         **** 
 303:i2c.c         ****   if(mode == I2C_MODE_ACK0)
 290              		.loc 1 303 0
 291 0120 0028     		cmp	r0, #0
 292 0122 08D1     		bne	.L49
 304:i2c.c         ****   {
 305:i2c.c         ****     //the operation mode is changed from master transmit to master receive
 306:i2c.c         ****     //set ACK=0 (informs slave to send next byte)
 307:i2c.c         ****     I2C_I2CONSET |= 0x04;   //AA=1
 293              		.loc 1 307 0
 294 0124 0E49     		ldr	r1, .L60
 295              	.LVL19:
 296 0126 0B68     		ldr	r3, [r1]
 297 0128 0422     		mov	r2, #4
 298 012a 1343     		orr	r3, r3, r2
 299 012c 0B60     		str	r3, [r1]
 308:i2c.c         ****     I2C_I2CONCLR = 0x08;    //clear SI flag
 300              		.loc 1 308 0
 301 012e 0D4B     		ldr	r3, .L60+4
 302 0130 0822     		mov	r2, #8
 303 0132 1A60     		str	r2, [r3]
 304 0134 12E0     		b	.L59
 305              	.LVL20:
 306              	.L49:
 309:i2c.c         ****   }
 310:i2c.c         ****   else if(mode == I2C_MODE_ACK1)
 307              		.loc 1 310 0
 308 0136 0128     		cmp	r0, #1
 309 0138 05D1     		bne	.L52
 311:i2c.c         ****   {
 312:i2c.c         ****     //set ACK=1 (informs slave to send last byte)
 313:i2c.c         ****     I2C_I2CONCLR = 0x04;     
 310              		.loc 1 313 0
ARM GAS  /cygdrive/c/DOCUME~1/deforce/LOKALA~1/Temp/ccDKvaBg.s 			page 12


 311 013a 0A4B     		ldr	r3, .L60+4
 312 013c 0422     		mov	r2, #4
 313 013e 1A60     		str	r2, [r3]
 314:i2c.c         ****     I2C_I2CONCLR = 0x08;   //clear SI flag
 314              		.loc 1 314 0
 315 0140 0822     		mov	r2, #8
 316 0142 1A60     		str	r2, [r3]
 317 0144 0BE0     		b	.L51
 318              	.L52:
 315:i2c.c         ****   }
 316:i2c.c         ****   else if(mode == I2C_MODE_READ)
 319              		.loc 1 316 0
 320 0146 0228     		cmp	r0, #2
 321 0148 08D1     		bne	.L59
 317:i2c.c         ****   {
 318:i2c.c         ****     //check if I2C Data register can be accessed
 319:i2c.c         ****     if((I2C_I2CONSET & 0x08) != 0)    //SI = 1
 322              		.loc 1 319 0
 323 014a 054B     		ldr	r3, .L60
 324 014c 1B68     		ldr	r3, [r3]
 325 014e 1A07     		lsl	r2, r3, #28
 326 0150 01D4     		bmi	.L56
 327 0152 FF20     		mov	r0, #255
 328              	.LVL21:
 329 0154 03E0     		b	.L51
 330              	.LVL22:
 331              	.L56:
 320:i2c.c         ****     {
 321:i2c.c         ****       //read data
 322:i2c.c         ****       *pData = (tU8)I2C_I2DAT;
 332              		.loc 1 322 0
 333 0156 044B     		ldr	r3, .L60+8
 334 0158 1B68     		ldr	r3, [r3]
 335 015a 0B70     		strb	r3, [r1]
 336              	.L59:
 337 015c 0120     		mov	r0, #1
 338              	.LVL23:
 339              	.L51:
 340              	.LVL24:
 323:i2c.c         ****     }
 324:i2c.c         ****     else
 325:i2c.c         ****     {
 326:i2c.c         ****       //No data available
 327:i2c.c         ****       retCode = I2C_CODE_EMPTY;
 328:i2c.c         ****     }
 329:i2c.c         ****   }
 330:i2c.c         **** 
 331:i2c.c         ****   return retCode;
 332:i2c.c         **** }
 341              		.loc 1 332 0
 342              		@ sp needed for prologue
 343 015e 7047     		bx	lr
 344              	.L61:
 345              		.align	2
 346              	.L60:
 347 0160 00C001E0 		.word	-536756224
 348 0164 18C001E0 		.word	-536756200
ARM GAS  /cygdrive/c/DOCUME~1/deforce/LOKALA~1/Temp/ccDKvaBg.s 			page 13


 349 0168 08C001E0 		.word	-536756216
 350              	.LFE8:
 351              		.size	i2cGetChar, .-i2cGetChar
 352              		.align	2
 353              		.global	i2cWaitAfterTransmit
 354              		.code 16
 355              		.thumb_func
 356              		.type	i2cWaitAfterTransmit, %function
 357              	i2cWaitAfterTransmit:
 358              	.LFB9:
 333:i2c.c         **** 
 334:i2c.c         **** 
 335:i2c.c         **** /******************************************************************************
 336:i2c.c         ****  *
 337:i2c.c         ****  * Description:
 338:i2c.c         ****  *    Wait after transmission of a byte until done
 339:i2c.c         ****  *
 340:i2c.c         ****  * Returns:
 341:i2c.c         ****  *    I2C_CODE_OK    - successful / done
 342:i2c.c         ****  *    I2C_CODE_ERROR - an error occured
 343:i2c.c         ****  *
 344:i2c.c         ****  *****************************************************************************/
 345:i2c.c         **** tS8
 346:i2c.c         **** i2cWaitAfterTransmit(void)
 347:i2c.c         **** {
 359              		.loc 1 347 0
 360              		@ lr needed for prologue
 361              	.LVL25:
 362              	.L76:
 363              	.LBB8:
 364              	.LBB9:
 365              		.loc 1 77 0
 366 016c 084B     		ldr	r3, .L77
 367              	.LVL26:
 368 016e 1B68     		ldr	r3, [r3]
 369 0170 1A07     		lsl	r2, r3, #28
 370 0172 FBD5     		bpl	.L76
 371              		.loc 1 81 0
 372 0174 074B     		ldr	r3, .L77+4
 373 0176 1B68     		ldr	r3, [r3]
 374              	.LBE9:
 375              	.LBE8:
 348:i2c.c         ****   tU8 status = 0;
 349:i2c.c         **** 
 350:i2c.c         ****   //wait until data transmitted
 351:i2c.c         ****   while(1)
 352:i2c.c         ****   {
 353:i2c.c         ****     //get new status
 354:i2c.c         ****     status = i2cCheckStatus();
 376              		.loc 1 354 0
 377 0178 1B06     		lsl	r3, r3, #24
 378 017a 1B0E     		lsr	r3, r3, #24
 379              	.LVL27:
 355:i2c.c         **** 
 356:i2c.c         ****     /* 
 357:i2c.c         ****      * SLA+W transmitted, ACK received or
 358:i2c.c         ****      * data byte transmitted, ACK received
ARM GAS  /cygdrive/c/DOCUME~1/deforce/LOKALA~1/Temp/ccDKvaBg.s 			page 14


 359:i2c.c         ****      */
 360:i2c.c         ****     if( (status == 0x18) || (status == 0x28) )
 380              		.loc 1 360 0
 381 017c 182B     		cmp	r3, #24
 382 017e 05D0     		beq	.L65
 383 0180 282B     		cmp	r3, #40
 384 0182 03D0     		beq	.L65
 361:i2c.c         ****     {
 362:i2c.c         ****       //data transmitted and ACK received
 363:i2c.c         ****       return I2C_CODE_OK;
 364:i2c.c         ****     }
 365:i2c.c         **** 
 366:i2c.c         ****     //no relevant status information
 367:i2c.c         ****     else if(status != 0xf8 )
 385              		.loc 1 367 0
 386 0184 F82B     		cmp	r3, #248
 387 0186 F1D0     		beq	.L76
 388 0188 0020     		mov	r0, #0
 389 018a 00E0     		b	.L69
 390              	.L65:
 391 018c 0120     		mov	r0, #1
 392              	.L69:
 368:i2c.c         ****     {
 369:i2c.c         ****       //error
 370:i2c.c         ****       return I2C_CODE_ERROR;
 371:i2c.c         ****     }
 372:i2c.c         ****   }
 373:i2c.c         **** }
 393              		.loc 1 373 0
 394              		@ sp needed for prologue
 395 018e 7047     		bx	lr
 396              	.L78:
 397              		.align	2
 398              	.L77:
 399 0190 00C001E0 		.word	-536756224
 400 0194 04C001E0 		.word	-536756220
 401              	.LFE9:
 402              		.size	i2cWaitAfterTransmit, .-i2cWaitAfterTransmit
 403              		.align	2
 404              		.global	i2cPutCharAndWait
 405              		.code 16
 406              		.thumb_func
 407              		.type	i2cPutCharAndWait, %function
 408              	i2cPutCharAndWait:
 409              	.LFB10:
 374:i2c.c         **** 
 375:i2c.c         **** 
 376:i2c.c         **** /******************************************************************************
 377:i2c.c         ****  *
 378:i2c.c         ****  * Description:
 379:i2c.c         ****  *    Sends a character on the I2C network and wait until done
 380:i2c.c         ****  *
 381:i2c.c         ****  * Params:
 382:i2c.c         ****  *    [in] data - the character to send
 383:i2c.c         ****  *
 384:i2c.c         ****  * Returns:
 385:i2c.c         ****  *    I2C_CODE_OK    - successful
ARM GAS  /cygdrive/c/DOCUME~1/deforce/LOKALA~1/Temp/ccDKvaBg.s 			page 15


 386:i2c.c         ****  *    I2C_CODE_BUSY  - data register is not ready -> byte was not sent
 387:i2c.c         ****  *    I2C_CODE_ERROR - an error occured
 388:i2c.c         ****  *
 389:i2c.c         ****  *****************************************************************************/
 390:i2c.c         **** tS8
 391:i2c.c         **** i2cPutCharAndWait(tU8 data)
 392:i2c.c         **** {
 410              		.loc 1 392 0
 411 0198 10B5     		push	{r4, lr}
 412              	.LCFI1:
 413              	.LVL28:
 414 019a 0006     		lsl	r0, r0, #24
 415              	.LVL29:
 416 019c 040E     		lsr	r4, r0, #24
 417              	.L81:
 393:i2c.c         ****   tS8 retCode;
 394:i2c.c         ****   
 395:i2c.c         ****   retCode = i2cPutChar(data);
 396:i2c.c         ****   while(retCode == (tS8)I2C_CODE_BUSY)
 397:i2c.c         ****     retCode = i2cPutChar(data);
 418              		.loc 1 397 0
 419 019e 201C     		mov	r0, r4
 420 01a0 FFF7FEFF 		bl	i2cPutChar
 421              	.LVL30:
 422              		.loc 1 396 0
 423 01a4 FE28     		cmp	r0, #254
 424 01a6 FAD0     		beq	.L81
 398:i2c.c         **** 
 399:i2c.c         ****   if(retCode == I2C_CODE_OK)
 425              		.loc 1 399 0
 426 01a8 0128     		cmp	r0, #1
 427 01aa 01D1     		bne	.L83
 400:i2c.c         ****     retCode = i2cWaitAfterTransmit();
 428              		.loc 1 400 0
 429 01ac FFF7FEFF 		bl	i2cWaitAfterTransmit
 430              	.LVL31:
 431              	.L83:
 432              	.LVL32:
 401:i2c.c         **** 
 402:i2c.c         ****   return retCode;
 403:i2c.c         **** }
 433              		.loc 1 403 0
 434              		@ sp needed for prologue
 435 01b0 10BC     		pop	{r4}
 436 01b2 02BC     		pop	{r1}
 437 01b4 0847     		bx	r1
 438              	.LFE10:
 439              		.size	i2cPutCharAndWait, .-i2cPutCharAndWait
 440 01b6 0000     		.align	2
 441              		.global	i2cWrite
 442              		.code 16
 443              		.thumb_func
 444              		.type	i2cWrite, %function
 445              	i2cWrite:
 446              	.LFB11:
 404:i2c.c         **** 
 405:i2c.c         **** /******************************************************************************
ARM GAS  /cygdrive/c/DOCUME~1/deforce/LOKALA~1/Temp/ccDKvaBg.s 			page 16


 406:i2c.c         ****  *
 407:i2c.c         ****  * Description:
 408:i2c.c         ****  *    Sends data on the I2C network
 409:i2c.c         ****  *
 410:i2c.c         ****  *    Note: No stop condition is generated after the transmission - this must
 411:i2c.c         ****  *          be done after calling this function.
 412:i2c.c         ****  *
 413:i2c.c         ****  * Params:
 414:i2c.c         ****  *    [in] addr     - address
 415:i2c.c         ****  *    [in] extraCmd - controls if 0, 1 or 2 extra bytes shall be transmitted
 416:i2c.c         ****  *                    before data buffer
 417:i2c.c         ****  *    [in] extra    - byte of word to be transmitted before data buffer
 418:i2c.c         ****  *    [in] pData    - data to transmit
 419:i2c.c         ****  *    [in] len      - number of bytes to transmit
 420:i2c.c         ****  *
 421:i2c.c         ****  * Returns:
 422:i2c.c         ****  *    I2C_CODE_OK    - successful
 423:i2c.c         ****  *    I2C_CODE_ERROR - an error occured
 424:i2c.c         ****  *
 425:i2c.c         ****  *****************************************************************************/
 426:i2c.c         **** tS8
 427:i2c.c         **** i2cWrite(tU8  addr,
 428:i2c.c         ****          tU8  extraCmd,
 429:i2c.c         ****          tU16 extra,
 430:i2c.c         ****          tU8* pData,
 431:i2c.c         ****          tU16 len)
 432:i2c.c         **** {
 447              		.loc 1 432 0
 448 01b8 F0B5     		push	{r4, r5, r6, r7, lr}
 449              	.LCFI2:
 450              	.LVL33:
 451 01ba 83B0     		sub	sp, sp, #12
 452              	.LCFI3:
 453              		.loc 1 432 0
 454 01bc 0193     		str	r3, [sp, #4]
 455 01be 089B     		ldr	r3, [sp, #32]
 456              	.LVL34:
 457 01c0 1504     		lsl	r5, r2, #16
 458 01c2 1B04     		lsl	r3, r3, #16
 459 01c4 0006     		lsl	r0, r0, #24
 460              	.LVL35:
 461 01c6 0906     		lsl	r1, r1, #24
 462              	.LVL36:
 463 01c8 2A0C     		lsr	r2, r5, #16
 464              	.LVL37:
 465 01ca 1B0C     		lsr	r3, r3, #16
 466 01cc 070E     		lsr	r7, r0, #24
 467              	.LVL38:
 468 01ce 0E0E     		lsr	r6, r1, #24
 469              	.LVL39:
 470 01d0 0292     		str	r2, [sp, #8]
 471              	.LVL40:
 472 01d2 0093     		str	r3, [sp]
 433:i2c.c         ****   tS8 retCode = 0;
 434:i2c.c         ****   tU8 i       = 0;
 435:i2c.c         **** 
 436:i2c.c         ****   do
ARM GAS  /cygdrive/c/DOCUME~1/deforce/LOKALA~1/Temp/ccDKvaBg.s 			page 17


 437:i2c.c         ****   {
 438:i2c.c         ****     //generate Start condition
 439:i2c.c         ****     retCode = i2cStart();
 473              		.loc 1 439 0
 474 01d4 FFF7FEFF 		bl	i2cStart
 475 01d8 041C     		mov	r4, r0
 476              	.LVL41:
 440:i2c.c         ****     if(retCode != I2C_CODE_OK)
 477              		.loc 1 440 0
 478 01da 0128     		cmp	r0, #1
 479 01dc 29D1     		bne	.L87
 480              	.LVL42:
 441:i2c.c         ****       break;
 442:i2c.c         ****     
 443:i2c.c         ****     //Transmit slave address
 444:i2c.c         ****     retCode = i2cPutCharAndWait(addr);
 481              		.loc 1 444 0
 482 01de 381C     		mov	r0, r7
 483              	.LVL43:
 484 01e0 FFF7FEFF 		bl	i2cPutCharAndWait
 485 01e4 041C     		mov	r4, r0
 445:i2c.c         ****     if(retCode != I2C_CODE_OK)
 486              		.loc 1 445 0
 487 01e6 0128     		cmp	r0, #1
 488 01e8 23D1     		bne	.L87
 489              	.LVL44:
 446:i2c.c         ****       break;
 447:i2c.c         **** 
 448:i2c.c         ****     //Transmit MSB of extra word (if wanted)
 449:i2c.c         ****    	if (extraCmd == I2C_EXTRA_WORD)
 490              		.loc 1 449 0
 491 01ea 022E     		cmp	r6, #2
 492 01ec 05D1     		bne	.L90
 450:i2c.c         ****   	{
 451:i2c.c         ****       retCode = i2cPutCharAndWait((tU8)(extra >> 8));
 493              		.loc 1 451 0
 494 01ee 280E     		lsr	r0, r5, #24
 495              	.LVL45:
 496 01f0 FFF7FEFF 		bl	i2cPutCharAndWait
 452:i2c.c         ****       if(retCode != I2C_CODE_OK)
 497              		.loc 1 452 0
 498 01f4 0128     		cmp	r0, #1
 499 01f6 05D0     		beq	.L92
 500 01f8 0BE0     		b	.L100
 501              	.LVL46:
 502              	.L90:
 453:i2c.c         ****         break;
 454:i2c.c         ****     }
 455:i2c.c         **** 
 456:i2c.c         ****     //Transmit LSB of extra work (if wanted)
 457:i2c.c         ****    	if ((extraCmd == I2C_EXTRA_BYTE) || (extraCmd == I2C_EXTRA_WORD))
 503              		.loc 1 457 0
 504 01fa 731E     		sub	r3, r6, #1
 505 01fc 1B06     		lsl	r3, r3, #24
 506 01fe 1B0E     		lsr	r3, r3, #24
 507 0200 012B     		cmp	r3, #1
 508 0202 08D8     		bhi	.L94
ARM GAS  /cygdrive/c/DOCUME~1/deforce/LOKALA~1/Temp/ccDKvaBg.s 			page 18


 509              	.LVL47:
 510              	.L92:
 458:i2c.c         ****    	{
 459:i2c.c         ****       retCode = i2cPutCharAndWait((tU8)(extra & 0xff));
 511              		.loc 1 459 0
 512 0204 029B     		ldr	r3, [sp, #8]
 513 0206 1806     		lsl	r0, r3, #24
 514 0208 000E     		lsr	r0, r0, #24
 515 020a FFF7FEFF 		bl	i2cPutCharAndWait
 460:i2c.c         ****       if(retCode != I2C_CODE_OK)
 516              		.loc 1 460 0
 517 020e 0128     		cmp	r0, #1
 518 0210 01D0     		beq	.L94
 519              	.L100:
 461:i2c.c         ****         break;
 462:i2c.c         **** 	  }
 463:i2c.c         **** 
 464:i2c.c         ****     //wait until address transmitted and transmit data
 465:i2c.c         ****     for(i = 0; i < len; i++)
 466:i2c.c         ****     {
 467:i2c.c         ****       retCode = i2cPutCharAndWait(*pData);
 468:i2c.c         ****       if(retCode != I2C_CODE_OK)
 520              		.loc 1 468 0
 521 0212 041C     		mov	r4, r0
 522 0214 0DE0     		b	.L87
 523              	.LVL48:
 524              	.L94:
 525              		.loc 1 460 0
 526 0216 0025     		mov	r5, #0
 527 0218 06E0     		b	.L96
 528              	.L97:
 529              		.loc 1 467 0
 530 021a 019A     		ldr	r2, [sp, #4]
 531 021c A85C     		ldrb	r0, [r5, r2]
 532 021e FFF7FEFF 		bl	i2cPutCharAndWait
 533 0222 0135     		add	r5, r5, #1
 534              		.loc 1 468 0
 535 0224 0128     		cmp	r0, #1
 536 0226 F4D1     		bne	.L100
 537              	.LVL49:
 538              	.L96:
 539              		.loc 1 465 0
 540 0228 2B06     		lsl	r3, r5, #24
 541 022a 009A     		ldr	r2, [sp]
 542 022c 1B0E     		lsr	r3, r3, #24
 543 022e 9342     		cmp	r3, r2
 544 0230 F3D3     		bcc	.L97
 545              	.L87:
 469:i2c.c         ****         break;
 470:i2c.c         ****       pData++;
 471:i2c.c         ****     }
 472:i2c.c         ****   } while(0);
 473:i2c.c         **** 
 474:i2c.c         ****   return retCode;
 475:i2c.c         **** }
 546              		.loc 1 475 0
 547 0232 201C     		mov	r0, r4
ARM GAS  /cygdrive/c/DOCUME~1/deforce/LOKALA~1/Temp/ccDKvaBg.s 			page 19


 548 0234 03B0     		add	sp, sp, #12
 549              		@ sp needed for prologue
 550              	.LVL50:
 551              	.LVL51:
 552              	.LVL52:
 553 0236 F0BC     		pop	{r4, r5, r6, r7}
 554 0238 02BC     		pop	{r1}
 555 023a 0847     		bx	r1
 556              	.LFE11:
 557              		.size	i2cWrite, .-i2cWrite
 558              		.align	2
 559              		.global	i2cMyWrite
 560              		.code 16
 561              		.thumb_func
 562              		.type	i2cMyWrite, %function
 563              	i2cMyWrite:
 564              	.LFB12:
 476:i2c.c         **** 
 477:i2c.c         **** /******************************************************************************
 478:i2c.c         ****  *
 479:i2c.c         ****  * Description:
 480:i2c.c         ****  *    Sends data on the I2C network
 481:i2c.c         ****  *
 482:i2c.c         ****  *    Note: No stop condition is generated after the transmission - this must
 483:i2c.c         ****  *          be done after calling this function.
 484:i2c.c         ****  *
 485:i2c.c         ****  * Params:
 486:i2c.c         ****  *    [in] addr     - address
 487:i2c.c         ****  *    [in] extraCmd - controls if 0, 1 or 2 extra bytes shall be transmitted
 488:i2c.c         ****  *                    before data buffer
 489:i2c.c         ****  *    [in] extra    - byte of word to be transmitted before data buffer
 490:i2c.c         ****  *    [in] pData    - data to transmit
 491:i2c.c         ****  *    [in] len      - number of bytes to transmit
 492:i2c.c         ****  *
 493:i2c.c         ****  * Returns:
 494:i2c.c         ****  *    I2C_CODE_OK    - successful
 495:i2c.c         ****  *    I2C_CODE_ERROR - an error occured
 496:i2c.c         ****  *
 497:i2c.c         ****  *****************************************************************************/
 498:i2c.c         **** tS8
 499:i2c.c         **** i2cMyWrite(tU8  addr,
 500:i2c.c         ****          tU8  byteAddr)
 501:i2c.c         **** {
 565              		.loc 1 501 0
 566 023c 30B5     		push	{r4, r5, lr}
 567              	.LCFI4:
 568              	.LVL53:
 569              		.loc 1 501 0
 570 023e 0006     		lsl	r0, r0, #24
 571              	.LVL54:
 572 0240 0906     		lsl	r1, r1, #24
 573              	.LVL55:
 574 0242 040E     		lsr	r4, r0, #24
 575              	.LVL56:
 576 0244 0D0E     		lsr	r5, r1, #24
 577              	.LVL57:
 502:i2c.c         ****   tS8 retCode = 0;
ARM GAS  /cygdrive/c/DOCUME~1/deforce/LOKALA~1/Temp/ccDKvaBg.s 			page 20


 503:i2c.c         **** 
 504:i2c.c         ****   do
 505:i2c.c         ****   {
 506:i2c.c         ****     //generate Start condition
 507:i2c.c         ****     retCode = i2cStart();
 578              		.loc 1 507 0
 579 0246 FFF7FEFF 		bl	i2cStart
 580              	.LVL58:
 508:i2c.c         ****     if(retCode != I2C_CODE_OK)
 581              		.loc 1 508 0
 582 024a 0128     		cmp	r0, #1
 583 024c 07D1     		bne	.L103
 509:i2c.c         ****       break;
 510:i2c.c         **** 
 511:i2c.c         ****     //Transmit slave address
 512:i2c.c         ****     retCode = i2cPutCharAndWait(addr);
 584              		.loc 1 512 0
 585 024e 201C     		mov	r0, r4
 586              	.LVL59:
 587 0250 FFF7FEFF 		bl	i2cPutCharAndWait
 588              	.LVL60:
 513:i2c.c         ****     if(retCode != I2C_CODE_OK)
 589              		.loc 1 513 0
 590 0254 0128     		cmp	r0, #1
 591 0256 02D1     		bne	.L103
 514:i2c.c         ****       break;
 515:i2c.c         **** 
 516:i2c.c         ****     //Transmit byte address
 517:i2c.c         ****     retCode = i2cPutCharAndWait(byteAddr);
 592              		.loc 1 517 0
 593 0258 281C     		mov	r0, r5
 594              	.LVL61:
 595 025a FFF7FEFF 		bl	i2cPutCharAndWait
 596              	.LVL62:
 597              	.L103:
 598              	.LVL63:
 518:i2c.c         ****     if(retCode != I2C_CODE_OK)
 519:i2c.c         ****       break;
 520:i2c.c         **** 
 521:i2c.c         ****   } while(0);
 522:i2c.c         **** 
 523:i2c.c         ****   return retCode;
 524:i2c.c         **** }
 599              		.loc 1 524 0
 600              		@ sp needed for prologue
 601              	.LVL64:
 602              	.LVL65:
 603 025e 30BC     		pop	{r4, r5}
 604 0260 02BC     		pop	{r1}
 605 0262 0847     		bx	r1
 606              	.LFE12:
 607              		.size	i2cMyWrite, .-i2cMyWrite
 608              		.align	2
 609              		.global	i2cRepeatStart
 610              		.code 16
 611              		.thumb_func
 612              		.type	i2cRepeatStart, %function
ARM GAS  /cygdrive/c/DOCUME~1/deforce/LOKALA~1/Temp/ccDKvaBg.s 			page 21


 613              	i2cRepeatStart:
 614              	.LFB5:
 615              		.loc 1 181 0
 616              		.loc 1 186 0
 617 0264 0E49     		ldr	r1, .L123
 618 0266 0B68     		ldr	r3, [r1]
 619 0268 2022     		mov	r2, #32
 620 026a 1343     		orr	r3, r3, r2
 621 026c 0B60     		str	r3, [r1]
 622              		.loc 1 181 0
 623              		@ lr needed for prologue
 624              		.loc 1 187 0
 625 026e 0822     		mov	r2, #8
 626              	.LVL66:
 627              	.L122:
 628 0270 0C4B     		ldr	r3, .L123+4
 629 0272 1A60     		str	r2, [r3]
 630              	.L121:
 631              	.LBB12:
 632              	.LBB13:
 633              		.loc 1 77 0
 634 0274 0A4B     		ldr	r3, .L123
 635 0276 1B68     		ldr	r3, [r3]
 636 0278 0822     		mov	r2, #8
 637 027a 1342     		tst	r3, r2
 638 027c FAD0     		beq	.L121
 639              		.loc 1 81 0
 640 027e 0A4B     		ldr	r3, .L123+8
 641 0280 1B68     		ldr	r3, [r3]
 642              	.LBE13:
 643              	.LBE12:
 644              		.loc 1 192 0
 645 0282 1B06     		lsl	r3, r3, #24
 646 0284 180E     		lsr	r0, r3, #24
 647              		.loc 1 195 0
 648 0286 0828     		cmp	r0, #8
 649 0288 04D0     		beq	.L110
 650 028a 1028     		cmp	r0, #16
 651 028c 02D0     		beq	.L110
 652              		.loc 1 202 0
 653 028e F828     		cmp	r0, #248
 654 0290 01D1     		bne	.L115
 655 0292 EDE7     		b	.L122
 656              	.L110:
 657              		.loc 1 213 0
 658 0294 0120     		mov	r0, #1
 659              	.LVL67:
 660              	.L115:
 661              		.loc 1 216 0
 662 0296 034B     		ldr	r3, .L123+4
 663              	.LVL68:
 664 0298 2022     		mov	r2, #32
 665 029a 1A60     		str	r2, [r3]
 666              		.loc 1 219 0
 667              		@ sp needed for prologue
 668 029c 7047     		bx	lr
 669              	.L124:
ARM GAS  /cygdrive/c/DOCUME~1/deforce/LOKALA~1/Temp/ccDKvaBg.s 			page 22


 670 029e 0000     		.align	2
 671              	.L123:
 672 02a0 00C001E0 		.word	-536756224
 673 02a4 18C001E0 		.word	-536756200
 674 02a8 04C001E0 		.word	-536756220
 675              	.LFE5:
 676              		.size	i2cRepeatStart, .-i2cRepeatStart
 677              		.align	2
 678              		.global	i2cRead
 679              		.code 16
 680              		.thumb_func
 681              		.type	i2cRead, %function
 682              	i2cRead:
 683              	.LFB14:
 525:i2c.c         **** 
 526:i2c.c         **** /******************************************************************************
 527:i2c.c         ****  *
 528:i2c.c         ****  * Description:
 529:i2c.c         ****  *    Waits till slave device returns ACK (after busy period)
 530:i2c.c         ****  *
 531:i2c.c         ****  * Params:
 532:i2c.c         ****  *    [in] addr  - address
 533:i2c.c         ****  *
 534:i2c.c         ****  * Returns:
 535:i2c.c         ****  *    I2C_CODE_OK or I2C_CODE_ERROR
 536:i2c.c         ****  *
 537:i2c.c         ****  *****************************************************************************/
 538:i2c.c         **** tS8 
 539:i2c.c         **** i2cPoll(tU8 addr)
 540:i2c.c         **** {
 541:i2c.c         ****   tS8 retCode  = I2C_CODE_OK;
 542:i2c.c         ****   tU8 status   = 0;
 543:i2c.c         ****   volatile tU8 deviceReady = FALSE;
 544:i2c.c         **** 
 545:i2c.c         ****   while(deviceReady == FALSE)
 546:i2c.c         ****   {
 547:i2c.c         ****     //Generate Start condition
 548:i2c.c         ****     retCode = i2cStart();
 549:i2c.c         **** 
 550:i2c.c         ****     //Transmit SLA+W
 551:i2c.c         ****     if(retCode == I2C_CODE_OK)
 552:i2c.c         ****     {
 553:i2c.c         ****       //write SLA+W
 554:i2c.c         ****       retCode = i2cPutChar(addr);
 555:i2c.c         ****       while(retCode == (tS8)I2C_CODE_BUSY)
 556:i2c.c         ****         retCode = i2cPutChar(addr);
 557:i2c.c         ****     }
 558:i2c.c         **** 
 559:i2c.c         ****     if(retCode == I2C_CODE_OK)
 560:i2c.c         ****     {
 561:i2c.c         ****       //Wait until SLA+W transmitted
 562:i2c.c         ****       //Get new status
 563:i2c.c         ****       status = i2cCheckStatus();
 564:i2c.c         **** 
 565:i2c.c         ****       if(status == 0x18)
 566:i2c.c         ****       {
 567:i2c.c         ****         //data transmitted and ACK received
ARM GAS  /cygdrive/c/DOCUME~1/deforce/LOKALA~1/Temp/ccDKvaBg.s 			page 23


 568:i2c.c         ****         deviceReady = TRUE;
 569:i2c.c         ****       }
 570:i2c.c         ****       else if(status == 0x20)
 571:i2c.c         ****       {
 572:i2c.c         ****         //data transmitted and ACK not received
 573:i2c.c         ****         //send start bit, start again
 574:i2c.c         ****         deviceReady = FALSE;
 575:i2c.c         ****       }
 576:i2c.c         ****       else if( status != 0xf8 )
 577:i2c.c         ****       {
 578:i2c.c         ****         //error
 579:i2c.c         ****         retCode = I2C_CODE_ERROR;
 580:i2c.c         ****         deviceReady = TRUE;
 581:i2c.c         ****       }
 582:i2c.c         ****     }
 583:i2c.c         **** 
 584:i2c.c         ****     //Generate Stop condition
 585:i2c.c         ****     i2cStop();
 586:i2c.c         ****   }
 587:i2c.c         **** 
 588:i2c.c         ****   return retCode;
 589:i2c.c         **** }
 590:i2c.c         **** 
 591:i2c.c         **** 
 592:i2c.c         **** /******************************************************************************
 593:i2c.c         ****  *
 594:i2c.c         ****  * Description:
 595:i2c.c         ****  *    Read a specified number of bytes from the I2C network.
 596:i2c.c         ****  *
 597:i2c.c         ****  *    Note: No start condition is generated in the beginningis must be
 598:i2c.c         ****  *          done before calling this function.
 599:i2c.c         ****  *
 600:i2c.c         ****  * Params:
 601:i2c.c         ****  *    [in] addr - address
 602:i2c.c         ****  *    [in] pBuf - receive buffer
 603:i2c.c         ****  *    [in] len  - number of bytes to receive
 604:i2c.c         ****  *
 605:i2c.c         ****  * Returns:
 606:i2c.c         ****  *    I2C_CODE_OK or I2C status code
 607:i2c.c         ****  *
 608:i2c.c         ****  *****************************************************************************/
 609:i2c.c         **** tS8
 610:i2c.c         **** i2cRead(tU8  addr,
 611:i2c.c         ****         tU8* pBuf,
 612:i2c.c         ****         tU16 len)
 613:i2c.c         **** {
 684              		.loc 1 613 0
 685 02ac F0B5     		push	{r4, r5, r6, r7, lr}
 686              	.LCFI5:
 687              	.LVL69:
 688 02ae 0006     		lsl	r0, r0, #24
 689              	.LVL70:
 690 02b0 1204     		lsl	r2, r2, #16
 691              	.LVL71:
 692 02b2 0E1C     		mov	r6, r1
 693 02b4 050E     		lsr	r5, r0, #24
 694              	.LVL72:
ARM GAS  /cygdrive/c/DOCUME~1/deforce/LOKALA~1/Temp/ccDKvaBg.s 			page 24


 695 02b6 170C     		lsr	r7, r2, #16
 696              	.LVL73:
 697              	.LVL74:
 698              	.L127:
 614:i2c.c         ****   tS8 retCode = 0;
 615:i2c.c         ****   tU8 status  = 0;
 616:i2c.c         ****   tU8 i       = 0;
 617:i2c.c         **** 
 618:i2c.c         ****   //write SLA+R
 619:i2c.c         ****   retCode = i2cPutChar(addr);
 620:i2c.c         ****   while(retCode == (tS8)I2C_CODE_BUSY)
 621:i2c.c         ****     retCode = i2cPutChar(addr);
 699              		.loc 1 621 0
 700 02b8 281C     		mov	r0, r5
 701 02ba FFF7FEFF 		bl	i2cPutChar
 702 02be 041C     		mov	r4, r0
 703              	.LVL75:
 704              		.loc 1 620 0
 705 02c0 FE28     		cmp	r0, #254
 706 02c2 F9D0     		beq	.L127
 707              	.LVL76:
 622:i2c.c         **** 
 623:i2c.c         ****   if(retCode == I2C_CODE_OK )
 708              		.loc 1 623 0
 709 02c4 012C     		cmp	r4, #1
 710 02c6 29D1     		bne	.L129
 711              	.LVL77:
 712 02c8 25E0     		b	.L131
 713              	.LVL78:
 714              	.L155:
 715              	.LBB16:
 716              	.LBB17:
 717              		.loc 1 77 0
 718 02ca 174B     		ldr	r3, .L156
 719              	.LVL79:
 720 02cc 1B68     		ldr	r3, [r3]
 721 02ce 1A07     		lsl	r2, r3, #28
 722 02d0 FBD5     		bpl	.L155
 723              		.loc 1 81 0
 724 02d2 164B     		ldr	r3, .L156+4
 725 02d4 1B68     		ldr	r3, [r3]
 726              	.LBE17:
 727              	.LBE16:
 624:i2c.c         ****   {
 625:i2c.c         ****     //wait until address transmitted and receive data
 626:i2c.c         ****     for(i = 1; i <= len; i++ )
 627:i2c.c         ****     {
 628:i2c.c         ****       //wait until data transmitted
 629:i2c.c         ****       while(1)
 630:i2c.c         ****       {
 631:i2c.c         ****         //get new status
 632:i2c.c         ****         status = i2cCheckStatus();
 728              		.loc 1 632 0
 729 02d6 1B06     		lsl	r3, r3, #24
 730 02d8 1B0E     		lsr	r3, r3, #24
 731              	.LVL80:
 633:i2c.c         **** 
ARM GAS  /cygdrive/c/DOCUME~1/deforce/LOKALA~1/Temp/ccDKvaBg.s 			page 25


 634:i2c.c         ****         /*
 635:i2c.c         ****          * SLA+R transmitted, ACK received or
 636:i2c.c         ****          * SLA+R transmitted, ACK not received
 637:i2c.c         ****          * data byte received in master mode, ACK transmitted
 638:i2c.c         ****          */
 639:i2c.c         ****         if((status == 0x40 ) || (status == 0x48 ) || (status == 0x50 ))
 732              		.loc 1 639 0
 733 02da 402B     		cmp	r3, #64
 734 02dc 03D0     		beq	.L134
 735 02de 482B     		cmp	r3, #72
 736 02e0 01D0     		beq	.L134
 737 02e2 502B     		cmp	r3, #80
 738 02e4 0FD1     		bne	.L137
 739              	.L134:
 640:i2c.c         ****         {
 641:i2c.c         ****           //data received
 642:i2c.c         ****           if(i == len)
 740              		.loc 1 642 0
 741 02e6 BC42     		cmp	r4, r7
 742 02e8 01D1     		bne	.L138
 643:i2c.c         ****           {
 644:i2c.c         ****             //Set generate NACK
 645:i2c.c         ****             retCode = i2cGetChar(I2C_MODE_ACK1, pBuf);
 743              		.loc 1 645 0
 744 02ea 0120     		mov	r0, #1
 745              	.LVL81:
 746 02ec 00E0     		b	.L154
 747              	.LVL82:
 748              	.L138:
 646:i2c.c         ****           }
 647:i2c.c         ****           else
 648:i2c.c         ****           {
 649:i2c.c         ****             retCode = i2cGetChar(I2C_MODE_ACK0, pBuf);
 749              		.loc 1 649 0
 750 02ee 0020     		mov	r0, #0
 751              	.LVL83:
 752              	.L154:
 753 02f0 311C     		mov	r1, r6
 754 02f2 FFF7FEFF 		bl	i2cGetChar
 755              	.LVL84:
 756              	.L142:
 650:i2c.c         ****           }
 651:i2c.c         **** 
 652:i2c.c         ****           //Read data
 653:i2c.c         ****           retCode = i2cGetChar(I2C_MODE_READ, pBuf);
 654:i2c.c         ****           while(retCode == (tS8)I2C_CODE_EMPTY)
 655:i2c.c         ****             retCode = i2cGetChar(I2C_MODE_READ, pBuf);
 757              		.loc 1 655 0
 758 02f6 0220     		mov	r0, #2
 759 02f8 311C     		mov	r1, r6
 760 02fa FFF7FEFF 		bl	i2cGetChar
 761              	.LVL85:
 762              		.loc 1 654 0
 763 02fe FF28     		cmp	r0, #255
 764 0300 F9D0     		beq	.L142
 656:i2c.c         ****           pBuf++;
 765              		.loc 1 656 0
ARM GAS  /cygdrive/c/DOCUME~1/deforce/LOKALA~1/Temp/ccDKvaBg.s 			page 26


 766 0302 0136     		add	r6, r6, #1
 767 0304 04E0     		b	.L144
 768              	.LVL86:
 769              	.L137:
 657:i2c.c         ****           break;
 658:i2c.c         ****         }
 659:i2c.c         **** 
 660:i2c.c         ****         //no relevant status information
 661:i2c.c         ****         else if(status != 0xf8 )
 770              		.loc 1 661 0
 771 0306 F82B     		cmp	r3, #248
 772 0308 DFD0     		beq	.L155
 662:i2c.c         ****         {
 663:i2c.c         ****           //error
 664:i2c.c         ****           i = len;
 773              		.loc 1 664 0
 774 030a 3B06     		lsl	r3, r7, #24
 775              	.LVL87:
 776 030c 1C0E     		lsr	r4, r3, #24
 777 030e 0020     		mov	r0, #0
 778              	.LVL88:
 779              	.L144:
 780              		.loc 1 626 0
 781 0310 631C     		add	r3, r4, #1
 782 0312 1B06     		lsl	r3, r3, #24
 783 0314 1C0E     		lsr	r4, r3, #24
 784              	.LVL89:
 785              	.L131:
 786              	.LVL90:
 787 0316 BC42     		cmp	r4, r7
 788 0318 D7D9     		bls	.L155
 789              	.LVL91:
 790 031a 041C     		mov	r4, r0
 791              	.LVL92:
 792              	.L129:
 665:i2c.c         ****           retCode = I2C_CODE_ERROR;
 666:i2c.c         ****           break;
 667:i2c.c         ****         }
 668:i2c.c         ****       }
 669:i2c.c         ****     }
 670:i2c.c         ****   }
 671:i2c.c         **** 
 672:i2c.c         ****   //Generate Stop condition
 673:i2c.c         ****   i2cStop();
 793              		.loc 1 673 0
 794 031c FFF7FEFF 		bl	i2cStop
 795              	.LVL93:
 674:i2c.c         **** 
 675:i2c.c         ****   return retCode;
 676:i2c.c         **** }
 796              		.loc 1 676 0
 797 0320 201C     		mov	r0, r4
 798              		@ sp needed for prologue
 799              	.LVL94:
 800              	.LVL95:
 801              	.LVL96:
 802              	.LVL97:
ARM GAS  /cygdrive/c/DOCUME~1/deforce/LOKALA~1/Temp/ccDKvaBg.s 			page 27


 803 0322 F0BC     		pop	{r4, r5, r6, r7}
 804 0324 02BC     		pop	{r1}
 805 0326 0847     		bx	r1
 806              	.L157:
 807              		.align	2
 808              	.L156:
 809 0328 00C001E0 		.word	-536756224
 810 032c 04C001E0 		.word	-536756220
 811              	.LFE14:
 812              		.size	i2cRead, .-i2cRead
 813              		.align	2
 814              		.global	i2cPoll
 815              		.code 16
 816              		.thumb_func
 817              		.type	i2cPoll, %function
 818              	i2cPoll:
 819              	.LFB13:
 820              		.loc 1 540 0
 821 0330 30B5     		push	{r4, r5, lr}
 822              	.LCFI6:
 823              	.LVL98:
 824 0332 81B0     		sub	sp, sp, #4
 825              	.LCFI7:
 826              		.loc 1 540 0
 827 0334 0006     		lsl	r0, r0, #24
 828              	.LVL99:
 829              		.loc 1 543 0
 830 0336 6B46     		mov	r3, sp
 831 0338 0022     		mov	r2, #0
 832 033a 0333     		add	r3, r3, #3
 833              		.loc 1 540 0
 834 033c 050E     		lsr	r5, r0, #24
 835              	.LVL100:
 836              		.loc 1 543 0
 837 033e 0124     		mov	r4, #1
 838              	.LVL101:
 839 0340 1A70     		strb	r2, [r3]
 840              	.LVL102:
 841 0342 28E0     		b	.L159
 842              	.LVL103:
 843              	.L160:
 844              		.loc 1 548 0
 845 0344 FFF7FEFF 		bl	i2cStart
 846              	.LVL104:
 847 0348 041C     		mov	r4, r0
 848              		.loc 1 551 0
 849 034a 0128     		cmp	r0, #1
 850 034c 21D1     		bne	.L161
 851              	.LVL105:
 852              	.L164:
 853              		.loc 1 556 0
 854 034e 281C     		mov	r0, r5
 855              	.LVL106:
 856 0350 FFF7FEFF 		bl	i2cPutChar
 857              	.LVL107:
 858              		.loc 1 555 0
 859 0354 FE28     		cmp	r0, #254
ARM GAS  /cygdrive/c/DOCUME~1/deforce/LOKALA~1/Temp/ccDKvaBg.s 			page 28


 860 0356 FAD0     		beq	.L164
 861 0358 041C     		mov	r4, r0
 862              	.LVL108:
 863              		.loc 1 559 0
 864 035a 0128     		cmp	r0, #1
 865 035c 19D1     		bne	.L161
 866              	.LVL109:
 867              	.L176:
 868              	.LBB20:
 869              	.LBB21:
 870              		.loc 1 77 0
 871 035e 134B     		ldr	r3, .L180
 872 0360 1B68     		ldr	r3, [r3]
 873 0362 1A07     		lsl	r2, r3, #28
 874 0364 FBD5     		bpl	.L176
 875              		.loc 1 81 0
 876 0366 124B     		ldr	r3, .L180+4
 877 0368 1B68     		ldr	r3, [r3]
 878              	.LBE21:
 879              	.LBE20:
 880              		.loc 1 563 0
 881 036a 1B06     		lsl	r3, r3, #24
 882 036c 1B0E     		lsr	r3, r3, #24
 883              	.LVL110:
 884              		.loc 1 565 0
 885 036e 182B     		cmp	r3, #24
 886 0370 01D1     		bne	.L169
 887              		.loc 1 568 0
 888 0372 0122     		mov	r2, #1
 889 0374 02E0     		b	.L179
 890              	.L169:
 891              		.loc 1 570 0
 892 0376 202B     		cmp	r3, #32
 893 0378 04D1     		bne	.L171
 894              		.loc 1 574 0
 895 037a 0022     		mov	r2, #0
 896              	.L179:
 897 037c 6B46     		mov	r3, sp
 898              	.LVL111:
 899 037e 0333     		add	r3, r3, #3
 900 0380 1A70     		strb	r2, [r3]
 901 0382 06E0     		b	.L161
 902              	.LVL112:
 903              	.L171:
 904              		.loc 1 576 0
 905 0384 F82B     		cmp	r3, #248
 906 0386 04D0     		beq	.L161
 907              		.loc 1 580 0
 908 0388 6B46     		mov	r3, sp
 909              	.LVL113:
 910 038a 0122     		mov	r2, #1
 911 038c 0333     		add	r3, r3, #3
 912 038e 1A70     		strb	r2, [r3]
 913 0390 0024     		mov	r4, #0
 914              	.LVL114:
 915              	.L161:
 916              		.loc 1 585 0
ARM GAS  /cygdrive/c/DOCUME~1/deforce/LOKALA~1/Temp/ccDKvaBg.s 			page 29


 917 0392 FFF7FEFF 		bl	i2cStop
 918              	.LVL115:
 919              	.L159:
 920              		.loc 1 545 0
 921 0396 6B46     		mov	r3, sp
 922 0398 0333     		add	r3, r3, #3
 923 039a 1B78     		ldrb	r3, [r3]
 924 039c 002B     		cmp	r3, #0
 925 039e D1D0     		beq	.L160
 926              	.LVL116:
 927              		.loc 1 589 0
 928 03a0 201C     		mov	r0, r4
 929 03a2 01B0     		add	sp, sp, #4
 930              		@ sp needed for prologue
 931              	.LVL117:
 932              	.LVL118:
 933 03a4 30BC     		pop	{r4, r5}
 934 03a6 02BC     		pop	{r1}
 935 03a8 0847     		bx	r1
 936              	.L181:
 937 03aa 0000     		.align	2
 938              	.L180:
 939 03ac 00C001E0 		.word	-536756224
 940 03b0 04C001E0 		.word	-536756220
 941              	.LFE13:
 942              		.size	i2cPoll, .-i2cPoll
 943              		.section	.debug_frame,"",%progbits
 944              	.Lframe0:
 945 0000 0C000000 		.4byte	.LECIE0-.LSCIE0
 946              	.LSCIE0:
 947 0004 FFFFFFFF 		.4byte	0xffffffff
 948 0008 01       		.byte	0x1
 949 0009 00       		.ascii	"\000"
 950 000a 01       		.uleb128 0x1
 951 000b 7C       		.sleb128 -4
 952 000c 0E       		.byte	0xe
 953 000d 0C       		.byte	0xc
 954 000e 0D       		.uleb128 0xd
 955 000f 00       		.uleb128 0x0
 956              		.align	2
 957              	.LECIE0:
 958              	.LSFDE0:
 959 0010 0C000000 		.4byte	.LEFDE0-.LASFDE0
 960              	.LASFDE0:
 961 0014 00000000 		.4byte	.Lframe0
 962 0018 00000000 		.4byte	.LFB2
 963 001c 1C000000 		.4byte	.LFE2-.LFB2
 964              		.align	2
 965              	.LEFDE0:
 966              	.LSFDE2:
 967 0020 14000000 		.4byte	.LEFDE2-.LASFDE2
 968              	.LASFDE2:
 969 0024 00000000 		.4byte	.Lframe0
 970 0028 1C000000 		.4byte	.LFB3
 971 002c 70000000 		.4byte	.LFE3-.LFB3
 972 0030 42       		.byte	0x4
 973              		.4byte	.LCFI0-.LFB3
ARM GAS  /cygdrive/c/DOCUME~1/deforce/LOKALA~1/Temp/ccDKvaBg.s 			page 30


 974 0031 0E       		.byte	0xe
 975 0032 08       		.uleb128 0x8
 976 0033 84       		.byte	0x84
 977 0034 02       		.uleb128 0x2
 978 0035 8E       		.byte	0x8e
 979 0036 01       		.uleb128 0x1
 980 0037 00       		.align	2
 981              	.LEFDE2:
 982              	.LSFDE4:
 983 0038 0C000000 		.4byte	.LEFDE4-.LASFDE4
 984              	.LASFDE4:
 985 003c 00000000 		.4byte	.Lframe0
 986 0040 8C000000 		.4byte	.LFB4
 987 0044 44000000 		.4byte	.LFE4-.LFB4
 988              		.align	2
 989              	.LEFDE4:
 990              	.LSFDE6:
 991 0048 0C000000 		.4byte	.LEFDE6-.LASFDE6
 992              	.LASFDE6:
 993 004c 00000000 		.4byte	.Lframe0
 994 0050 D0000000 		.4byte	.LFB6
 995 0054 24000000 		.4byte	.LFE6-.LFB6
 996              		.align	2
 997              	.LEFDE6:
 998              	.LSFDE8:
 999 0058 0C000000 		.4byte	.LEFDE8-.LASFDE8
 1000              	.LASFDE8:
 1001 005c 00000000 		.4byte	.Lframe0
 1002 0060 F4000000 		.4byte	.LFB7
 1003 0064 28000000 		.4byte	.LFE7-.LFB7
 1004              		.align	2
 1005              	.LEFDE8:
 1006              	.LSFDE10:
 1007 0068 0C000000 		.4byte	.LEFDE10-.LASFDE10
 1008              	.LASFDE10:
 1009 006c 00000000 		.4byte	.Lframe0
 1010 0070 1C010000 		.4byte	.LFB8
 1011 0074 50000000 		.4byte	.LFE8-.LFB8
 1012              		.align	2
 1013              	.LEFDE10:
 1014              	.LSFDE12:
 1015 0078 0C000000 		.4byte	.LEFDE12-.LASFDE12
 1016              	.LASFDE12:
 1017 007c 00000000 		.4byte	.Lframe0
 1018 0080 6C010000 		.4byte	.LFB9
 1019 0084 2C000000 		.4byte	.LFE9-.LFB9
 1020              		.align	2
 1021              	.LEFDE12:
 1022              	.LSFDE14:
 1023 0088 14000000 		.4byte	.LEFDE14-.LASFDE14
 1024              	.LASFDE14:
 1025 008c 00000000 		.4byte	.Lframe0
 1026 0090 98010000 		.4byte	.LFB10
 1027 0094 1E000000 		.4byte	.LFE10-.LFB10
 1028 0098 42       		.byte	0x4
 1029              		.4byte	.LCFI1-.LFB10
 1030 0099 0E       		.byte	0xe
ARM GAS  /cygdrive/c/DOCUME~1/deforce/LOKALA~1/Temp/ccDKvaBg.s 			page 31


 1031 009a 08       		.uleb128 0x8
 1032 009b 84       		.byte	0x84
 1033 009c 02       		.uleb128 0x2
 1034 009d 8E       		.byte	0x8e
 1035 009e 01       		.uleb128 0x1
 1036 009f 00       		.align	2
 1037              	.LEFDE14:
 1038              	.LSFDE16:
 1039 00a0 1C000000 		.4byte	.LEFDE16-.LASFDE16
 1040              	.LASFDE16:
 1041 00a4 00000000 		.4byte	.Lframe0
 1042 00a8 B8010000 		.4byte	.LFB11
 1043 00ac 84000000 		.4byte	.LFE11-.LFB11
 1044 00b0 42       		.byte	0x4
 1045              		.4byte	.LCFI2-.LFB11
 1046 00b1 0E       		.byte	0xe
 1047 00b2 14       		.uleb128 0x14
 1048 00b3 84       		.byte	0x84
 1049 00b4 05       		.uleb128 0x5
 1050 00b5 85       		.byte	0x85
 1051 00b6 04       		.uleb128 0x4
 1052 00b7 86       		.byte	0x86
 1053 00b8 03       		.uleb128 0x3
 1054 00b9 87       		.byte	0x87
 1055 00ba 02       		.uleb128 0x2
 1056 00bb 8E       		.byte	0x8e
 1057 00bc 01       		.uleb128 0x1
 1058 00bd 42       		.byte	0x4
 1059              		.4byte	.LCFI3-.LCFI2
 1060 00be 0E       		.byte	0xe
 1061 00bf 20       		.uleb128 0x20
 1062              		.align	2
 1063              	.LEFDE16:
 1064              	.LSFDE18:
 1065 00c0 18000000 		.4byte	.LEFDE18-.LASFDE18
 1066              	.LASFDE18:
 1067 00c4 00000000 		.4byte	.Lframe0
 1068 00c8 3C020000 		.4byte	.LFB12
 1069 00cc 28000000 		.4byte	.LFE12-.LFB12
 1070 00d0 42       		.byte	0x4
 1071              		.4byte	.LCFI4-.LFB12
 1072 00d1 0E       		.byte	0xe
 1073 00d2 0C       		.uleb128 0xc
 1074 00d3 84       		.byte	0x84
 1075 00d4 03       		.uleb128 0x3
 1076 00d5 85       		.byte	0x85
 1077 00d6 02       		.uleb128 0x2
 1078 00d7 8E       		.byte	0x8e
 1079 00d8 01       		.uleb128 0x1
 1080 00d9 000000   		.align	2
 1081              	.LEFDE18:
 1082              	.LSFDE20:
 1083 00dc 0C000000 		.4byte	.LEFDE20-.LASFDE20
 1084              	.LASFDE20:
 1085 00e0 00000000 		.4byte	.Lframe0
 1086 00e4 64020000 		.4byte	.LFB5
 1087 00e8 48000000 		.4byte	.LFE5-.LFB5
ARM GAS  /cygdrive/c/DOCUME~1/deforce/LOKALA~1/Temp/ccDKvaBg.s 			page 32


 1088              		.align	2
 1089              	.LEFDE20:
 1090              	.LSFDE22:
 1091 00ec 1C000000 		.4byte	.LEFDE22-.LASFDE22
 1092              	.LASFDE22:
 1093 00f0 00000000 		.4byte	.Lframe0
 1094 00f4 AC020000 		.4byte	.LFB14
 1095 00f8 84000000 		.4byte	.LFE14-.LFB14
 1096 00fc 42       		.byte	0x4
 1097              		.4byte	.LCFI5-.LFB14
 1098 00fd 0E       		.byte	0xe
 1099 00fe 14       		.uleb128 0x14
 1100 00ff 84       		.byte	0x84
 1101 0100 05       		.uleb128 0x5
 1102 0101 85       		.byte	0x85
 1103 0102 04       		.uleb128 0x4
 1104 0103 86       		.byte	0x86
 1105 0104 03       		.uleb128 0x3
 1106 0105 87       		.byte	0x87
 1107 0106 02       		.uleb128 0x2
 1108 0107 8E       		.byte	0x8e
 1109 0108 01       		.uleb128 0x1
 1110 0109 000000   		.align	2
 1111              	.LEFDE22:
 1112              	.LSFDE24:
 1113 010c 18000000 		.4byte	.LEFDE24-.LASFDE24
 1114              	.LASFDE24:
 1115 0110 00000000 		.4byte	.Lframe0
 1116 0114 30030000 		.4byte	.LFB13
 1117 0118 84000000 		.4byte	.LFE13-.LFB13
 1118 011c 42       		.byte	0x4
 1119              		.4byte	.LCFI6-.LFB13
 1120 011d 0E       		.byte	0xe
 1121 011e 0C       		.uleb128 0xc
 1122 011f 84       		.byte	0x84
 1123 0120 03       		.uleb128 0x3
 1124 0121 85       		.byte	0x85
 1125 0122 02       		.uleb128 0x2
 1126 0123 8E       		.byte	0x8e
 1127 0124 01       		.uleb128 0x1
 1128 0125 42       		.byte	0x4
 1129              		.4byte	.LCFI7-.LCFI6
 1130 0126 0E       		.byte	0xe
 1131 0127 10       		.uleb128 0x10
 1132              		.align	2
 1133              	.LEFDE24:
 1134              		.text
 1135              	.Letext0:
 1136              		.section	.debug_loc,"",%progbits
 1137              	.Ldebug_loc0:
 1138              	.LLST1:
 1139 0000 1C000000 		.4byte	.LFB3-.Ltext0
 1140 0004 1E000000 		.4byte	.LCFI0-.Ltext0
 1141 0008 0100     		.2byte	0x1
 1142 000a 5D       		.byte	0x5d
 1143 000b 1E000000 		.4byte	.LCFI0-.Ltext0
 1144 000f 8C000000 		.4byte	.LFE3-.Ltext0
ARM GAS  /cygdrive/c/DOCUME~1/deforce/LOKALA~1/Temp/ccDKvaBg.s 			page 33


 1145 0013 0200     		.2byte	0x2
 1146 0015 7D       		.byte	0x7d
 1147 0016 08       		.sleb128 8
 1148 0017 00000000 		.4byte	0x0
 1149 001b 00000000 		.4byte	0x0
 1150              	.LLST2:
 1151 001f 1E000000 		.4byte	.LVL0-.Ltext0
 1152 0023 3A000000 		.4byte	.LVL1-.Ltext0
 1153 0027 0100     		.2byte	0x1
 1154 0029 50       		.byte	0x50
 1155 002a 3A000000 		.4byte	.LVL1-.Ltext0
 1156 002e 3A000000 		.4byte	.LVL1-.Ltext0
 1157 0032 0100     		.2byte	0x1
 1158 0034 54       		.byte	0x54
 1159 0035 3E000000 		.4byte	.LVL2-.Ltext0
 1160 0039 44000000 		.4byte	.LVL3-.Ltext0
 1161 003d 0100     		.2byte	0x1
 1162 003f 50       		.byte	0x50
 1163 0040 44000000 		.4byte	.LVL3-.Ltext0
 1164 0044 48000000 		.4byte	.LVL4-.Ltext0
 1165 0048 0100     		.2byte	0x1
 1166 004a 51       		.byte	0x51
 1167 004b 48000000 		.4byte	.LVL4-.Ltext0
 1168 004f 68000000 		.4byte	.LVL5-.Ltext0
 1169 0053 0100     		.2byte	0x1
 1170 0055 54       		.byte	0x54
 1171 0056 00000000 		.4byte	0x0
 1172 005a 00000000 		.4byte	0x0
 1173              	.LLST4:
 1174 005e 94000000 		.4byte	.LVL6-.Ltext0
 1175 0062 BA000000 		.4byte	.LVL7-.Ltext0
 1176 0066 0100     		.2byte	0x1
 1177 0068 50       		.byte	0x50
 1178 0069 BA000000 		.4byte	.LVL7-.Ltext0
 1179 006d BC000000 		.4byte	.LVL8-.Ltext0
 1180 0071 0100     		.2byte	0x1
 1181 0073 50       		.byte	0x50
 1182 0074 00000000 		.4byte	0x0
 1183 0078 00000000 		.4byte	0x0
 1184              	.LLST5:
 1185 007c BA000000 		.4byte	.LVL7-.Ltext0
 1186 0080 BC000000 		.4byte	.LVL8-.Ltext0
 1187 0084 0100     		.2byte	0x1
 1188 0086 50       		.byte	0x50
 1189 0087 00000000 		.4byte	0x0
 1190 008b 00000000 		.4byte	0x0
 1191              	.LLST8:
 1192 008f F4000000 		.4byte	.LVL9-.Ltext0
 1193 0093 FA000000 		.4byte	.LVL10-.Ltext0
 1194 0097 0100     		.2byte	0x1
 1195 0099 50       		.byte	0x50
 1196 009a FE000000 		.4byte	.LVL11-.Ltext0
 1197 009e 04010000 		.4byte	.LVL12-.Ltext0
 1198 00a2 0100     		.2byte	0x1
 1199 00a4 50       		.byte	0x50
 1200 00a5 06010000 		.4byte	.LVL13-.Ltext0
 1201 00a9 10010000 		.4byte	.LVL14-.Ltext0
ARM GAS  /cygdrive/c/DOCUME~1/deforce/LOKALA~1/Temp/ccDKvaBg.s 			page 34


 1202 00ad 0100     		.2byte	0x1
 1203 00af 50       		.byte	0x50
 1204 00b0 00000000 		.4byte	0x0
 1205 00b4 00000000 		.4byte	0x0
 1206              	.LLST9:
 1207 00b8 04010000 		.4byte	.LVL12-.Ltext0
 1208 00bc 06010000 		.4byte	.LVL13-.Ltext0
 1209 00c0 0100     		.2byte	0x1
 1210 00c2 50       		.byte	0x50
 1211 00c3 10010000 		.4byte	.LVL14-.Ltext0
 1212 00c7 10010000 		.4byte	.LVL15-.Ltext0
 1213 00cb 0100     		.2byte	0x1
 1214 00cd 50       		.byte	0x50
 1215 00ce 00000000 		.4byte	0x0
 1216 00d2 00000000 		.4byte	0x0
 1217              	.LLST11:
 1218 00d6 1C010000 		.4byte	.LVL16-.Ltext0
 1219 00da 1E010000 		.4byte	.LVL17-.Ltext0
 1220 00de 0100     		.2byte	0x1
 1221 00e0 50       		.byte	0x50
 1222 00e1 20010000 		.4byte	.LVL18-.Ltext0
 1223 00e5 54010000 		.4byte	.LVL21-.Ltext0
 1224 00e9 0100     		.2byte	0x1
 1225 00eb 50       		.byte	0x50
 1226 00ec 56010000 		.4byte	.LVL22-.Ltext0
 1227 00f0 5E010000 		.4byte	.LVL23-.Ltext0
 1228 00f4 0100     		.2byte	0x1
 1229 00f6 50       		.byte	0x50
 1230 00f7 5E010000 		.4byte	.LVL23-.Ltext0
 1231 00fb 5E010000 		.4byte	.LVL24-.Ltext0
 1232 00ff 0100     		.2byte	0x1
 1233 0101 50       		.byte	0x50
 1234 0102 00000000 		.4byte	0x0
 1235 0106 00000000 		.4byte	0x0
 1236              	.LLST12:
 1237 010a 1C010000 		.4byte	.LVL16-.Ltext0
 1238 010e 26010000 		.4byte	.LVL19-.Ltext0
 1239 0112 0100     		.2byte	0x1
 1240 0114 51       		.byte	0x51
 1241 0115 36010000 		.4byte	.LVL20-.Ltext0
 1242 0119 6C010000 		.4byte	.LFE8-.Ltext0
 1243 011d 0100     		.2byte	0x1
 1244 011f 51       		.byte	0x51
 1245 0120 00000000 		.4byte	0x0
 1246 0124 00000000 		.4byte	0x0
 1247              	.LLST13:
 1248 0128 54010000 		.4byte	.LVL21-.Ltext0
 1249 012c 56010000 		.4byte	.LVL22-.Ltext0
 1250 0130 0100     		.2byte	0x1
 1251 0132 50       		.byte	0x50
 1252 0133 5E010000 		.4byte	.LVL23-.Ltext0
 1253 0137 5E010000 		.4byte	.LVL24-.Ltext0
 1254 013b 0100     		.2byte	0x1
 1255 013d 50       		.byte	0x50
 1256 013e 00000000 		.4byte	0x0
 1257 0142 00000000 		.4byte	0x0
 1258              	.LLST15:
ARM GAS  /cygdrive/c/DOCUME~1/deforce/LOKALA~1/Temp/ccDKvaBg.s 			page 35


 1259 0146 6C010000 		.4byte	.LVL25-.Ltext0
 1260 014a 6E010000 		.4byte	.LVL26-.Ltext0
 1261 014e 0100     		.2byte	0x1
 1262 0150 53       		.byte	0x53
 1263 0151 7C010000 		.4byte	.LVL27-.Ltext0
 1264 0155 98010000 		.4byte	.LFE9-.Ltext0
 1265 0159 0100     		.2byte	0x1
 1266 015b 53       		.byte	0x53
 1267 015c 00000000 		.4byte	0x0
 1268 0160 00000000 		.4byte	0x0
 1269              	.LLST16:
 1270 0164 98010000 		.4byte	.LFB10-.Ltext0
 1271 0168 9A010000 		.4byte	.LCFI1-.Ltext0
 1272 016c 0100     		.2byte	0x1
 1273 016e 5D       		.byte	0x5d
 1274 016f 9A010000 		.4byte	.LCFI1-.Ltext0
 1275 0173 B6010000 		.4byte	.LFE10-.Ltext0
 1276 0177 0200     		.2byte	0x2
 1277 0179 7D       		.byte	0x7d
 1278 017a 08       		.sleb128 8
 1279 017b 00000000 		.4byte	0x0
 1280 017f 00000000 		.4byte	0x0
 1281              	.LLST17:
 1282 0183 9A010000 		.4byte	.LVL28-.Ltext0
 1283 0187 9C010000 		.4byte	.LVL29-.Ltext0
 1284 018b 0100     		.2byte	0x1
 1285 018d 50       		.byte	0x50
 1286 018e 00000000 		.4byte	0x0
 1287 0192 00000000 		.4byte	0x0
 1288              	.LLST18:
 1289 0196 A4010000 		.4byte	.LVL30-.Ltext0
 1290 019a B0010000 		.4byte	.LVL31-.Ltext0
 1291 019e 0100     		.2byte	0x1
 1292 01a0 50       		.byte	0x50
 1293 01a1 B0010000 		.4byte	.LVL31-.Ltext0
 1294 01a5 B0010000 		.4byte	.LVL32-.Ltext0
 1295 01a9 0100     		.2byte	0x1
 1296 01ab 50       		.byte	0x50
 1297 01ac 00000000 		.4byte	0x0
 1298 01b0 00000000 		.4byte	0x0
 1299              	.LLST19:
 1300 01b4 B8010000 		.4byte	.LFB11-.Ltext0
 1301 01b8 BA010000 		.4byte	.LCFI2-.Ltext0
 1302 01bc 0100     		.2byte	0x1
 1303 01be 5D       		.byte	0x5d
 1304 01bf BA010000 		.4byte	.LCFI2-.Ltext0
 1305 01c3 BC010000 		.4byte	.LCFI3-.Ltext0
 1306 01c7 0200     		.2byte	0x2
 1307 01c9 7D       		.byte	0x7d
 1308 01ca 14       		.sleb128 20
 1309 01cb BC010000 		.4byte	.LCFI3-.Ltext0
 1310 01cf 3C020000 		.4byte	.LFE11-.Ltext0
 1311 01d3 0200     		.2byte	0x2
 1312 01d5 7D       		.byte	0x7d
 1313 01d6 20       		.sleb128 32
 1314 01d7 00000000 		.4byte	0x0
 1315 01db 00000000 		.4byte	0x0
ARM GAS  /cygdrive/c/DOCUME~1/deforce/LOKALA~1/Temp/ccDKvaBg.s 			page 36


 1316              	.LLST20:
 1317 01df BA010000 		.4byte	.LVL33-.Ltext0
 1318 01e3 C6010000 		.4byte	.LVL35-.Ltext0
 1319 01e7 0100     		.2byte	0x1
 1320 01e9 50       		.byte	0x50
 1321 01ea CE010000 		.4byte	.LVL38-.Ltext0
 1322 01ee 36020000 		.4byte	.LVL52-.Ltext0
 1323 01f2 0100     		.2byte	0x1
 1324 01f4 57       		.byte	0x57
 1325 01f5 00000000 		.4byte	0x0
 1326 01f9 00000000 		.4byte	0x0
 1327              	.LLST21:
 1328 01fd BA010000 		.4byte	.LVL33-.Ltext0
 1329 0201 C8010000 		.4byte	.LVL36-.Ltext0
 1330 0205 0100     		.2byte	0x1
 1331 0207 51       		.byte	0x51
 1332 0208 D0010000 		.4byte	.LVL39-.Ltext0
 1333 020c 36020000 		.4byte	.LVL51-.Ltext0
 1334 0210 0100     		.2byte	0x1
 1335 0212 56       		.byte	0x56
 1336 0213 00000000 		.4byte	0x0
 1337 0217 00000000 		.4byte	0x0
 1338              	.LLST22:
 1339 021b BA010000 		.4byte	.LVL33-.Ltext0
 1340 021f CA010000 		.4byte	.LVL37-.Ltext0
 1341 0223 0100     		.2byte	0x1
 1342 0225 52       		.byte	0x52
 1343 0226 D2010000 		.4byte	.LVL40-.Ltext0
 1344 022a 3C020000 		.4byte	.LFE11-.Ltext0
 1345 022e 0200     		.2byte	0x2
 1346 0230 91       		.byte	0x91
 1347 0231 7C       		.sleb128 -4
 1348 0232 00000000 		.4byte	0x0
 1349 0236 00000000 		.4byte	0x0
 1350              	.LLST23:
 1351 023a BA010000 		.4byte	.LVL33-.Ltext0
 1352 023e C0010000 		.4byte	.LVL34-.Ltext0
 1353 0242 0100     		.2byte	0x1
 1354 0244 53       		.byte	0x53
 1355 0245 C0010000 		.4byte	.LVL34-.Ltext0
 1356 0249 3C020000 		.4byte	.LFE11-.Ltext0
 1357 024d 0200     		.2byte	0x2
 1358 024f 91       		.byte	0x91
 1359 0250 78       		.sleb128 -8
 1360 0251 00000000 		.4byte	0x0
 1361 0255 00000000 		.4byte	0x0
 1362              	.LLST24:
 1363 0259 BA010000 		.4byte	.LVL33-.Ltext0
 1364 025d DE010000 		.4byte	.LVL42-.Ltext0
 1365 0261 0200     		.2byte	0x2
 1366 0263 91       		.byte	0x91
 1367 0264 00       		.sleb128 0
 1368 0265 DE010000 		.4byte	.LVL42-.Ltext0
 1369 0269 3C020000 		.4byte	.LFE11-.Ltext0
 1370 026d 0200     		.2byte	0x2
 1371 026f 91       		.byte	0x91
 1372 0270 74       		.sleb128 -12
ARM GAS  /cygdrive/c/DOCUME~1/deforce/LOKALA~1/Temp/ccDKvaBg.s 			page 37


 1373 0271 00000000 		.4byte	0x0
 1374 0275 00000000 		.4byte	0x0
 1375              	.LLST25:
 1376 0279 DA010000 		.4byte	.LVL41-.Ltext0
 1377 027d DE010000 		.4byte	.LVL42-.Ltext0
 1378 0281 0100     		.2byte	0x1
 1379 0283 54       		.byte	0x54
 1380 0284 DE010000 		.4byte	.LVL42-.Ltext0
 1381 0288 E0010000 		.4byte	.LVL43-.Ltext0
 1382 028c 0100     		.2byte	0x1
 1383 028e 50       		.byte	0x50
 1384 028f E0010000 		.4byte	.LVL43-.Ltext0
 1385 0293 EA010000 		.4byte	.LVL44-.Ltext0
 1386 0297 0100     		.2byte	0x1
 1387 0299 54       		.byte	0x54
 1388 029a EA010000 		.4byte	.LVL44-.Ltext0
 1389 029e F0010000 		.4byte	.LVL45-.Ltext0
 1390 02a2 0100     		.2byte	0x1
 1391 02a4 50       		.byte	0x50
 1392 02a5 F0010000 		.4byte	.LVL45-.Ltext0
 1393 02a9 FA010000 		.4byte	.LVL46-.Ltext0
 1394 02ad 0100     		.2byte	0x1
 1395 02af 54       		.byte	0x54
 1396 02b0 FA010000 		.4byte	.LVL46-.Ltext0
 1397 02b4 04020000 		.4byte	.LVL47-.Ltext0
 1398 02b8 0100     		.2byte	0x1
 1399 02ba 50       		.byte	0x50
 1400 02bb 04020000 		.4byte	.LVL47-.Ltext0
 1401 02bf 36020000 		.4byte	.LVL50-.Ltext0
 1402 02c3 0100     		.2byte	0x1
 1403 02c5 54       		.byte	0x54
 1404 02c6 00000000 		.4byte	0x0
 1405 02ca 00000000 		.4byte	0x0
 1406              	.LLST26:
 1407 02ce 3C020000 		.4byte	.LFB12-.Ltext0
 1408 02d2 3E020000 		.4byte	.LCFI4-.Ltext0
 1409 02d6 0100     		.2byte	0x1
 1410 02d8 5D       		.byte	0x5d
 1411 02d9 3E020000 		.4byte	.LCFI4-.Ltext0
 1412 02dd 64020000 		.4byte	.LFE12-.Ltext0
 1413 02e1 0200     		.2byte	0x2
 1414 02e3 7D       		.byte	0x7d
 1415 02e4 0C       		.sleb128 12
 1416 02e5 00000000 		.4byte	0x0
 1417 02e9 00000000 		.4byte	0x0
 1418              	.LLST27:
 1419 02ed 3E020000 		.4byte	.LVL53-.Ltext0
 1420 02f1 40020000 		.4byte	.LVL54-.Ltext0
 1421 02f5 0100     		.2byte	0x1
 1422 02f7 50       		.byte	0x50
 1423 02f8 44020000 		.4byte	.LVL56-.Ltext0
 1424 02fc 5E020000 		.4byte	.LVL64-.Ltext0
 1425 0300 0100     		.2byte	0x1
 1426 0302 54       		.byte	0x54
 1427 0303 00000000 		.4byte	0x0
 1428 0307 00000000 		.4byte	0x0
 1429              	.LLST28:
ARM GAS  /cygdrive/c/DOCUME~1/deforce/LOKALA~1/Temp/ccDKvaBg.s 			page 38


 1430 030b 3E020000 		.4byte	.LVL53-.Ltext0
 1431 030f 42020000 		.4byte	.LVL55-.Ltext0
 1432 0313 0100     		.2byte	0x1
 1433 0315 51       		.byte	0x51
 1434 0316 46020000 		.4byte	.LVL57-.Ltext0
 1435 031a 5E020000 		.4byte	.LVL65-.Ltext0
 1436 031e 0100     		.2byte	0x1
 1437 0320 55       		.byte	0x55
 1438 0321 00000000 		.4byte	0x0
 1439 0325 00000000 		.4byte	0x0
 1440              	.LLST29:
 1441 0329 4A020000 		.4byte	.LVL58-.Ltext0
 1442 032d 50020000 		.4byte	.LVL59-.Ltext0
 1443 0331 0100     		.2byte	0x1
 1444 0333 50       		.byte	0x50
 1445 0334 54020000 		.4byte	.LVL60-.Ltext0
 1446 0338 5A020000 		.4byte	.LVL61-.Ltext0
 1447 033c 0100     		.2byte	0x1
 1448 033e 50       		.byte	0x50
 1449 033f 5E020000 		.4byte	.LVL62-.Ltext0
 1450 0343 5E020000 		.4byte	.LVL63-.Ltext0
 1451 0347 0100     		.2byte	0x1
 1452 0349 50       		.byte	0x50
 1453 034a 00000000 		.4byte	0x0
 1454 034e 00000000 		.4byte	0x0
 1455              	.LLST31:
 1456 0352 70020000 		.4byte	.LVL66-.Ltext0
 1457 0356 96020000 		.4byte	.LVL67-.Ltext0
 1458 035a 0100     		.2byte	0x1
 1459 035c 50       		.byte	0x50
 1460 035d 96020000 		.4byte	.LVL67-.Ltext0
 1461 0361 98020000 		.4byte	.LVL68-.Ltext0
 1462 0365 0100     		.2byte	0x1
 1463 0367 50       		.byte	0x50
 1464 0368 00000000 		.4byte	0x0
 1465 036c 00000000 		.4byte	0x0
 1466              	.LLST32:
 1467 0370 96020000 		.4byte	.LVL67-.Ltext0
 1468 0374 98020000 		.4byte	.LVL68-.Ltext0
 1469 0378 0100     		.2byte	0x1
 1470 037a 50       		.byte	0x50
 1471 037b 00000000 		.4byte	0x0
 1472 037f 00000000 		.4byte	0x0
 1473              	.LLST33:
 1474 0383 AC020000 		.4byte	.LFB14-.Ltext0
 1475 0387 AE020000 		.4byte	.LCFI5-.Ltext0
 1476 038b 0100     		.2byte	0x1
 1477 038d 5D       		.byte	0x5d
 1478 038e AE020000 		.4byte	.LCFI5-.Ltext0
 1479 0392 30030000 		.4byte	.LFE14-.Ltext0
 1480 0396 0200     		.2byte	0x2
 1481 0398 7D       		.byte	0x7d
 1482 0399 14       		.sleb128 20
 1483 039a 00000000 		.4byte	0x0
 1484 039e 00000000 		.4byte	0x0
 1485              	.LLST34:
 1486 03a2 AE020000 		.4byte	.LVL69-.Ltext0
ARM GAS  /cygdrive/c/DOCUME~1/deforce/LOKALA~1/Temp/ccDKvaBg.s 			page 39


 1487 03a6 B0020000 		.4byte	.LVL70-.Ltext0
 1488 03aa 0100     		.2byte	0x1
 1489 03ac 50       		.byte	0x50
 1490 03ad B6020000 		.4byte	.LVL72-.Ltext0
 1491 03b1 22030000 		.4byte	.LVL95-.Ltext0
 1492 03b5 0100     		.2byte	0x1
 1493 03b7 55       		.byte	0x55
 1494 03b8 00000000 		.4byte	0x0
 1495 03bc 00000000 		.4byte	0x0
 1496              	.LLST35:
 1497 03c0 AE020000 		.4byte	.LVL69-.Ltext0
 1498 03c4 B8020000 		.4byte	.LVL74-.Ltext0
 1499 03c8 0100     		.2byte	0x1
 1500 03ca 51       		.byte	0x51
 1501 03cb B8020000 		.4byte	.LVL74-.Ltext0
 1502 03cf 22030000 		.4byte	.LVL96-.Ltext0
 1503 03d3 0100     		.2byte	0x1
 1504 03d5 56       		.byte	0x56
 1505 03d6 00000000 		.4byte	0x0
 1506 03da 00000000 		.4byte	0x0
 1507              	.LLST36:
 1508 03de AE020000 		.4byte	.LVL69-.Ltext0
 1509 03e2 B2020000 		.4byte	.LVL71-.Ltext0
 1510 03e6 0100     		.2byte	0x1
 1511 03e8 52       		.byte	0x52
 1512 03e9 B8020000 		.4byte	.LVL73-.Ltext0
 1513 03ed 22030000 		.4byte	.LVL97-.Ltext0
 1514 03f1 0100     		.2byte	0x1
 1515 03f3 57       		.byte	0x57
 1516 03f4 00000000 		.4byte	0x0
 1517 03f8 00000000 		.4byte	0x0
 1518              	.LLST37:
 1519 03fc C0020000 		.4byte	.LVL75-.Ltext0
 1520 0400 C4020000 		.4byte	.LVL76-.Ltext0
 1521 0404 0100     		.2byte	0x1
 1522 0406 54       		.byte	0x54
 1523 0407 C4020000 		.4byte	.LVL76-.Ltext0
 1524 040b C8020000 		.4byte	.LVL77-.Ltext0
 1525 040f 0100     		.2byte	0x1
 1526 0411 50       		.byte	0x50
 1527 0412 C8020000 		.4byte	.LVL77-.Ltext0
 1528 0416 CA020000 		.4byte	.LVL78-.Ltext0
 1529 041a 0100     		.2byte	0x1
 1530 041c 54       		.byte	0x54
 1531 041d CA020000 		.4byte	.LVL78-.Ltext0
 1532 0421 EC020000 		.4byte	.LVL81-.Ltext0
 1533 0425 0100     		.2byte	0x1
 1534 0427 50       		.byte	0x50
 1535 0428 EE020000 		.4byte	.LVL82-.Ltext0
 1536 042c F0020000 		.4byte	.LVL83-.Ltext0
 1537 0430 0100     		.2byte	0x1
 1538 0432 50       		.byte	0x50
 1539 0433 FE020000 		.4byte	.LVL85-.Ltext0
 1540 0437 10030000 		.4byte	.LVL88-.Ltext0
 1541 043b 0100     		.2byte	0x1
 1542 043d 50       		.byte	0x50
 1543 043e 16030000 		.4byte	.LVL89-.Ltext0
ARM GAS  /cygdrive/c/DOCUME~1/deforce/LOKALA~1/Temp/ccDKvaBg.s 			page 40


 1544 0442 16030000 		.4byte	.LVL90-.Ltext0
 1545 0446 0100     		.2byte	0x1
 1546 0448 54       		.byte	0x54
 1547 0449 16030000 		.4byte	.LVL90-.Ltext0
 1548 044d 1A030000 		.4byte	.LVL91-.Ltext0
 1549 0451 0100     		.2byte	0x1
 1550 0453 50       		.byte	0x50
 1551 0454 1C030000 		.4byte	.LVL92-.Ltext0
 1552 0458 20030000 		.4byte	.LVL93-.Ltext0
 1553 045c 0100     		.2byte	0x1
 1554 045e 54       		.byte	0x54
 1555 045f 00000000 		.4byte	0x0
 1556 0463 00000000 		.4byte	0x0
 1557              	.LLST38:
 1558 0467 CA020000 		.4byte	.LVL78-.Ltext0
 1559 046b CC020000 		.4byte	.LVL79-.Ltext0
 1560 046f 0100     		.2byte	0x1
 1561 0471 53       		.byte	0x53
 1562 0472 DA020000 		.4byte	.LVL80-.Ltext0
 1563 0476 F6020000 		.4byte	.LVL84-.Ltext0
 1564 047a 0100     		.2byte	0x1
 1565 047c 53       		.byte	0x53
 1566 047d 06030000 		.4byte	.LVL86-.Ltext0
 1567 0481 0C030000 		.4byte	.LVL87-.Ltext0
 1568 0485 0100     		.2byte	0x1
 1569 0487 53       		.byte	0x53
 1570 0488 00000000 		.4byte	0x0
 1571 048c 00000000 		.4byte	0x0
 1572              	.LLST39:
 1573 0490 CA020000 		.4byte	.LVL78-.Ltext0
 1574 0494 1C030000 		.4byte	.LVL92-.Ltext0
 1575 0498 0100     		.2byte	0x1
 1576 049a 54       		.byte	0x54
 1577 049b 00000000 		.4byte	0x0
 1578 049f 00000000 		.4byte	0x0
 1579              	.LLST40:
 1580 04a3 30030000 		.4byte	.LFB13-.Ltext0
 1581 04a7 32030000 		.4byte	.LCFI6-.Ltext0
 1582 04ab 0100     		.2byte	0x1
 1583 04ad 5D       		.byte	0x5d
 1584 04ae 32030000 		.4byte	.LCFI6-.Ltext0
 1585 04b2 34030000 		.4byte	.LCFI7-.Ltext0
 1586 04b6 0200     		.2byte	0x2
 1587 04b8 7D       		.byte	0x7d
 1588 04b9 0C       		.sleb128 12
 1589 04ba 34030000 		.4byte	.LCFI7-.Ltext0
 1590 04be B4030000 		.4byte	.LFE13-.Ltext0
 1591 04c2 0200     		.2byte	0x2
 1592 04c4 7D       		.byte	0x7d
 1593 04c5 10       		.sleb128 16
 1594 04c6 00000000 		.4byte	0x0
 1595 04ca 00000000 		.4byte	0x0
 1596              	.LLST41:
 1597 04ce 32030000 		.4byte	.LVL98-.Ltext0
 1598 04d2 36030000 		.4byte	.LVL99-.Ltext0
 1599 04d6 0100     		.2byte	0x1
 1600 04d8 50       		.byte	0x50
ARM GAS  /cygdrive/c/DOCUME~1/deforce/LOKALA~1/Temp/ccDKvaBg.s 			page 41


 1601 04d9 3E030000 		.4byte	.LVL100-.Ltext0
 1602 04dd A4030000 		.4byte	.LVL118-.Ltext0
 1603 04e1 0100     		.2byte	0x1
 1604 04e3 55       		.byte	0x55
 1605 04e4 00000000 		.4byte	0x0
 1606 04e8 00000000 		.4byte	0x0
 1607              	.LLST42:
 1608 04ec 40030000 		.4byte	.LVL101-.Ltext0
 1609 04f0 4E030000 		.4byte	.LVL105-.Ltext0
 1610 04f4 0100     		.2byte	0x1
 1611 04f6 54       		.byte	0x54
 1612 04f7 4E030000 		.4byte	.LVL105-.Ltext0
 1613 04fb 50030000 		.4byte	.LVL106-.Ltext0
 1614 04ff 0100     		.2byte	0x1
 1615 0501 50       		.byte	0x50
 1616 0502 50030000 		.4byte	.LVL106-.Ltext0
 1617 0506 54030000 		.4byte	.LVL107-.Ltext0
 1618 050a 0100     		.2byte	0x1
 1619 050c 54       		.byte	0x54
 1620 050d 54030000 		.4byte	.LVL107-.Ltext0
 1621 0511 5A030000 		.4byte	.LVL108-.Ltext0
 1622 0515 0100     		.2byte	0x1
 1623 0517 50       		.byte	0x50
 1624 0518 5E030000 		.4byte	.LVL109-.Ltext0
 1625 051c 96030000 		.4byte	.LVL115-.Ltext0
 1626 0520 0100     		.2byte	0x1
 1627 0522 50       		.byte	0x50
 1628 0523 96030000 		.4byte	.LVL115-.Ltext0
 1629 0527 A4030000 		.4byte	.LVL117-.Ltext0
 1630 052b 0100     		.2byte	0x1
 1631 052d 54       		.byte	0x54
 1632 052e 00000000 		.4byte	0x0
 1633 0532 00000000 		.4byte	0x0
 1634              	.LLST43:
 1635 0536 6E030000 		.4byte	.LVL110-.Ltext0
 1636 053a 7E030000 		.4byte	.LVL111-.Ltext0
 1637 053e 0100     		.2byte	0x1
 1638 0540 53       		.byte	0x53
 1639 0541 84030000 		.4byte	.LVL112-.Ltext0
 1640 0545 8A030000 		.4byte	.LVL113-.Ltext0
 1641 0549 0100     		.2byte	0x1
 1642 054b 53       		.byte	0x53
 1643 054c 92030000 		.4byte	.LVL114-.Ltext0
 1644 0550 96030000 		.4byte	.LVL115-.Ltext0
 1645 0554 0100     		.2byte	0x1
 1646 0556 53       		.byte	0x53
 1647 0557 00000000 		.4byte	0x0
 1648 055b 00000000 		.4byte	0x0
 1649              	.LLST44:
 1650 055f 42030000 		.4byte	.LVL102-.Ltext0
 1651 0563 44030000 		.4byte	.LVL103-.Ltext0
 1652 0567 0200     		.2byte	0x2
 1653 0569 73       		.byte	0x73
 1654 056a 00       		.sleb128 0
 1655 056b 44030000 		.4byte	.LVL103-.Ltext0
 1656 056f 48030000 		.4byte	.LVL104-.Ltext0
 1657 0573 0100     		.2byte	0x1
ARM GAS  /cygdrive/c/DOCUME~1/deforce/LOKALA~1/Temp/ccDKvaBg.s 			page 42


 1658 0575 53       		.byte	0x53
 1659 0576 48030000 		.4byte	.LVL104-.Ltext0
 1660 057a A0030000 		.4byte	.LVL116-.Ltext0
 1661 057e 0200     		.2byte	0x2
 1662 0580 73       		.byte	0x73
 1663 0581 00       		.sleb128 0
 1664 0582 A0030000 		.4byte	.LVL116-.Ltext0
 1665 0586 B4030000 		.4byte	.LFE13-.Ltext0
 1666 058a 0100     		.2byte	0x1
 1667 058c 53       		.byte	0x53
 1668 058d 00000000 		.4byte	0x0
 1669 0591 00000000 		.4byte	0x0
 1670              		.section	.debug_info
 1671 0000 7C040000 		.4byte	0x47c
 1672 0004 0200     		.2byte	0x2
 1673 0006 00000000 		.4byte	.Ldebug_abbrev0
 1674 000a 04       		.byte	0x4
 1675 000b 01       		.uleb128 0x1
 1676 000c 00000000 		.4byte	.Ldebug_line0
 1677 0010 B4030000 		.4byte	.Letext0
 1678 0014 00000000 		.4byte	.Ltext0
 1679 0018 DB000000 		.4byte	.LASF28
 1680 001c 01       		.byte	0x1
 1681 001d 97000000 		.4byte	.LASF29
 1682 0021 3D000000 		.4byte	.LASF30
 1683 0025 02       		.uleb128 0x2
 1684 0026 43000000 		.4byte	0x43
 1685 002a 01       		.byte	0x1
 1686 002b 39010000 		.4byte	.LASF0
 1687 002f 01       		.byte	0x1
 1688 0030 49       		.byte	0x49
 1689 0031 01       		.byte	0x1
 1690 0032 43000000 		.4byte	0x43
 1691 0036 01       		.byte	0x1
 1692 0037 03       		.uleb128 0x3
 1693 0038 80000000 		.4byte	.LASF5
 1694 003c 01       		.byte	0x1
 1695 003d 4A       		.byte	0x4a
 1696 003e 43000000 		.4byte	0x43
 1697 0042 00       		.byte	0x0
 1698 0043 04       		.uleb128 0x4
 1699 0044 21000000 		.4byte	.LASF2
 1700 0048 01       		.byte	0x1
 1701 0049 08       		.byte	0x8
 1702 004a 05       		.uleb128 0x5
 1703 004b 63000000 		.4byte	0x63
 1704 004f 25000000 		.4byte	0x25
 1705 0053 00000000 		.4byte	.LFB2
 1706 0057 1C000000 		.4byte	.LFE2
 1707 005b 01       		.byte	0x1
 1708 005c 5D       		.byte	0x5d
 1709 005d 06       		.uleb128 0x6
 1710 005e 37000000 		.4byte	0x37
 1711 0062 00       		.byte	0x0
 1712 0063 07       		.uleb128 0x7
 1713 0064 8C000000 		.4byte	0x8c
 1714 0068 01       		.byte	0x1
ARM GAS  /cygdrive/c/DOCUME~1/deforce/LOKALA~1/Temp/ccDKvaBg.s 			page 43


 1715 0069 87000000 		.4byte	.LASF1
 1716 006d 01       		.byte	0x1
 1717 006e 63       		.byte	0x63
 1718 006f 01       		.byte	0x1
 1719 0070 1C000000 		.4byte	.LFB3
 1720 0074 8C000000 		.4byte	.LFE3
 1721 0078 00000000 		.4byte	.LLST1
 1722 007c 08       		.uleb128 0x8
 1723 007d 16010000 		.4byte	.LASF9
 1724 0081 01       		.byte	0x1
 1725 0082 62       		.byte	0x62
 1726 0083 8C000000 		.4byte	0x8c
 1727 0087 1F000000 		.4byte	.LLST2
 1728 008b 00       		.byte	0x0
 1729 008c 04       		.uleb128 0x4
 1730 008d 0B000000 		.4byte	.LASF3
 1731 0091 04       		.byte	0x4
 1732 0092 07       		.byte	0x7
 1733 0093 09       		.uleb128 0x9
 1734 0094 EC000000 		.4byte	0xec
 1735 0098 01       		.byte	0x1
 1736 0099 18000000 		.4byte	.LASF4
 1737 009d 01       		.byte	0x1
 1738 009e 82       		.byte	0x82
 1739 009f 01       		.byte	0x1
 1740 00a0 EC000000 		.4byte	0xec
 1741 00a4 8C000000 		.4byte	.LFB4
 1742 00a8 D0000000 		.4byte	.LFE4
 1743 00ac 01       		.byte	0x1
 1744 00ad 5D       		.byte	0x5d
 1745 00ae 0A       		.uleb128 0xa
 1746 00af 80000000 		.4byte	.LASF5
 1747 00b3 01       		.byte	0x1
 1748 00b4 83       		.byte	0x83
 1749 00b5 43000000 		.4byte	0x43
 1750 00b9 5E000000 		.4byte	.LLST4
 1751 00bd 0A       		.uleb128 0xa
 1752 00be B6000000 		.4byte	.LASF6
 1753 00c2 01       		.byte	0x1
 1754 00c3 84       		.byte	0x84
 1755 00c4 EC000000 		.4byte	0xec
 1756 00c8 7C000000 		.4byte	.LLST5
 1757 00cc 0B       		.uleb128 0xb
 1758 00cd 25000000 		.4byte	0x25
 1759 00d1 96000000 		.4byte	.LBB6
 1760 00d5 A4000000 		.4byte	.LBE6
 1761 00d9 01       		.byte	0x1
 1762 00da 8C       		.byte	0x8c
 1763 00db 0C       		.uleb128 0xc
 1764 00dc 96000000 		.4byte	.LBB7
 1765 00e0 A4000000 		.4byte	.LBE7
 1766 00e4 06       		.uleb128 0x6
 1767 00e5 37000000 		.4byte	0x37
 1768 00e9 00       		.byte	0x0
 1769 00ea 00       		.byte	0x0
 1770 00eb 00       		.byte	0x0
 1771 00ec 04       		.uleb128 0x4
ARM GAS  /cygdrive/c/DOCUME~1/deforce/LOKALA~1/Temp/ccDKvaBg.s 			page 44


 1772 00ed 34010000 		.4byte	.LASF7
 1773 00f1 01       		.byte	0x1
 1774 00f2 08       		.byte	0x8
 1775 00f3 0D       		.uleb128 0xd
 1776 00f4 01       		.byte	0x1
 1777 00f5 FA000000 		.4byte	.LASF31
 1778 00f9 01       		.byte	0x1
 1779 00fa E9       		.byte	0xe9
 1780 00fb 01       		.byte	0x1
 1781 00fc EC000000 		.4byte	0xec
 1782 0100 D0000000 		.4byte	.LFB6
 1783 0104 F4000000 		.4byte	.LFE6
 1784 0108 01       		.byte	0x1
 1785 0109 5D       		.byte	0x5d
 1786 010a 0E       		.uleb128 0xe
 1787 010b 47010000 		.4byte	0x147
 1788 010f 01       		.byte	0x1
 1789 0110 63000000 		.4byte	.LASF8
 1790 0114 01       		.byte	0x1
 1791 0115 0301     		.2byte	0x103
 1792 0117 01       		.byte	0x1
 1793 0118 EC000000 		.4byte	0xec
 1794 011c F4000000 		.4byte	.LFB7
 1795 0120 1C010000 		.4byte	.LFE7
 1796 0124 01       		.byte	0x1
 1797 0125 5D       		.byte	0x5d
 1798 0126 0F       		.uleb128 0xf
 1799 0127 BE000000 		.4byte	.LASF10
 1800 012b 01       		.byte	0x1
 1801 012c 0201     		.2byte	0x102
 1802 012e 43000000 		.4byte	0x43
 1803 0132 8F000000 		.4byte	.LLST8
 1804 0136 10       		.uleb128 0x10
 1805 0137 B6000000 		.4byte	.LASF6
 1806 013b 01       		.byte	0x1
 1807 013c 0401     		.2byte	0x104
 1808 013e EC000000 		.4byte	0xec
 1809 0142 B8000000 		.4byte	.LLST9
 1810 0146 00       		.byte	0x0
 1811 0147 0E       		.uleb128 0xe
 1812 0148 94010000 		.4byte	0x194
 1813 014c 01       		.byte	0x1
 1814 014d 23010000 		.4byte	.LASF11
 1815 0151 01       		.byte	0x1
 1816 0152 2C01     		.2byte	0x12c
 1817 0154 01       		.byte	0x1
 1818 0155 EC000000 		.4byte	0xec
 1819 0159 1C010000 		.4byte	.LFB8
 1820 015d 6C010000 		.4byte	.LFE8
 1821 0161 01       		.byte	0x1
 1822 0162 5D       		.byte	0x5d
 1823 0163 0F       		.uleb128 0xf
 1824 0164 2F000000 		.4byte	.LASF12
 1825 0168 01       		.byte	0x1
 1826 0169 2A01     		.2byte	0x12a
 1827 016b 43000000 		.4byte	0x43
 1828 016f D6000000 		.4byte	.LLST11
ARM GAS  /cygdrive/c/DOCUME~1/deforce/LOKALA~1/Temp/ccDKvaBg.s 			page 45


 1829 0173 0F       		.uleb128 0xf
 1830 0174 2E010000 		.4byte	.LASF13
 1831 0178 01       		.byte	0x1
 1832 0179 2B01     		.2byte	0x12b
 1833 017b 94010000 		.4byte	0x194
 1834 017f 0A010000 		.4byte	.LLST12
 1835 0183 10       		.uleb128 0x10
 1836 0184 B6000000 		.4byte	.LASF6
 1837 0188 01       		.byte	0x1
 1838 0189 2D01     		.2byte	0x12d
 1839 018b EC000000 		.4byte	0xec
 1840 018f 28010000 		.4byte	.LLST13
 1841 0193 00       		.byte	0x0
 1842 0194 11       		.uleb128 0x11
 1843 0195 04       		.byte	0x4
 1844 0196 43000000 		.4byte	0x43
 1845 019a 0E       		.uleb128 0xe
 1846 019b E7010000 		.4byte	0x1e7
 1847 019f 01       		.byte	0x1
 1848 01a0 48010000 		.4byte	.LASF14
 1849 01a4 01       		.byte	0x1
 1850 01a5 5B01     		.2byte	0x15b
 1851 01a7 01       		.byte	0x1
 1852 01a8 EC000000 		.4byte	0xec
 1853 01ac 6C010000 		.4byte	.LFB9
 1854 01b0 98010000 		.4byte	.LFE9
 1855 01b4 01       		.byte	0x1
 1856 01b5 5D       		.byte	0x5d
 1857 01b6 10       		.uleb128 0x10
 1858 01b7 80000000 		.4byte	.LASF5
 1859 01bb 01       		.byte	0x1
 1860 01bc 5C01     		.2byte	0x15c
 1861 01be 43000000 		.4byte	0x43
 1862 01c2 46010000 		.4byte	.LLST15
 1863 01c6 12       		.uleb128 0x12
 1864 01c7 25000000 		.4byte	0x25
 1865 01cb 6C010000 		.4byte	.LBB8
 1866 01cf 78010000 		.4byte	.LBE8
 1867 01d3 01       		.byte	0x1
 1868 01d4 6201     		.2byte	0x162
 1869 01d6 0C       		.uleb128 0xc
 1870 01d7 6C010000 		.4byte	.LBB9
 1871 01db 78010000 		.4byte	.LBE9
 1872 01df 06       		.uleb128 0x6
 1873 01e0 37000000 		.4byte	0x37
 1874 01e4 00       		.byte	0x0
 1875 01e5 00       		.byte	0x0
 1876 01e6 00       		.byte	0x0
 1877 01e7 13       		.uleb128 0x13
 1878 01e8 26020000 		.4byte	0x226
 1879 01ec 01       		.byte	0x1
 1880 01ed 6E000000 		.4byte	.LASF15
 1881 01f1 01       		.byte	0x1
 1882 01f2 8801     		.2byte	0x188
 1883 01f4 01       		.byte	0x1
 1884 01f5 EC000000 		.4byte	0xec
 1885 01f9 98010000 		.4byte	.LFB10
ARM GAS  /cygdrive/c/DOCUME~1/deforce/LOKALA~1/Temp/ccDKvaBg.s 			page 46


 1886 01fd B6010000 		.4byte	.LFE10
 1887 0201 64010000 		.4byte	.LLST16
 1888 0205 0F       		.uleb128 0xf
 1889 0206 BE000000 		.4byte	.LASF10
 1890 020a 01       		.byte	0x1
 1891 020b 8701     		.2byte	0x187
 1892 020d 43000000 		.4byte	0x43
 1893 0211 83010000 		.4byte	.LLST17
 1894 0215 10       		.uleb128 0x10
 1895 0216 B6000000 		.4byte	.LASF6
 1896 021a 01       		.byte	0x1
 1897 021b 8901     		.2byte	0x189
 1898 021d EC000000 		.4byte	0xec
 1899 0221 96010000 		.4byte	.LLST18
 1900 0225 00       		.byte	0x0
 1901 0226 13       		.uleb128 0x13
 1902 0227 AF020000 		.4byte	0x2af
 1903 022b 01       		.byte	0x1
 1904 022c D2000000 		.4byte	.LASF16
 1905 0230 01       		.byte	0x1
 1906 0231 B001     		.2byte	0x1b0
 1907 0233 01       		.byte	0x1
 1908 0234 EC000000 		.4byte	0xec
 1909 0238 B8010000 		.4byte	.LFB11
 1910 023c 3C020000 		.4byte	.LFE11
 1911 0240 B4010000 		.4byte	.LLST19
 1912 0244 0F       		.uleb128 0xf
 1913 0245 9D000000 		.4byte	.LASF17
 1914 0249 01       		.byte	0x1
 1915 024a AB01     		.2byte	0x1ab
 1916 024c 43000000 		.4byte	0x43
 1917 0250 DF010000 		.4byte	.LLST20
 1918 0254 0F       		.uleb128 0xf
 1919 0255 34000000 		.4byte	.LASF18
 1920 0259 01       		.byte	0x1
 1921 025a AC01     		.2byte	0x1ac
 1922 025c 43000000 		.4byte	0x43
 1923 0260 FD010000 		.4byte	.LLST21
 1924 0264 0F       		.uleb128 0xf
 1925 0265 A2000000 		.4byte	.LASF19
 1926 0269 01       		.byte	0x1
 1927 026a AD01     		.2byte	0x1ad
 1928 026c AF020000 		.4byte	0x2af
 1929 0270 1B020000 		.4byte	.LLST22
 1930 0274 0F       		.uleb128 0xf
 1931 0275 2E010000 		.4byte	.LASF13
 1932 0279 01       		.byte	0x1
 1933 027a AE01     		.2byte	0x1ae
 1934 027c 94010000 		.4byte	0x194
 1935 0280 3A020000 		.4byte	.LLST23
 1936 0284 14       		.uleb128 0x14
 1937 0285 6C656E00 		.ascii	"len\000"
 1938 0289 01       		.byte	0x1
 1939 028a AF01     		.2byte	0x1af
 1940 028c AF020000 		.4byte	0x2af
 1941 0290 59020000 		.4byte	.LLST24
 1942 0294 10       		.uleb128 0x10
ARM GAS  /cygdrive/c/DOCUME~1/deforce/LOKALA~1/Temp/ccDKvaBg.s 			page 47


 1943 0295 B6000000 		.4byte	.LASF6
 1944 0299 01       		.byte	0x1
 1945 029a B101     		.2byte	0x1b1
 1946 029c EC000000 		.4byte	0xec
 1947 02a0 79020000 		.4byte	.LLST25
 1948 02a4 15       		.uleb128 0x15
 1949 02a5 6900     		.ascii	"i\000"
 1950 02a7 01       		.byte	0x1
 1951 02a8 B201     		.2byte	0x1b2
 1952 02aa 43000000 		.4byte	0x43
 1953 02ae 00       		.byte	0x0
 1954 02af 04       		.uleb128 0x4
 1955 02b0 E7000000 		.4byte	.LASF20
 1956 02b4 02       		.byte	0x2
 1957 02b5 07       		.byte	0x7
 1958 02b6 13       		.uleb128 0x13
 1959 02b7 05030000 		.4byte	0x305
 1960 02bb 01       		.byte	0x1
 1961 02bc 00000000 		.4byte	.LASF21
 1962 02c0 01       		.byte	0x1
 1963 02c1 F501     		.2byte	0x1f5
 1964 02c3 01       		.byte	0x1
 1965 02c4 EC000000 		.4byte	0xec
 1966 02c8 3C020000 		.4byte	.LFB12
 1967 02cc 64020000 		.4byte	.LFE12
 1968 02d0 CE020000 		.4byte	.LLST26
 1969 02d4 0F       		.uleb128 0xf
 1970 02d5 9D000000 		.4byte	.LASF17
 1971 02d9 01       		.byte	0x1
 1972 02da F301     		.2byte	0x1f3
 1973 02dc 43000000 		.4byte	0x43
 1974 02e0 ED020000 		.4byte	.LLST27
 1975 02e4 0F       		.uleb128 0xf
 1976 02e5 AD000000 		.4byte	.LASF22
 1977 02e9 01       		.byte	0x1
 1978 02ea F401     		.2byte	0x1f4
 1979 02ec 43000000 		.4byte	0x43
 1980 02f0 0B030000 		.4byte	.LLST28
 1981 02f4 10       		.uleb128 0x10
 1982 02f5 B6000000 		.4byte	.LASF6
 1983 02f9 01       		.byte	0x1
 1984 02fa F601     		.2byte	0x1f6
 1985 02fc EC000000 		.4byte	0xec
 1986 0300 29030000 		.4byte	.LLST29
 1987 0304 00       		.byte	0x0
 1988 0305 09       		.uleb128 0x9
 1989 0306 5E030000 		.4byte	0x35e
 1990 030a 01       		.byte	0x1
 1991 030b C3000000 		.4byte	.LASF23
 1992 030f 01       		.byte	0x1
 1993 0310 B5       		.byte	0xb5
 1994 0311 01       		.byte	0x1
 1995 0312 EC000000 		.4byte	0xec
 1996 0316 64020000 		.4byte	.LFB5
 1997 031a AC020000 		.4byte	.LFE5
 1998 031e 01       		.byte	0x1
 1999 031f 5D       		.byte	0x5d
ARM GAS  /cygdrive/c/DOCUME~1/deforce/LOKALA~1/Temp/ccDKvaBg.s 			page 48


 2000 0320 0A       		.uleb128 0xa
 2001 0321 80000000 		.4byte	.LASF5
 2002 0325 01       		.byte	0x1
 2003 0326 B6       		.byte	0xb6
 2004 0327 43000000 		.4byte	0x43
 2005 032b 52030000 		.4byte	.LLST31
 2006 032f 0A       		.uleb128 0xa
 2007 0330 B6000000 		.4byte	.LASF6
 2008 0334 01       		.byte	0x1
 2009 0335 B7       		.byte	0xb7
 2010 0336 EC000000 		.4byte	0xec
 2011 033a 70030000 		.4byte	.LLST32
 2012 033e 0B       		.uleb128 0xb
 2013 033f 25000000 		.4byte	0x25
 2014 0343 74020000 		.4byte	.LBB12
 2015 0347 82020000 		.4byte	.LBE12
 2016 034b 01       		.byte	0x1
 2017 034c C0       		.byte	0xc0
 2018 034d 0C       		.uleb128 0xc
 2019 034e 74020000 		.4byte	.LBB13
 2020 0352 82020000 		.4byte	.LBE13
 2021 0356 06       		.uleb128 0x6
 2022 0357 37000000 		.4byte	0x37
 2023 035b 00       		.byte	0x0
 2024 035c 00       		.byte	0x0
 2025 035d 00       		.byte	0x0
 2026 035e 13       		.uleb128 0x13
 2027 035f FB030000 		.4byte	0x3fb
 2028 0363 01       		.byte	0x1
 2029 0364 8F000000 		.4byte	.LASF24
 2030 0368 01       		.byte	0x1
 2031 0369 6502     		.2byte	0x265
 2032 036b 01       		.byte	0x1
 2033 036c EC000000 		.4byte	0xec
 2034 0370 AC020000 		.4byte	.LFB14
 2035 0374 30030000 		.4byte	.LFE14
 2036 0378 83030000 		.4byte	.LLST33
 2037 037c 0F       		.uleb128 0xf
 2038 037d 9D000000 		.4byte	.LASF17
 2039 0381 01       		.byte	0x1
 2040 0382 6202     		.2byte	0x262
 2041 0384 43000000 		.4byte	0x43
 2042 0388 A2030000 		.4byte	.LLST34
 2043 038c 0F       		.uleb128 0xf
 2044 038d A8000000 		.4byte	.LASF25
 2045 0391 01       		.byte	0x1
 2046 0392 6302     		.2byte	0x263
 2047 0394 94010000 		.4byte	0x194
 2048 0398 C0030000 		.4byte	.LLST35
 2049 039c 14       		.uleb128 0x14
 2050 039d 6C656E00 		.ascii	"len\000"
 2051 03a1 01       		.byte	0x1
 2052 03a2 6402     		.2byte	0x264
 2053 03a4 AF020000 		.4byte	0x2af
 2054 03a8 DE030000 		.4byte	.LLST36
 2055 03ac 10       		.uleb128 0x10
 2056 03ad B6000000 		.4byte	.LASF6
ARM GAS  /cygdrive/c/DOCUME~1/deforce/LOKALA~1/Temp/ccDKvaBg.s 			page 49


 2057 03b1 01       		.byte	0x1
 2058 03b2 6602     		.2byte	0x266
 2059 03b4 EC000000 		.4byte	0xec
 2060 03b8 FC030000 		.4byte	.LLST37
 2061 03bc 10       		.uleb128 0x10
 2062 03bd 80000000 		.4byte	.LASF5
 2063 03c1 01       		.byte	0x1
 2064 03c2 6702     		.2byte	0x267
 2065 03c4 43000000 		.4byte	0x43
 2066 03c8 67040000 		.4byte	.LLST38
 2067 03cc 16       		.uleb128 0x16
 2068 03cd 6900     		.ascii	"i\000"
 2069 03cf 01       		.byte	0x1
 2070 03d0 6802     		.2byte	0x268
 2071 03d2 43000000 		.4byte	0x43
 2072 03d6 90040000 		.4byte	.LLST39
 2073 03da 12       		.uleb128 0x12
 2074 03db 25000000 		.4byte	0x25
 2075 03df CA020000 		.4byte	.LBB16
 2076 03e3 D6020000 		.4byte	.LBE16
 2077 03e7 01       		.byte	0x1
 2078 03e8 7802     		.2byte	0x278
 2079 03ea 0C       		.uleb128 0xc
 2080 03eb CA020000 		.4byte	.LBB17
 2081 03ef D6020000 		.4byte	.LBE17
 2082 03f3 06       		.uleb128 0x6
 2083 03f4 37000000 		.4byte	0x37
 2084 03f8 00       		.byte	0x0
 2085 03f9 00       		.byte	0x0
 2086 03fa 00       		.byte	0x0
 2087 03fb 13       		.uleb128 0x13
 2088 03fc 7A040000 		.4byte	0x47a
 2089 0400 01       		.byte	0x1
 2090 0401 02010000 		.4byte	.LASF26
 2091 0405 01       		.byte	0x1
 2092 0406 1C02     		.2byte	0x21c
 2093 0408 01       		.byte	0x1
 2094 0409 EC000000 		.4byte	0xec
 2095 040d 30030000 		.4byte	.LFB13
 2096 0411 B4030000 		.4byte	.LFE13
 2097 0415 A3040000 		.4byte	.LLST40
 2098 0419 0F       		.uleb128 0xf
 2099 041a 9D000000 		.4byte	.LASF17
 2100 041e 01       		.byte	0x1
 2101 041f 1B02     		.2byte	0x21b
 2102 0421 43000000 		.4byte	0x43
 2103 0425 CE040000 		.4byte	.LLST41
 2104 0429 10       		.uleb128 0x10
 2105 042a B6000000 		.4byte	.LASF6
 2106 042e 01       		.byte	0x1
 2107 042f 1D02     		.2byte	0x21d
 2108 0431 EC000000 		.4byte	0xec
 2109 0435 EC040000 		.4byte	.LLST42
 2110 0439 10       		.uleb128 0x10
 2111 043a 80000000 		.4byte	.LASF5
 2112 043e 01       		.byte	0x1
 2113 043f 1E02     		.2byte	0x21e
ARM GAS  /cygdrive/c/DOCUME~1/deforce/LOKALA~1/Temp/ccDKvaBg.s 			page 50


 2114 0441 43000000 		.4byte	0x43
 2115 0445 36050000 		.4byte	.LLST43
 2116 0449 10       		.uleb128 0x10
 2117 044a 0A010000 		.4byte	.LASF27
 2118 044e 01       		.byte	0x1
 2119 044f 1F02     		.2byte	0x21f
 2120 0451 7A040000 		.4byte	0x47a
 2121 0455 5F050000 		.4byte	.LLST44
 2122 0459 12       		.uleb128 0x12
 2123 045a 25000000 		.4byte	0x25
 2124 045e 5E030000 		.4byte	.LBB20
 2125 0462 6A030000 		.4byte	.LBE20
 2126 0466 01       		.byte	0x1
 2127 0467 3302     		.2byte	0x233
 2128 0469 0C       		.uleb128 0xc
 2129 046a 5E030000 		.4byte	.LBB21
 2130 046e 6A030000 		.4byte	.LBE21
 2131 0472 06       		.uleb128 0x6
 2132 0473 37000000 		.4byte	0x37
 2133 0477 00       		.byte	0x0
 2134 0478 00       		.byte	0x0
 2135 0479 00       		.byte	0x0
 2136 047a 17       		.uleb128 0x17
 2137 047b 43000000 		.4byte	0x43
 2138 047f 00       		.byte	0x0
 2139              		.section	.debug_abbrev
 2140 0000 01       		.uleb128 0x1
 2141 0001 11       		.uleb128 0x11
 2142 0002 01       		.byte	0x1
 2143 0003 10       		.uleb128 0x10
 2144 0004 06       		.uleb128 0x6
 2145 0005 12       		.uleb128 0x12
 2146 0006 01       		.uleb128 0x1
 2147 0007 11       		.uleb128 0x11
 2148 0008 01       		.uleb128 0x1
 2149 0009 25       		.uleb128 0x25
 2150 000a 0E       		.uleb128 0xe
 2151 000b 13       		.uleb128 0x13
 2152 000c 0B       		.uleb128 0xb
 2153 000d 03       		.uleb128 0x3
 2154 000e 0E       		.uleb128 0xe
 2155 000f 1B       		.uleb128 0x1b
 2156 0010 0E       		.uleb128 0xe
 2157 0011 00       		.byte	0x0
 2158 0012 00       		.byte	0x0
 2159 0013 02       		.uleb128 0x2
 2160 0014 2E       		.uleb128 0x2e
 2161 0015 01       		.byte	0x1
 2162 0016 01       		.uleb128 0x1
 2163 0017 13       		.uleb128 0x13
 2164 0018 3F       		.uleb128 0x3f
 2165 0019 0C       		.uleb128 0xc
 2166 001a 03       		.uleb128 0x3
 2167 001b 0E       		.uleb128 0xe
 2168 001c 3A       		.uleb128 0x3a
 2169 001d 0B       		.uleb128 0xb
 2170 001e 3B       		.uleb128 0x3b
ARM GAS  /cygdrive/c/DOCUME~1/deforce/LOKALA~1/Temp/ccDKvaBg.s 			page 51


 2171 001f 0B       		.uleb128 0xb
 2172 0020 27       		.uleb128 0x27
 2173 0021 0C       		.uleb128 0xc
 2174 0022 49       		.uleb128 0x49
 2175 0023 13       		.uleb128 0x13
 2176 0024 20       		.uleb128 0x20
 2177 0025 0B       		.uleb128 0xb
 2178 0026 00       		.byte	0x0
 2179 0027 00       		.byte	0x0
 2180 0028 03       		.uleb128 0x3
 2181 0029 34       		.uleb128 0x34
 2182 002a 00       		.byte	0x0
 2183 002b 03       		.uleb128 0x3
 2184 002c 0E       		.uleb128 0xe
 2185 002d 3A       		.uleb128 0x3a
 2186 002e 0B       		.uleb128 0xb
 2187 002f 3B       		.uleb128 0x3b
 2188 0030 0B       		.uleb128 0xb
 2189 0031 49       		.uleb128 0x49
 2190 0032 13       		.uleb128 0x13
 2191 0033 00       		.byte	0x0
 2192 0034 00       		.byte	0x0
 2193 0035 04       		.uleb128 0x4
 2194 0036 24       		.uleb128 0x24
 2195 0037 00       		.byte	0x0
 2196 0038 03       		.uleb128 0x3
 2197 0039 0E       		.uleb128 0xe
 2198 003a 0B       		.uleb128 0xb
 2199 003b 0B       		.uleb128 0xb
 2200 003c 3E       		.uleb128 0x3e
 2201 003d 0B       		.uleb128 0xb
 2202 003e 00       		.byte	0x0
 2203 003f 00       		.byte	0x0
 2204 0040 05       		.uleb128 0x5
 2205 0041 2E       		.uleb128 0x2e
 2206 0042 01       		.byte	0x1
 2207 0043 01       		.uleb128 0x1
 2208 0044 13       		.uleb128 0x13
 2209 0045 31       		.uleb128 0x31
 2210 0046 13       		.uleb128 0x13
 2211 0047 11       		.uleb128 0x11
 2212 0048 01       		.uleb128 0x1
 2213 0049 12       		.uleb128 0x12
 2214 004a 01       		.uleb128 0x1
 2215 004b 40       		.uleb128 0x40
 2216 004c 0A       		.uleb128 0xa
 2217 004d 00       		.byte	0x0
 2218 004e 00       		.byte	0x0
 2219 004f 06       		.uleb128 0x6
 2220 0050 34       		.uleb128 0x34
 2221 0051 00       		.byte	0x0
 2222 0052 31       		.uleb128 0x31
 2223 0053 13       		.uleb128 0x13
 2224 0054 00       		.byte	0x0
 2225 0055 00       		.byte	0x0
 2226 0056 07       		.uleb128 0x7
 2227 0057 2E       		.uleb128 0x2e
ARM GAS  /cygdrive/c/DOCUME~1/deforce/LOKALA~1/Temp/ccDKvaBg.s 			page 52


 2228 0058 01       		.byte	0x1
 2229 0059 01       		.uleb128 0x1
 2230 005a 13       		.uleb128 0x13
 2231 005b 3F       		.uleb128 0x3f
 2232 005c 0C       		.uleb128 0xc
 2233 005d 03       		.uleb128 0x3
 2234 005e 0E       		.uleb128 0xe
 2235 005f 3A       		.uleb128 0x3a
 2236 0060 0B       		.uleb128 0xb
 2237 0061 3B       		.uleb128 0x3b
 2238 0062 0B       		.uleb128 0xb
 2239 0063 27       		.uleb128 0x27
 2240 0064 0C       		.uleb128 0xc
 2241 0065 11       		.uleb128 0x11
 2242 0066 01       		.uleb128 0x1
 2243 0067 12       		.uleb128 0x12
 2244 0068 01       		.uleb128 0x1
 2245 0069 40       		.uleb128 0x40
 2246 006a 06       		.uleb128 0x6
 2247 006b 00       		.byte	0x0
 2248 006c 00       		.byte	0x0
 2249 006d 08       		.uleb128 0x8
 2250 006e 05       		.uleb128 0x5
 2251 006f 00       		.byte	0x0
 2252 0070 03       		.uleb128 0x3
 2253 0071 0E       		.uleb128 0xe
 2254 0072 3A       		.uleb128 0x3a
 2255 0073 0B       		.uleb128 0xb
 2256 0074 3B       		.uleb128 0x3b
 2257 0075 0B       		.uleb128 0xb
 2258 0076 49       		.uleb128 0x49
 2259 0077 13       		.uleb128 0x13
 2260 0078 02       		.uleb128 0x2
 2261 0079 06       		.uleb128 0x6
 2262 007a 00       		.byte	0x0
 2263 007b 00       		.byte	0x0
 2264 007c 09       		.uleb128 0x9
 2265 007d 2E       		.uleb128 0x2e
 2266 007e 01       		.byte	0x1
 2267 007f 01       		.uleb128 0x1
 2268 0080 13       		.uleb128 0x13
 2269 0081 3F       		.uleb128 0x3f
 2270 0082 0C       		.uleb128 0xc
 2271 0083 03       		.uleb128 0x3
 2272 0084 0E       		.uleb128 0xe
 2273 0085 3A       		.uleb128 0x3a
 2274 0086 0B       		.uleb128 0xb
 2275 0087 3B       		.uleb128 0x3b
 2276 0088 0B       		.uleb128 0xb
 2277 0089 27       		.uleb128 0x27
 2278 008a 0C       		.uleb128 0xc
 2279 008b 49       		.uleb128 0x49
 2280 008c 13       		.uleb128 0x13
 2281 008d 11       		.uleb128 0x11
 2282 008e 01       		.uleb128 0x1
 2283 008f 12       		.uleb128 0x12
 2284 0090 01       		.uleb128 0x1
ARM GAS  /cygdrive/c/DOCUME~1/deforce/LOKALA~1/Temp/ccDKvaBg.s 			page 53


 2285 0091 40       		.uleb128 0x40
 2286 0092 0A       		.uleb128 0xa
 2287 0093 00       		.byte	0x0
 2288 0094 00       		.byte	0x0
 2289 0095 0A       		.uleb128 0xa
 2290 0096 34       		.uleb128 0x34
 2291 0097 00       		.byte	0x0
 2292 0098 03       		.uleb128 0x3
 2293 0099 0E       		.uleb128 0xe
 2294 009a 3A       		.uleb128 0x3a
 2295 009b 0B       		.uleb128 0xb
 2296 009c 3B       		.uleb128 0x3b
 2297 009d 0B       		.uleb128 0xb
 2298 009e 49       		.uleb128 0x49
 2299 009f 13       		.uleb128 0x13
 2300 00a0 02       		.uleb128 0x2
 2301 00a1 06       		.uleb128 0x6
 2302 00a2 00       		.byte	0x0
 2303 00a3 00       		.byte	0x0
 2304 00a4 0B       		.uleb128 0xb
 2305 00a5 1D       		.uleb128 0x1d
 2306 00a6 01       		.byte	0x1
 2307 00a7 31       		.uleb128 0x31
 2308 00a8 13       		.uleb128 0x13
 2309 00a9 11       		.uleb128 0x11
 2310 00aa 01       		.uleb128 0x1
 2311 00ab 12       		.uleb128 0x12
 2312 00ac 01       		.uleb128 0x1
 2313 00ad 58       		.uleb128 0x58
 2314 00ae 0B       		.uleb128 0xb
 2315 00af 59       		.uleb128 0x59
 2316 00b0 0B       		.uleb128 0xb
 2317 00b1 00       		.byte	0x0
 2318 00b2 00       		.byte	0x0
 2319 00b3 0C       		.uleb128 0xc
 2320 00b4 0B       		.uleb128 0xb
 2321 00b5 01       		.byte	0x1
 2322 00b6 11       		.uleb128 0x11
 2323 00b7 01       		.uleb128 0x1
 2324 00b8 12       		.uleb128 0x12
 2325 00b9 01       		.uleb128 0x1
 2326 00ba 00       		.byte	0x0
 2327 00bb 00       		.byte	0x0
 2328 00bc 0D       		.uleb128 0xd
 2329 00bd 2E       		.uleb128 0x2e
 2330 00be 00       		.byte	0x0
 2331 00bf 3F       		.uleb128 0x3f
 2332 00c0 0C       		.uleb128 0xc
 2333 00c1 03       		.uleb128 0x3
 2334 00c2 0E       		.uleb128 0xe
 2335 00c3 3A       		.uleb128 0x3a
 2336 00c4 0B       		.uleb128 0xb
 2337 00c5 3B       		.uleb128 0x3b
 2338 00c6 0B       		.uleb128 0xb
 2339 00c7 27       		.uleb128 0x27
 2340 00c8 0C       		.uleb128 0xc
 2341 00c9 49       		.uleb128 0x49
ARM GAS  /cygdrive/c/DOCUME~1/deforce/LOKALA~1/Temp/ccDKvaBg.s 			page 54


 2342 00ca 13       		.uleb128 0x13
 2343 00cb 11       		.uleb128 0x11
 2344 00cc 01       		.uleb128 0x1
 2345 00cd 12       		.uleb128 0x12
 2346 00ce 01       		.uleb128 0x1
 2347 00cf 40       		.uleb128 0x40
 2348 00d0 0A       		.uleb128 0xa
 2349 00d1 00       		.byte	0x0
 2350 00d2 00       		.byte	0x0
 2351 00d3 0E       		.uleb128 0xe
 2352 00d4 2E       		.uleb128 0x2e
 2353 00d5 01       		.byte	0x1
 2354 00d6 01       		.uleb128 0x1
 2355 00d7 13       		.uleb128 0x13
 2356 00d8 3F       		.uleb128 0x3f
 2357 00d9 0C       		.uleb128 0xc
 2358 00da 03       		.uleb128 0x3
 2359 00db 0E       		.uleb128 0xe
 2360 00dc 3A       		.uleb128 0x3a
 2361 00dd 0B       		.uleb128 0xb
 2362 00de 3B       		.uleb128 0x3b
 2363 00df 05       		.uleb128 0x5
 2364 00e0 27       		.uleb128 0x27
 2365 00e1 0C       		.uleb128 0xc
 2366 00e2 49       		.uleb128 0x49
 2367 00e3 13       		.uleb128 0x13
 2368 00e4 11       		.uleb128 0x11
 2369 00e5 01       		.uleb128 0x1
 2370 00e6 12       		.uleb128 0x12
 2371 00e7 01       		.uleb128 0x1
 2372 00e8 40       		.uleb128 0x40
 2373 00e9 0A       		.uleb128 0xa
 2374 00ea 00       		.byte	0x0
 2375 00eb 00       		.byte	0x0
 2376 00ec 0F       		.uleb128 0xf
 2377 00ed 05       		.uleb128 0x5
 2378 00ee 00       		.byte	0x0
 2379 00ef 03       		.uleb128 0x3
 2380 00f0 0E       		.uleb128 0xe
 2381 00f1 3A       		.uleb128 0x3a
 2382 00f2 0B       		.uleb128 0xb
 2383 00f3 3B       		.uleb128 0x3b
 2384 00f4 05       		.uleb128 0x5
 2385 00f5 49       		.uleb128 0x49
 2386 00f6 13       		.uleb128 0x13
 2387 00f7 02       		.uleb128 0x2
 2388 00f8 06       		.uleb128 0x6
 2389 00f9 00       		.byte	0x0
 2390 00fa 00       		.byte	0x0
 2391 00fb 10       		.uleb128 0x10
 2392 00fc 34       		.uleb128 0x34
 2393 00fd 00       		.byte	0x0
 2394 00fe 03       		.uleb128 0x3
 2395 00ff 0E       		.uleb128 0xe
 2396 0100 3A       		.uleb128 0x3a
 2397 0101 0B       		.uleb128 0xb
 2398 0102 3B       		.uleb128 0x3b
ARM GAS  /cygdrive/c/DOCUME~1/deforce/LOKALA~1/Temp/ccDKvaBg.s 			page 55


 2399 0103 05       		.uleb128 0x5
 2400 0104 49       		.uleb128 0x49
 2401 0105 13       		.uleb128 0x13
 2402 0106 02       		.uleb128 0x2
 2403 0107 06       		.uleb128 0x6
 2404 0108 00       		.byte	0x0
 2405 0109 00       		.byte	0x0
 2406 010a 11       		.uleb128 0x11
 2407 010b 0F       		.uleb128 0xf
 2408 010c 00       		.byte	0x0
 2409 010d 0B       		.uleb128 0xb
 2410 010e 0B       		.uleb128 0xb
 2411 010f 49       		.uleb128 0x49
 2412 0110 13       		.uleb128 0x13
 2413 0111 00       		.byte	0x0
 2414 0112 00       		.byte	0x0
 2415 0113 12       		.uleb128 0x12
 2416 0114 1D       		.uleb128 0x1d
 2417 0115 01       		.byte	0x1
 2418 0116 31       		.uleb128 0x31
 2419 0117 13       		.uleb128 0x13
 2420 0118 11       		.uleb128 0x11
 2421 0119 01       		.uleb128 0x1
 2422 011a 12       		.uleb128 0x12
 2423 011b 01       		.uleb128 0x1
 2424 011c 58       		.uleb128 0x58
 2425 011d 0B       		.uleb128 0xb
 2426 011e 59       		.uleb128 0x59
 2427 011f 05       		.uleb128 0x5
 2428 0120 00       		.byte	0x0
 2429 0121 00       		.byte	0x0
 2430 0122 13       		.uleb128 0x13
 2431 0123 2E       		.uleb128 0x2e
 2432 0124 01       		.byte	0x1
 2433 0125 01       		.uleb128 0x1
 2434 0126 13       		.uleb128 0x13
 2435 0127 3F       		.uleb128 0x3f
 2436 0128 0C       		.uleb128 0xc
 2437 0129 03       		.uleb128 0x3
 2438 012a 0E       		.uleb128 0xe
 2439 012b 3A       		.uleb128 0x3a
 2440 012c 0B       		.uleb128 0xb
 2441 012d 3B       		.uleb128 0x3b
 2442 012e 05       		.uleb128 0x5
 2443 012f 27       		.uleb128 0x27
 2444 0130 0C       		.uleb128 0xc
 2445 0131 49       		.uleb128 0x49
 2446 0132 13       		.uleb128 0x13
 2447 0133 11       		.uleb128 0x11
 2448 0134 01       		.uleb128 0x1
 2449 0135 12       		.uleb128 0x12
 2450 0136 01       		.uleb128 0x1
 2451 0137 40       		.uleb128 0x40
 2452 0138 06       		.uleb128 0x6
 2453 0139 00       		.byte	0x0
 2454 013a 00       		.byte	0x0
 2455 013b 14       		.uleb128 0x14
ARM GAS  /cygdrive/c/DOCUME~1/deforce/LOKALA~1/Temp/ccDKvaBg.s 			page 56


 2456 013c 05       		.uleb128 0x5
 2457 013d 00       		.byte	0x0
 2458 013e 03       		.uleb128 0x3
 2459 013f 08       		.uleb128 0x8
 2460 0140 3A       		.uleb128 0x3a
 2461 0141 0B       		.uleb128 0xb
 2462 0142 3B       		.uleb128 0x3b
 2463 0143 05       		.uleb128 0x5
 2464 0144 49       		.uleb128 0x49
 2465 0145 13       		.uleb128 0x13
 2466 0146 02       		.uleb128 0x2
 2467 0147 06       		.uleb128 0x6
 2468 0148 00       		.byte	0x0
 2469 0149 00       		.byte	0x0
 2470 014a 15       		.uleb128 0x15
 2471 014b 34       		.uleb128 0x34
 2472 014c 00       		.byte	0x0
 2473 014d 03       		.uleb128 0x3
 2474 014e 08       		.uleb128 0x8
 2475 014f 3A       		.uleb128 0x3a
 2476 0150 0B       		.uleb128 0xb
 2477 0151 3B       		.uleb128 0x3b
 2478 0152 05       		.uleb128 0x5
 2479 0153 49       		.uleb128 0x49
 2480 0154 13       		.uleb128 0x13
 2481 0155 00       		.byte	0x0
 2482 0156 00       		.byte	0x0
 2483 0157 16       		.uleb128 0x16
 2484 0158 34       		.uleb128 0x34
 2485 0159 00       		.byte	0x0
 2486 015a 03       		.uleb128 0x3
 2487 015b 08       		.uleb128 0x8
 2488 015c 3A       		.uleb128 0x3a
 2489 015d 0B       		.uleb128 0xb
 2490 015e 3B       		.uleb128 0x3b
 2491 015f 05       		.uleb128 0x5
 2492 0160 49       		.uleb128 0x49
 2493 0161 13       		.uleb128 0x13
 2494 0162 02       		.uleb128 0x2
 2495 0163 06       		.uleb128 0x6
 2496 0164 00       		.byte	0x0
 2497 0165 00       		.byte	0x0
 2498 0166 17       		.uleb128 0x17
 2499 0167 35       		.uleb128 0x35
 2500 0168 00       		.byte	0x0
 2501 0169 49       		.uleb128 0x49
 2502 016a 13       		.uleb128 0x13
 2503 016b 00       		.byte	0x0
 2504 016c 00       		.byte	0x0
 2505 016d 00       		.byte	0x0
 2506              		.section	.debug_pubnames,"",%progbits
 2507 0000 DA000000 		.4byte	0xda
 2508 0004 0200     		.2byte	0x2
 2509 0006 00000000 		.4byte	.Ldebug_info0
 2510 000a 80040000 		.4byte	0x480
 2511 000e 4A000000 		.4byte	0x4a
 2512 0012 69326343 		.ascii	"i2cCheckStatus\000"
ARM GAS  /cygdrive/c/DOCUME~1/deforce/LOKALA~1/Temp/ccDKvaBg.s 			page 57


 2512      6865636B 
 2512      53746174 
 2512      757300
 2513 0021 63000000 		.4byte	0x63
 2514 0025 69326349 		.ascii	"i2cInit\000"
 2514      6E697400 
 2515 002d 93000000 		.4byte	0x93
 2516 0031 69326353 		.ascii	"i2cStart\000"
 2516      74617274 
 2516      00
 2517 003a F3000000 		.4byte	0xf3
 2518 003e 69326353 		.ascii	"i2cStop\000"
 2518      746F7000 
 2519 0046 0A010000 		.4byte	0x10a
 2520 004a 69326350 		.ascii	"i2cPutChar\000"
 2520      75744368 
 2520      617200
 2521 0055 47010000 		.4byte	0x147
 2522 0059 69326347 		.ascii	"i2cGetChar\000"
 2522      65744368 
 2522      617200
 2523 0064 9A010000 		.4byte	0x19a
 2524 0068 69326357 		.ascii	"i2cWaitAfterTransmit\000"
 2524      61697441 
 2524      66746572 
 2524      5472616E 
 2524      736D6974 
 2525 007d E7010000 		.4byte	0x1e7
 2526 0081 69326350 		.ascii	"i2cPutCharAndWait\000"
 2526      75744368 
 2526      6172416E 
 2526      64576169 
 2526      7400
 2527 0093 26020000 		.4byte	0x226
 2528 0097 69326357 		.ascii	"i2cWrite\000"
 2528      72697465 
 2528      00
 2529 00a0 B6020000 		.4byte	0x2b6
 2530 00a4 6932634D 		.ascii	"i2cMyWrite\000"
 2530      79577269 
 2530      746500
 2531 00af 05030000 		.4byte	0x305
 2532 00b3 69326352 		.ascii	"i2cRepeatStart\000"
 2532      65706561 
 2532      74537461 
 2532      727400
 2533 00c2 5E030000 		.4byte	0x35e
 2534 00c6 69326352 		.ascii	"i2cRead\000"
 2534      65616400 
 2535 00ce FB030000 		.4byte	0x3fb
 2536 00d2 69326350 		.ascii	"i2cPoll\000"
 2536      6F6C6C00 
 2537 00da 00000000 		.4byte	0x0
 2538              		.section	.debug_aranges,"",%progbits
 2539 0000 1C000000 		.4byte	0x1c
 2540 0004 0200     		.2byte	0x2
 2541 0006 00000000 		.4byte	.Ldebug_info0
ARM GAS  /cygdrive/c/DOCUME~1/deforce/LOKALA~1/Temp/ccDKvaBg.s 			page 58


 2542 000a 04       		.byte	0x4
 2543 000b 00       		.byte	0x0
 2544 000c 0000     		.2byte	0x0
 2545 000e 0000     		.2byte	0x0
 2546 0010 00000000 		.4byte	.Ltext0
 2547 0014 B4030000 		.4byte	.Letext0-.Ltext0
 2548 0018 00000000 		.4byte	0x0
 2549 001c 00000000 		.4byte	0x0
 2550              		.section	.debug_str,"MS",%progbits,1
 2551              	.LASF21:
 2552 0000 6932634D 		.ascii	"i2cMyWrite\000"
 2552      79577269 
 2552      746500
 2553              	.LASF3:
 2554 000b 756E7369 		.ascii	"unsigned int\000"
 2554      676E6564 
 2554      20696E74 
 2554      00
 2555              	.LASF4:
 2556 0018 69326353 		.ascii	"i2cStart\000"
 2556      74617274 
 2556      00
 2557              	.LASF2:
 2558 0021 756E7369 		.ascii	"unsigned char\000"
 2558      676E6564 
 2558      20636861 
 2558      7200
 2559              	.LASF12:
 2560 002f 6D6F6465 		.ascii	"mode\000"
 2560      00
 2561              	.LASF18:
 2562 0034 65787472 		.ascii	"extraCmd\000"
 2562      61436D64 
 2562      00
 2563              	.LASF30:
 2564 003d 2F637967 		.ascii	"/cygdrive/c/ultraljudprojects/CATtest\000"
 2564      64726976 
 2564      652F632F 
 2564      756C7472 
 2564      616C6A75 
 2565              	.LASF8:
 2566 0063 69326350 		.ascii	"i2cPutChar\000"
 2566      75744368 
 2566      617200
 2567              	.LASF15:
 2568 006e 69326350 		.ascii	"i2cPutCharAndWait\000"
 2568      75744368 
 2568      6172416E 
 2568      64576169 
 2568      7400
 2569              	.LASF5:
 2570 0080 73746174 		.ascii	"status\000"
 2570      757300
 2571              	.LASF1:
 2572 0087 69326349 		.ascii	"i2cInit\000"
 2572      6E697400 
 2573              	.LASF24:
ARM GAS  /cygdrive/c/DOCUME~1/deforce/LOKALA~1/Temp/ccDKvaBg.s 			page 59


 2574 008f 69326352 		.ascii	"i2cRead\000"
 2574      65616400 
 2575              	.LASF29:
 2576 0097 6932632E 		.ascii	"i2c.c\000"
 2576      6300
 2577              	.LASF17:
 2578 009d 61646472 		.ascii	"addr\000"
 2578      00
 2579              	.LASF19:
 2580 00a2 65787472 		.ascii	"extra\000"
 2580      6100
 2581              	.LASF25:
 2582 00a8 70427566 		.ascii	"pBuf\000"
 2582      00
 2583              	.LASF22:
 2584 00ad 62797465 		.ascii	"byteAddr\000"
 2584      41646472 
 2584      00
 2585              	.LASF6:
 2586 00b6 72657443 		.ascii	"retCode\000"
 2586      6F646500 
 2587              	.LASF10:
 2588 00be 64617461 		.ascii	"data\000"
 2588      00
 2589              	.LASF23:
 2590 00c3 69326352 		.ascii	"i2cRepeatStart\000"
 2590      65706561 
 2590      74537461 
 2590      727400
 2591              	.LASF16:
 2592 00d2 69326357 		.ascii	"i2cWrite\000"
 2592      72697465 
 2592      00
 2593              	.LASF28:
 2594 00db 474E5520 		.ascii	"GNU C 4.1.1\000"
 2594      4320342E 
 2594      312E3100 
 2595              	.LASF20:
 2596 00e7 73686F72 		.ascii	"short unsigned int\000"
 2596      7420756E 
 2596      7369676E 
 2596      65642069 
 2596      6E7400
 2597              	.LASF31:
 2598 00fa 69326353 		.ascii	"i2cStop\000"
 2598      746F7000 
 2599              	.LASF26:
 2600 0102 69326350 		.ascii	"i2cPoll\000"
 2600      6F6C6C00 
 2601              	.LASF27:
 2602 010a 64657669 		.ascii	"deviceReady\000"
 2602      63655265 
 2602      61647900 
 2603              	.LASF9:
 2604 0116 69326346 		.ascii	"i2cFrequency\000"
 2604      72657175 
 2604      656E6379 
ARM GAS  /cygdrive/c/DOCUME~1/deforce/LOKALA~1/Temp/ccDKvaBg.s 			page 60


 2604      00
 2605              	.LASF11:
 2606 0123 69326347 		.ascii	"i2cGetChar\000"
 2606      65744368 
 2606      617200
 2607              	.LASF13:
 2608 012e 70446174 		.ascii	"pData\000"
 2608      6100
 2609              	.LASF7:
 2610 0134 63686172 		.ascii	"char\000"
 2610      00
 2611              	.LASF0:
 2612 0139 69326343 		.ascii	"i2cCheckStatus\000"
 2612      6865636B 
 2612      53746174 
 2612      757300
 2613              	.LASF14:
 2614 0148 69326357 		.ascii	"i2cWaitAfterTransmit\000"
 2614      61697441 
 2614      66746572 
 2614      5472616E 
 2614      736D6974 
 2615              		.ident	"GCC: (GNU) 4.1.1"
ARM GAS  /cygdrive/c/DOCUME~1/deforce/LOKALA~1/Temp/ccDKvaBg.s 			page 61


DEFINED SYMBOLS
                            *ABS*:00000000 i2c.c
/cygdrive/c/DOCUME~1/deforce/LOKALA~1/Temp/ccDKvaBg.s:1      .text:00000000 $t
/cygdrive/c/DOCUME~1/deforce/LOKALA~1/Temp/ccDKvaBg.s:16     .text:00000000 i2cCheckStatus
/cygdrive/c/DOCUME~1/deforce/LOKALA~1/Temp/ccDKvaBg.s:38     .text:00000014 $d
/cygdrive/c/DOCUME~1/deforce/LOKALA~1/Temp/ccDKvaBg.s:48     .text:0000001c i2cInit
/cygdrive/c/DOCUME~1/deforce/LOKALA~1/Temp/ccDKvaBg.s:45     .text:0000001c $t
/cygdrive/c/DOCUME~1/deforce/LOKALA~1/Temp/ccDKvaBg.s:112    .text:00000070 $d
/cygdrive/c/DOCUME~1/deforce/LOKALA~1/Temp/ccDKvaBg.s:126    .text:0000008c i2cStart
/cygdrive/c/DOCUME~1/deforce/LOKALA~1/Temp/ccDKvaBg.s:123    .text:0000008c $t
/cygdrive/c/DOCUME~1/deforce/LOKALA~1/Temp/ccDKvaBg.s:184    .text:000000c4 $d
/cygdrive/c/DOCUME~1/deforce/LOKALA~1/Temp/ccDKvaBg.s:194    .text:000000d0 i2cStop
/cygdrive/c/DOCUME~1/deforce/LOKALA~1/Temp/ccDKvaBg.s:191    .text:000000d0 $t
/cygdrive/c/DOCUME~1/deforce/LOKALA~1/Temp/ccDKvaBg.s:222    .text:000000ec $d
/cygdrive/c/DOCUME~1/deforce/LOKALA~1/Temp/ccDKvaBg.s:231    .text:000000f4 i2cPutChar
/cygdrive/c/DOCUME~1/deforce/LOKALA~1/Temp/ccDKvaBg.s:228    .text:000000f4 $t
/cygdrive/c/DOCUME~1/deforce/LOKALA~1/Temp/ccDKvaBg.s:272    .text:00000114 $d
/cygdrive/c/DOCUME~1/deforce/LOKALA~1/Temp/ccDKvaBg.s:281    .text:0000011c i2cGetChar
/cygdrive/c/DOCUME~1/deforce/LOKALA~1/Temp/ccDKvaBg.s:278    .text:0000011c $t
/cygdrive/c/DOCUME~1/deforce/LOKALA~1/Temp/ccDKvaBg.s:347    .text:00000160 $d
/cygdrive/c/DOCUME~1/deforce/LOKALA~1/Temp/ccDKvaBg.s:357    .text:0000016c i2cWaitAfterTransmit
/cygdrive/c/DOCUME~1/deforce/LOKALA~1/Temp/ccDKvaBg.s:354    .text:0000016c $t
/cygdrive/c/DOCUME~1/deforce/LOKALA~1/Temp/ccDKvaBg.s:399    .text:00000190 $d
/cygdrive/c/DOCUME~1/deforce/LOKALA~1/Temp/ccDKvaBg.s:408    .text:00000198 i2cPutCharAndWait
/cygdrive/c/DOCUME~1/deforce/LOKALA~1/Temp/ccDKvaBg.s:405    .text:00000198 $t
/cygdrive/c/DOCUME~1/deforce/LOKALA~1/Temp/ccDKvaBg.s:445    .text:000001b8 i2cWrite
/cygdrive/c/DOCUME~1/deforce/LOKALA~1/Temp/ccDKvaBg.s:563    .text:0000023c i2cMyWrite
/cygdrive/c/DOCUME~1/deforce/LOKALA~1/Temp/ccDKvaBg.s:613    .text:00000264 i2cRepeatStart
/cygdrive/c/DOCUME~1/deforce/LOKALA~1/Temp/ccDKvaBg.s:672    .text:000002a0 $d
/cygdrive/c/DOCUME~1/deforce/LOKALA~1/Temp/ccDKvaBg.s:682    .text:000002ac i2cRead
/cygdrive/c/DOCUME~1/deforce/LOKALA~1/Temp/ccDKvaBg.s:679    .text:000002ac $t
/cygdrive/c/DOCUME~1/deforce/LOKALA~1/Temp/ccDKvaBg.s:809    .text:00000328 $d
/cygdrive/c/DOCUME~1/deforce/LOKALA~1/Temp/ccDKvaBg.s:818    .text:00000330 i2cPoll
/cygdrive/c/DOCUME~1/deforce/LOKALA~1/Temp/ccDKvaBg.s:815    .text:00000330 $t
/cygdrive/c/DOCUME~1/deforce/LOKALA~1/Temp/ccDKvaBg.s:939    .text:000003ac $d

UNDEFINED SYMBOLS
__udivsi3
