ARM GAS  /cygdrive/c/DOCUME~1/deforce/LOKALA~1/Temp/ccQeUh7S.s 			page 1


   1              		.file	"consol.c"
   8 0000 1A010000 		.text
   8      02006B00 
   8      00000201 
   8      FB0E0D00 
   8      01010101 
   9              	.Ltext0:
  10              		.global	__umodsi3
  11              		.global	__udivsi3
  12              		.section	.rodata.str1.4,"aMS",%progbits,1
  13              		.align	2
  14              	.LC0:
  15 0000 30313233 		.ascii	"0123456789abcdef\000"
  15      34353637 
  15      38396162 
  15      63646566 
  15      00
  16 0011 000000   		.text
  17              		.align	2
  18              		.type	printNum, %function
  19              	printNum:
  20              	.LFB2:
  21              		.file 1 "consol.c"
   1:consol.c      **** /******************************************************************************
   2:consol.c      ****  *
   3:consol.c      ****  * Copyright:
   4:consol.c      ****  *    (C) 2000 - 2005 Embedded Artists AB
   5:consol.c      ****  *
   6:consol.c      ****  * Description:
   7:consol.c      ****  *    Framework specific implementation of consol
   8:consol.c      ****  *
   9:consol.c      ****  *****************************************************************************/
  10:consol.c      **** 
  11:consol.c      **** 
  12:consol.c      **** /******************************************************************************
  13:consol.c      ****  * Includes
  14:consol.c      ****  *****************************************************************************/
  15:consol.c      **** 
  16:consol.c      **** #include "lpc2xxx.h"                            /* LPC2xxx definitions */
  17:consol.c      **** #include <string.h>
  18:consol.c      **** #include <stdlib.h>
  19:consol.c      **** #include "config.h"
  20:consol.c      **** #include "consol.h"
  21:consol.c      **** #include "framework.h"
  22:consol.c      **** 
  23:consol.c      **** #if (CONSOLE_API_PRINTF == 1) || (CONSOLE_API_SCANF == 1) //own simple printf() or scanf()
  24:consol.c      **** #include <stdarg.h>
  25:consol.c      **** #endif
  26:consol.c      **** 
  27:consol.c      **** #define UART_DLL_VALUE (unsigned short)((PCLK / (CONSOL_BITRATE * 16.0)) + 0.5)
  28:consol.c      **** 
ARM GAS  /cygdrive/c/DOCUME~1/deforce/LOKALA~1/Temp/ccQeUh7S.s 			page 2


  29:consol.c      **** #if (CONSOLE_API_SCANF == 1)  //SIMPLE
  30:consol.c      **** #define __isalpha(c) (c >'9')
  31:consol.c      **** #define __isupper(c) !(c & 0x20)
  32:consol.c      **** #define __ishex(c) (((c >= '0')&&(c <= '9'))||((c >= 'A')&&(c <= 'F')))
  33:consol.c      **** #define __ascii2hex(c) ((c <= '9')? c-'0': c-'A'+10)
  34:consol.c      **** #endif
  35:consol.c      **** 
  36:consol.c      **** /******************************************************************************
  37:consol.c      ****  * Implementation of local functions
  38:consol.c      ****  *****************************************************************************/
  39:consol.c      **** 
  40:consol.c      **** #if (CONSOLE_API_PRINTF == 1)  //OWN_PRINTF
  41:consol.c      **** /*****************************************************************************
  42:consol.c      ****  *
  43:consol.c      ****  * Description:
  44:consol.c      ****  *    Print a number. 
  45:consol.c      ****  *
  46:consol.c      ****  * Params:
  47:consol.c      ****  *    [in] outputFnk - Output function where characters to be printed are 
  48:consol.c      ****  *                      sent 
  49:consol.c      ****  * 
  50:consol.c      ****  *                Params (callback):
  51:consol.c      ****  *                   ch - Character to be printed 
  52:consol.c      ****  *    [in] number    - Number to be printed 
  53:consol.c      ****  *    [in] base      - Base when printing number (2-16) 
  54:consol.c      ****  *
  55:consol.c      ****  ****************************************************************************/
  56:consol.c      **** static void
  57:consol.c      **** printNum(void (*outputFnk) (char ch),
  58:consol.c      ****          unsigned int number,
  59:consol.c      ****          unsigned int base)
  60:consol.c      **** {
  22              		.loc 1 60 0
  23              		@ Function supports interworking.
  24              		@ args = 0, pretend = 0, frame = 52
  25              		@ frame_needed = 0, uses_anonymous_args = 0
  26              	.LVL0:
  27 0000 F0402DE9 		stmfd	sp!, {r4, r5, r6, r7, lr}
  28              	.LCFI0:
  29 0004 34D04DE2 		sub	sp, sp, #52
  30              	.LCFI1:
  31              		.loc 1 60 0
  32 0008 0070A0E1 		mov	r7, r0
  33 000c 0140A0E1 		mov	r4, r1
  34 0010 0260A0E1 		mov	r6, r2
  61:consol.c      **** 	char *p;
  62:consol.c      **** 	char  buf[33];
  63:consol.c      **** 	char  hexChars[] = "0123456789abcdef";
  35              		.loc 1 63 0
  36 0014 23008DE2 		add	r0, sp, #35
  37              	.LVL1:
  38 0018 60109FE5 		ldr	r1, .L11
  39              	.LVL2:
  40 001c 1120A0E3 		mov	r2, #17
  41              	.LVL3:
  42 0020 FEFFFFEB 		bl	memcpy
  43 0024 02508DE2 		add	r5, sp, #2
ARM GAS  /cygdrive/c/DOCUME~1/deforce/LOKALA~1/Temp/ccQeUh7S.s 			page 3


  44              	.LVL4:
  45              	.L2:
  64:consol.c      **** 	
  65:consol.c      **** 	p = buf;
  66:consol.c      **** 	
  67:consol.c      **** 	do {
  68:consol.c      **** 		*p++ = hexChars[number % base];
  46              		.loc 1 68 0
  47 0028 0400A0E1 		mov	r0, r4
  48 002c 0610A0E1 		mov	r1, r6
  49 0030 FEFFFFEB 		bl	__umodsi3
  50 0034 34308DE2 		add	r3, sp, #52
  51 0038 000083E0 		add	r0, r3, r0
  52 003c 113050E5 		ldrb	r3, [r0, #-17]	@ zero_extendqisi2
  69:consol.c      **** 	} while (number /= base);
  53              		.loc 1 69 0
  54 0040 0610A0E1 		mov	r1, r6
  55 0044 0400A0E1 		mov	r0, r4
  56              		.loc 1 68 0
  57 0048 0130C5E4 		strb	r3, [r5], #1
  58              		.loc 1 69 0
  59 004c FEFFFFEB 		bl	__udivsi3
  60 0050 004050E2 		subs	r4, r0, #0
  61 0054 F3FFFF1A 		bne	.L2
  62 0058 0540A0E1 		mov	r4, r5
  63              	.LVL5:
  64              	.L4:
  70:consol.c      **** 	
  71:consol.c      **** 	do {
  72:consol.c      **** 		outputFnk(*--p);
  65              		.loc 1 72 0
  66 005c 010074E5 		ldrb	r0, [r4, #-1]!	@ zero_extendqisi2
  67 0060 0FE0A0E1 		mov	lr, pc
  68 0064 17FF2FE1 		bx	r7
  73:consol.c      **** 	} while (p > buf);
  69              		.loc 1 73 0
  70 0068 02308DE2 		add	r3, sp, #2
  71 006c 030054E1 		cmp	r4, r3
  72 0070 F9FFFF8A 		bhi	.L4
  74:consol.c      **** }
  73              		.loc 1 74 0
  74 0074 34D08DE2 		add	sp, sp, #52
  75 0078 F040BDE8 		ldmfd	sp!, {r4, r5, r6, r7, lr}
  76 007c 1EFF2FE1 		bx	lr
  77              	.L12:
  78              		.align	2
  79              	.L11:
  80 0080 00000000 		.word	.LC0
  81              	.LFE2:
  82              		.size	printNum, .-printNum
  83              		.align	2
  84              		.global	consolInit
  85              		.type	consolInit, %function
  86              	consolInit:
  87              	.LFB4:
  75:consol.c      **** 
  76:consol.c      **** /*****************************************************************************
ARM GAS  /cygdrive/c/DOCUME~1/deforce/LOKALA~1/Temp/ccQeUh7S.s 			page 4


  77:consol.c      ****  *
  78:consol.c      ****  * Description:
  79:consol.c      ****  *    A simple implementation of printf that uses a minimum of stack space.
  80:consol.c      ****  *
  81:consol.c      ****  * Params:
  82:consol.c      ****  *    [in] outputFnk - Output function where characters to be printed are 
  83:consol.c      ****  *                      sent 
  84:consol.c      ****  * 
  85:consol.c      ****  *                Params (callback):
  86:consol.c      ****  *                   ch - Character to be printed 
  87:consol.c      ****  *    [in] fmt       - Format string that specifies what to be printed 
  88:consol.c      ****  *    [in] ap        - Structure that hold information about the variable 
  89:consol.c      ****  *                     number of parameters 
  90:consol.c      ****  *
  91:consol.c      ****  ****************************************************************************/
  92:consol.c      **** static void
  93:consol.c      **** simplePrint(void         (*outputFnk) (char ch),
  94:consol.c      ****             const char * fmt,
  95:consol.c      ****             va_list      ap)
  96:consol.c      **** {
  97:consol.c      ****   char          *p;
  98:consol.c      ****   char           ch;
  99:consol.c      ****   unsigned long  ul;
 100:consol.c      ****   unsigned char  lflag;
 101:consol.c      **** 
 102:consol.c      ****   for (;;)
 103:consol.c      ****   {
 104:consol.c      ****     while ((ch = *fmt++) != '%')
 105:consol.c      ****     {
 106:consol.c      ****       if (ch == '\0')
 107:consol.c      ****         	return;
 108:consol.c      ****       outputFnk(ch);
 109:consol.c      ****     }
 110:consol.c      ****     lflag = 0;
 111:consol.c      **** 
 112:consol.c      **** reswitch:
 113:consol.c      **** 
 114:consol.c      ****     switch (ch = *fmt++)
 115:consol.c      ****     {
 116:consol.c      ****     case '\0':
 117:consol.c      ****       return;
 118:consol.c      **** 
 119:consol.c      ****     case 'l':
 120:consol.c      ****       lflag = 1;
 121:consol.c      ****       goto reswitch;
 122:consol.c      **** 
 123:consol.c      ****     case 'c':
 124:consol.c      **** 	    ch = va_arg(ap, unsigned int);
 125:consol.c      **** 	    outputFnk(ch & 0x7f);
 126:consol.c      **** 	    break;
 127:consol.c      **** 
 128:consol.c      ****     case 's':
 129:consol.c      ****       p = va_arg(ap, char *);
 130:consol.c      ****       while ((ch = *p++) != 0)
 131:consol.c      ****         outputFnk(ch);
 132:consol.c      ****       break;
 133:consol.c      **** 
ARM GAS  /cygdrive/c/DOCUME~1/deforce/LOKALA~1/Temp/ccQeUh7S.s 			page 5


 134:consol.c      ****     case 'd':
 135:consol.c      ****       ul = lflag ? va_arg(ap, long) : va_arg(ap, unsigned int);
 136:consol.c      ****       if ((long)ul < 0)
 137:consol.c      ****       {
 138:consol.c      ****         outputFnk('-');
 139:consol.c      ****         ul = -(long)ul;
 140:consol.c      ****       }
 141:consol.c      ****       printNum(outputFnk, ul, 10);
 142:consol.c      ****       break;
 143:consol.c      **** 
 144:consol.c      ****     case 'o':
 145:consol.c      ****       ul = va_arg(ap, unsigned int);
 146:consol.c      ****       printNum(outputFnk, ul, 8);
 147:consol.c      ****       break;
 148:consol.c      **** 
 149:consol.c      ****     case 'u':
 150:consol.c      ****       ul = va_arg(ap, unsigned int);
 151:consol.c      ****       printNum(outputFnk, ul, 10);
 152:consol.c      ****       break;
 153:consol.c      **** 
 154:consol.c      ****     case 'p':
 155:consol.c      ****       outputFnk('0');
 156:consol.c      ****       outputFnk('x');
 157:consol.c      ****       lflag = 1;
 158:consol.c      ****       // fall through
 159:consol.c      **** 
 160:consol.c      ****     case 'x':
 161:consol.c      ****       ul = va_arg(ap, unsigned int);
 162:consol.c      ****       printNum(outputFnk, ul, 16);
 163:consol.c      ****       break;
 164:consol.c      **** 
 165:consol.c      ****     default:
 166:consol.c      **** //      outputFnk('%');
 167:consol.c      ****       if (lflag)
 168:consol.c      ****         outputFnk('l');
 169:consol.c      ****       outputFnk(ch);
 170:consol.c      ****     }
 171:consol.c      ****   }
 172:consol.c      ****   va_end(ap);
 173:consol.c      **** }
 174:consol.c      **** #endif
 175:consol.c      **** 
 176:consol.c      **** /******************************************************************************
 177:consol.c      ****  * Implementation of public functions
 178:consol.c      ****  *****************************************************************************/
 179:consol.c      **** 
 180:consol.c      **** 
 181:consol.c      **** /*****************************************************************************
 182:consol.c      ****  *
 183:consol.c      ****  * Description:
 184:consol.c      ****  *    Initializes the consol channel (init UART, including setting bitrate and 
 185:consol.c      ****  *    GPIO). 
 186:consol.c      ****  *
 187:consol.c      ****  ****************************************************************************/
 188:consol.c      **** void
 189:consol.c      **** consolInit(void)
 190:consol.c      **** {
ARM GAS  /cygdrive/c/DOCUME~1/deforce/LOKALA~1/Temp/ccQeUh7S.s 			page 6


  88              		.loc 1 190 0
  89              		@ Function supports interworking.
  90              		@ args = 0, pretend = 0, frame = 0
  91              		@ frame_needed = 0, uses_anonymous_args = 0
  92              		@ link register save eliminated.
 191:consol.c      **** #if (CONSOL_UART == 0)
 192:consol.c      ****   //enable uart #0 pins in GPIO (P0.0 = TxD0, P0.1 = RxD0)
 193:consol.c      ****   PINSEL0 = (PINSEL0 & 0xfffffff0) | 0x00000005;
  93              		.loc 1 193 0
  94 0084 40009FE5 		ldr	r0, .L15
  95 0088 003090E5 		ldr	r3, [r0, #0]
  96 008c 0F30C3E3 		bic	r3, r3, #15
 194:consol.c      **** #else
 195:consol.c      ****   //enable uart #1 pins in GPIO (P0.8 = TxD1, P9.1 = RxD1)
 196:consol.c      ****   PINSEL0 = (PINSEL0 & 0xfff0ffff) | 0x00050000;
 197:consol.c      **** #endif
 198:consol.c      **** 
 199:consol.c      ****   //initialize bitrate (by first enable DL registers, DLAB-bit = 1)
 200:consol.c      ****   UART_LCR = 0x80;
  97              		.loc 1 200 0
  98 0090 38209FE5 		ldr	r2, .L15+4
  99              		.loc 1 193 0
 100 0094 053083E3 		orr	r3, r3, #5
 101 0098 003080E5 		str	r3, [r0, #0]
 102              		.loc 1 200 0
 103 009c 8030A0E3 		mov	r3, #128
 104 00a0 0C3082E5 		str	r3, [r2, #12]
 201:consol.c      ****   UART_DLL = (unsigned char)(UART_DLL_VALUE & 0x00ff);
 105              		.loc 1 201 0
 106 00a4 2130A0E3 		mov	r3, #33
 107 00a8 003082E5 		str	r3, [r2, #0]
 202:consol.c      ****   UART_DLM = (unsigned char)(UART_DLL_VALUE>>8);
 108              		.loc 1 202 0
 109 00ac 0010A0E3 		mov	r1, #0
 203:consol.c      ****   UART_LCR = 0x00;
 204:consol.c      **** 
 205:consol.c      ****   //initialize LCR: 8N1
 206:consol.c      ****   UART_LCR = 0x03;
 110              		.loc 1 206 0
 111 00b0 0330A0E3 		mov	r3, #3
 112              		.loc 1 202 0
 113 00b4 041082E5 		str	r1, [r2, #4]
 114              		.loc 1 190 0
 115              		@ lr needed for prologue
 116              		.loc 1 203 0
 117 00b8 0C1082E5 		str	r1, [r2, #12]
 118              		.loc 1 206 0
 119 00bc 0C3082E5 		str	r3, [r2, #12]
 207:consol.c      **** 
 208:consol.c      ****   //reset FIFO
 209:consol.c      ****   UART_FCR = 0x00;
 120              		.loc 1 209 0
 121 00c0 081082E5 		str	r1, [r2, #8]
 210:consol.c      **** 
 211:consol.c      ****   //clear interrupt bits
 212:consol.c      ****   UART_IER = 0x00;
 122              		.loc 1 212 0
ARM GAS  /cygdrive/c/DOCUME~1/deforce/LOKALA~1/Temp/ccQeUh7S.s 			page 7


 123 00c4 041082E5 		str	r1, [r2, #4]
 213:consol.c      **** }
 124              		.loc 1 213 0
 125 00c8 1EFF2FE1 		bx	lr
 126              	.L16:
 127              		.align	2
 128              	.L15:
 129 00cc 00C002E0 		.word	-536690688
 130 00d0 00C000E0 		.word	-536821760
 131              	.LFE4:
 132              		.size	consolInit, .-consolInit
 133              		.align	2
 134              		.global	consolSendChar
 135              		.type	consolSendChar, %function
 136              	consolSendChar:
 137              	.LFB5:
 214:consol.c      **** 
 215:consol.c      **** /*****************************************************************************
 216:consol.c      ****  *
 217:consol.c      ****  * Description:
 218:consol.c      ****  *    Blocking consol output routine, i.e., the routine waits until the uart 
 219:consol.c      ****  *    buffer is free and then sends the character. 
 220:consol.c      ****  *
 221:consol.c      ****  * Params:
 222:consol.c      ****  *    [in] charToSend - The character to print (to the consol) 
 223:consol.c      ****  *
 224:consol.c      ****  ****************************************************************************/
 225:consol.c      **** void
 226:consol.c      **** consolSendChar(char charToSend)
 227:consol.c      **** {
 138              		.loc 1 227 0
 139              		@ Function supports interworking.
 140              		@ args = 0, pretend = 0, frame = 0
 141              		@ frame_needed = 0, uses_anonymous_args = 0
 142              		@ link register save eliminated.
 143              	.LVL6:
 144              		@ lr needed for prologue
 145 00d4 FF0000E2 		and	r0, r0, #255
 146              	.L19:
 228:consol.c      ****   //Wait until THR is empty
 229:consol.c      ****   while(!(UART_LSR & 0x20))
 147              		.loc 1 229 0
 148 00d8 10209FE5 		ldr	r2, .L24
 149 00dc 143092E5 		ldr	r3, [r2, #20]
 150 00e0 200013E3 		tst	r3, #32
 151 00e4 FBFFFF0A 		beq	.L19
 230:consol.c      ****     ;
 231:consol.c      ****   UART_THR = charToSend;
 152              		.loc 1 231 0
 153 00e8 000082E5 		str	r0, [r2, #0]
 232:consol.c      **** }
 154              		.loc 1 232 0
 155 00ec 1EFF2FE1 		bx	lr
 156              	.L25:
 157              		.align	2
 158              	.L24:
 159 00f0 00C000E0 		.word	-536821760
ARM GAS  /cygdrive/c/DOCUME~1/deforce/LOKALA~1/Temp/ccQeUh7S.s 			page 8


 160              	.LFE5:
 161              		.size	consolSendChar, .-consolSendChar
 162              		.align	2
 163              		.global	consolSendCh
 164              		.type	consolSendCh, %function
 165              	consolSendCh:
 166              	.LFB6:
 233:consol.c      **** 
 234:consol.c      **** /*****************************************************************************
 235:consol.c      ****  *
 236:consol.c      ****  * Description:
 237:consol.c      ****  *    Consol output routine that adds extra line feeds at line breaks. 
 238:consol.c      ****  *
 239:consol.c      ****  * Params:
 240:consol.c      ****  *    [in] charToSend - The character to print (to the consol) 
 241:consol.c      ****  *
 242:consol.c      ****  ****************************************************************************/
 243:consol.c      **** void
 244:consol.c      **** consolSendCh(char charToSend)
 245:consol.c      **** {
 167              		.loc 1 245 0
 168              		@ Function supports interworking.
 169              		@ args = 0, pretend = 0, frame = 0
 170              		@ frame_needed = 0, uses_anonymous_args = 0
 171              		@ link register save eliminated.
 172              	.LVL7:
 173 00f4 FF0000E2 		and	r0, r0, #255
 246:consol.c      ****   if(charToSend == '\n')
 174              		.loc 1 246 0
 175 00f8 0A0050E3 		cmp	r0, #10
 176              		.loc 1 245 0
 177              		@ lr needed for prologue
 178              		.loc 1 246 0
 179 00fc 0500001A 		bne	.L34
 180              	.L33:
 181              	.LBB6:
 182              	.LBB7:
 183              		.loc 1 229 0
 184 0100 2C209FE5 		ldr	r2, .L39
 185 0104 143092E5 		ldr	r3, [r2, #20]
 186 0108 200013E3 		tst	r3, #32
 187 010c FBFFFF0A 		beq	.L33
 188              		.loc 1 231 0
 189 0110 0D30A0E3 		mov	r3, #13
 190 0114 003082E5 		str	r3, [r2, #0]
 191              	.L34:
 192              	.LBE7:
 193              	.LBE6:
 194              	.LBB8:
 195              	.LBB9:
 196              		.loc 1 229 0
 197 0118 14209FE5 		ldr	r2, .L39
 198 011c 143092E5 		ldr	r3, [r2, #20]
 199 0120 200013E3 		tst	r3, #32
 200 0124 FBFFFF0A 		beq	.L34
 201              		.loc 1 231 0
 202 0128 FF3000E2 		and	r3, r0, #255
ARM GAS  /cygdrive/c/DOCUME~1/deforce/LOKALA~1/Temp/ccQeUh7S.s 			page 9


 203 012c 003082E5 		str	r3, [r2, #0]
 204              	.LBE9:
 205              	.LBE8:
 247:consol.c      ****     consolSendChar('\r');
 248:consol.c      **** 
 249:consol.c      ****   consolSendChar(charToSend);
 250:consol.c      **** }
 206              		.loc 1 250 0
 207 0130 1EFF2FE1 		bx	lr
 208              	.L40:
 209              		.align	2
 210              	.L39:
 211 0134 00C000E0 		.word	-536821760
 212              	.LFE6:
 213              		.size	consolSendCh, .-consolSendCh
 214              		.align	2
 215              		.global	consolSendString
 216              		.type	consolSendString, %function
 217              	consolSendString:
 218              	.LFB7:
 251:consol.c      **** 
 252:consol.c      **** /*****************************************************************************
 253:consol.c      ****  *
 254:consol.c      ****  * Description:
 255:consol.c      ****  *    Print string to consol. 
 256:consol.c      ****  *
 257:consol.c      ****  * Params:
 258:consol.c      ****  *    [in] pString - Pointer to string to be printed 
 259:consol.c      ****  *
 260:consol.c      ****  ****************************************************************************/
 261:consol.c      **** void
 262:consol.c      **** consolSendString(char *pString)
 263:consol.c      **** {
 219              		.loc 1 263 0
 220              		@ Function supports interworking.
 221              		@ args = 0, pretend = 0, frame = 0
 222              		@ frame_needed = 0, uses_anonymous_args = 0
 223              	.LVL8:
 224 0138 10402DE9 		stmfd	sp!, {r4, lr}
 225              	.LCFI2:
 226              		.loc 1 263 0
 227 013c 0040A0E1 		mov	r4, r0
 228 0140 000000EA 		b	.L42
 229              	.LVL9:
 230              	.L43:
 264:consol.c      ****   while(*pString)
 265:consol.c      ****     consolSendCh(*pString++);
 231              		.loc 1 265 0
 232 0144 FEFFFFEB 		bl	consolSendCh
 233              	.LVL10:
 234              	.L42:
 235              		.loc 1 264 0
 236 0148 0030D4E5 		ldrb	r3, [r4, #0]	@ zero_extendqisi2
 237 014c 000053E3 		cmp	r3, #0
 238              		.loc 1 265 0
 239 0150 0300A0E1 		mov	r0, r3
 240 0154 014084E2 		add	r4, r4, #1
ARM GAS  /cygdrive/c/DOCUME~1/deforce/LOKALA~1/Temp/ccQeUh7S.s 			page 10


 241              		.loc 1 264 0
 242 0158 F9FFFF1A 		bne	.L43
 266:consol.c      **** }
 243              		.loc 1 266 0
 244 015c 1040BDE8 		ldmfd	sp!, {r4, lr}
 245 0160 1EFF2FE1 		bx	lr
 246              	.LFE7:
 247              		.size	consolSendString, .-consolSendString
 248              		.align	2
 249              		.global	consolSendNumber
 250              		.type	consolSendNumber, %function
 251              	consolSendNumber:
 252              	.LFB8:
 267:consol.c      **** 
 268:consol.c      **** /*****************************************************************************
 269:consol.c      ****  *
 270:consol.c      ****  * Description:
 271:consol.c      ****  *    Routine for printing integer numbers in various formats. The number is 
 272:consol.c      ****  *    printed in the specified 'base' using exactly 'noDigits', using +/- if 
 273:consol.c      ****  *    signed flag 'sign' is TRUE, and using the character specified in 'pad' 
 274:consol.c      ****  *    to pad extra characters. 
 275:consol.c      ****  *
 276:consol.c      ****  * Params:
 277:consol.c      ****  *    [in] base     - Base to print number in (2-16) 
 278:consol.c      ****  *    [in] noDigits - Number of digits to print (max 32) 
 279:consol.c      ****  *    [in] sign     - Flag if sign is to be used (TRUE), or not (FALSE) 
 280:consol.c      ****  *    [in] pad      - Character to pad any unused positions 
 281:consol.c      ****  *    [in] number   - Signed number to print 
 282:consol.c      ****  *
 283:consol.c      ****  ****************************************************************************/
 284:consol.c      **** void
 285:consol.c      **** consolSendNumber(unsigned char base,
 286:consol.c      ****                  unsigned char noDigits,
 287:consol.c      ****                  unsigned char sign,
 288:consol.c      ****                  char          pad,
 289:consol.c      ****                  int           number)
 290:consol.c      **** {
 253              		.loc 1 290 0
 254              		@ Function supports interworking.
 255              		@ args = 4, pretend = 0, frame = 32
 256              		@ frame_needed = 0, uses_anonymous_args = 0
 257              	.LVL11:
 258 0164 F04F2DE9 		stmfd	sp!, {r4, r5, r6, r7, r8, r9, sl, fp, lr}
 259              	.LCFI3:
 260 0168 20D04DE2 		sub	sp, sp, #32
 261              	.LCFI4:
 262              		.loc 1 290 0
 263 016c 44809DE5 		ldr	r8, [sp, #68]
 291:consol.c      ****   static char    hexChars[16] = "0123456789ABCDEF";
 292:consol.c      ****   char          *pBuf;
 293:consol.c      ****   char           buf[32];
 294:consol.c      ****   unsigned int   numberAbs;
 295:consol.c      ****   unsigned char  count;
 296:consol.c      **** 
 297:consol.c      ****   // prepare negative number
 298:consol.c      ****   if(sign && (number < 0))
 264              		.loc 1 298 0
ARM GAS  /cygdrive/c/DOCUME~1/deforce/LOKALA~1/Temp/ccQeUh7S.s 			page 11


 265 0170 FF2012E2 		ands	r2, r2, #255
 266 0174 00A0A003 		moveq	sl, #0
 267 0178 01A0A013 		movne	sl, #1
 268 017c A89FA0E1 		mov	r9, r8, lsr #31
 269 0180 09001AE1 		tst	sl, r9
 299:consol.c      ****     numberAbs = -number;
 270              		.loc 1 299 0
 271 0184 00406812 		rsbne	r4, r8, #0
 272              	.LVL12:
 300:consol.c      ****   else
 301:consol.c      ****     numberAbs = number;
 273              		.loc 1 301 0
 274 0188 0840A001 		moveq	r4, r8
 275              		.loc 1 290 0
 276 018c FF7000E2 		and	r7, r0, #255
 277 0190 FF1001E2 		and	r1, r1, #255
 302:consol.c      **** 
 303:consol.c      ****   // setup little string buffer
 304:consol.c      ****   count = (noDigits - 1) - (sign ? 1 : 0);
 278              		.loc 1 304 0
 279 0194 000052E3 		cmp	r2, #0
 280 0198 0120A001 		moveq	r2, r1
 281 019c 01204112 		subne	r2, r1, #1
 282              	.LVL13:
 305:consol.c      ****   pBuf = buf + sizeof(buf);
 306:consol.c      ****   *--pBuf = '\0';
 307:consol.c      **** 
 308:consol.c      ****   // force calculation of first digit
 309:consol.c      ****   // (to prevent zero from not printing at all!!!)
 310:consol.c      ****   *--pBuf = hexChars[(numberAbs % base)];
 283              		.loc 1 310 0
 284 01a0 0400A0E1 		mov	r0, r4
 285              	.LVL14:
 286 01a4 0710A0E1 		mov	r1, r7
 287              	.LVL15:
 288              		.loc 1 290 0
 289 01a8 FFB003E2 		and	fp, r3, #255
 290              		.loc 1 306 0
 291 01ac 0030A0E3 		mov	r3, #0
 292              	.LVL16:
 293 01b0 1F30CDE5 		strb	r3, [sp, #31]
 294              		.loc 1 304 0
 295 01b4 FF6002E2 		and	r6, r2, #255
 296              		.loc 1 310 0
 297 01b8 FEFFFFEB 		bl	__umodsi3
 298 01bc B4309FE5 		ldr	r3, .L64
 299 01c0 0030D3E7 		ldrb	r3, [r3, r0]	@ zero_extendqisi2
 311:consol.c      ****   numberAbs /= base;
 300              		.loc 1 311 0
 301 01c4 0710A0E1 		mov	r1, r7
 302 01c8 0400A0E1 		mov	r0, r4
 303              		.loc 1 310 0
 304 01cc 1E30CDE5 		strb	r3, [sp, #30]
 305              		.loc 1 311 0
 306 01d0 FEFFFFEB 		bl	__udivsi3
 307 01d4 1E408DE2 		add	r4, sp, #30
 308              	.LVL17:
ARM GAS  /cygdrive/c/DOCUME~1/deforce/LOKALA~1/Temp/ccQeUh7S.s 			page 12


 309 01d8 0050A0E1 		mov	r5, r0
 310              	.LVL18:
 311 01dc 0F0000EA 		b	.L50
 312              	.LVL19:
 313              	.L51:
 312:consol.c      **** 
 313:consol.c      ****   // calculate remaining digits
 314:consol.c      ****   while(count--)
 315:consol.c      ****   {
 316:consol.c      ****     if(numberAbs != 0)
 314              		.loc 1 316 0
 315 01e0 000055E3 		cmp	r5, #0
 316 01e4 013044E2 		sub	r3, r4, #1
 317:consol.c      ****     {
 318:consol.c      ****       //calculate next digit
 319:consol.c      ****       *--pBuf = hexChars[(numberAbs % base)];
 317              		.loc 1 319 0
 318 01e8 0340A0E1 		mov	r4, r3
 320:consol.c      ****       numberAbs /= base;
 321:consol.c      ****     }
 322:consol.c      ****     else
 323:consol.c      ****       // no more digits left, pad out to desired length
 324:consol.c      ****       *--pBuf = pad;
 319              		.loc 1 324 0
 320 01ec 0340A001 		moveq	r4, r3
 321 01f0 00B0C405 		streqb	fp, [r4, #0]
 322              		.loc 1 316 0
 323 01f4 0700000A 		beq	.L54
 324              	.LVL20:
 325              		.loc 1 319 0
 326 01f8 FEFFFFEB 		bl	__umodsi3
 327 01fc 74309FE5 		ldr	r3, .L64
 328 0200 0030D3E7 		ldrb	r3, [r3, r0]	@ zero_extendqisi2
 329              		.loc 1 320 0
 330 0204 0710A0E1 		mov	r1, r7
 331 0208 0500A0E1 		mov	r0, r5
 332              		.loc 1 319 0
 333 020c 0030C4E5 		strb	r3, [r4, #0]
 334              		.loc 1 320 0
 335 0210 FEFFFFEB 		bl	__udivsi3
 336 0214 0050A0E1 		mov	r5, r0
 337              	.LVL21:
 338              	.L54:
 339              		.loc 1 324 0
 340 0218 013046E2 		sub	r3, r6, #1
 341 021c FF6003E2 		and	r6, r3, #255
 342              	.L50:
 343              		.loc 1 314 0
 344 0220 010056E3 		cmp	r6, #1
 345              		.loc 1 319 0
 346 0224 0500A0E1 		mov	r0, r5
 347 0228 0710A0E1 		mov	r1, r7
 348              		.loc 1 314 0
 349 022c EBFFFF1A 		bne	.L51
 350              	.LVL22:
 325:consol.c      ****   }
 326:consol.c      **** 
ARM GAS  /cygdrive/c/DOCUME~1/deforce/LOKALA~1/Temp/ccQeUh7S.s 			page 13


 327:consol.c      ****   // apply signed notation if requested
 328:consol.c      ****   if(sign)
 351              		.loc 1 328 0
 352 0230 00005AE3 		cmp	sl, #0
 353 0234 0A00000A 		beq	.L56
 329:consol.c      ****   {
 330:consol.c      ****     if(number < 0)
 354              		.loc 1 330 0
 355 0238 000059E3 		cmp	r9, #0
 331:consol.c      ****       *--pBuf = '-';
 356              		.loc 1 331 0
 357 023c 2D30A013 		movne	r3, #45
 358 0240 01306415 		strneb	r3, [r4, #-1]!
 359              		.loc 1 330 0
 360 0244 0600001A 		bne	.L56
 361 0248 013044E2 		sub	r3, r4, #1
 332:consol.c      ****     else if(number > 0)
 362              		.loc 1 332 0
 363 024c 000058E3 		cmp	r8, #0
 333:consol.c      ****        *--pBuf = '+';
 364              		.loc 1 333 0
 365 0250 0340A011 		movne	r4, r3
 334:consol.c      ****     else
 335:consol.c      ****        *--pBuf = ' ';
 366              		.loc 1 335 0
 367 0254 0340A001 		moveq	r4, r3
 368              		.loc 1 333 0
 369 0258 2B30A013 		movne	r3, #43
 370              		.loc 1 335 0
 371 025c 2030A003 		moveq	r3, #32
 372 0260 0030C4E5 		strb	r3, [r4, #0]
 373              	.L56:
 336:consol.c      ****   }
 337:consol.c      **** 
 338:consol.c      ****   // print the string right-justified
 339:consol.c      ****   consolSendString(pBuf);
 374              		.loc 1 339 0
 375 0264 0400A0E1 		mov	r0, r4
 376              	.LVL23:
 377 0268 FEFFFFEB 		bl	consolSendString
 340:consol.c      **** }
 378              		.loc 1 340 0
 379 026c 20D08DE2 		add	sp, sp, #32
 380 0270 F04FBDE8 		ldmfd	sp!, {r4, r5, r6, r7, r8, r9, sl, fp, lr}
 381 0274 1EFF2FE1 		bx	lr
 382              	.L65:
 383              		.align	2
 384              	.L64:
 385 0278 00000000 		.word	hexChars.2019
 386              	.LFE8:
 387              		.size	consolSendNumber, .-consolSendNumber
 388              		.align	2
 389              		.global	simplePrintf
 390              		.type	simplePrintf, %function
 391              	simplePrintf:
 392              	.LFB9:
 341:consol.c      **** 
ARM GAS  /cygdrive/c/DOCUME~1/deforce/LOKALA~1/Temp/ccQeUh7S.s 			page 14


 342:consol.c      **** #if (CONSOLE_API_PRINTF == 1)  //OWN_PRINTF
 343:consol.c      **** /*****************************************************************************
 344:consol.c      ****  *
 345:consol.c      ****  * Description:
 346:consol.c      ****  *    Simple implementation of printf 
 347:consol.c      ****  *
 348:consol.c      ****  * Params:
 349:consol.c      ****  *    [in] fmt - Format string that specifies what to be printed 
 350:consol.c      ****  *    [in] ... - Variable number of parameters to match format string 
 351:consol.c      ****  *
 352:consol.c      ****  ****************************************************************************/
 353:consol.c      **** void
 354:consol.c      **** simplePrintf(const char * fmt,
 355:consol.c      ****              ...          )
 356:consol.c      **** {
 393              		.loc 1 356 0
 394              		@ Function supports interworking.
 395              		@ args = 4, pretend = 16, frame = 4
 396              		@ frame_needed = 0, uses_anonymous_args = 1
 397              	.LVL24:
 398 027c 0F002DE9 		stmfd	sp!, {r0, r1, r2, r3}
 399              	.LCFI5:
 400 0280 70402DE9 		stmfd	sp!, {r4, r5, r6, lr}
 401              	.LCFI6:
 402 0284 04D04DE2 		sub	sp, sp, #4
 403              	.LCFI7:
 357:consol.c      **** 	va_list ap;
 358:consol.c      **** 
 359:consol.c      **** 	va_start(ap, fmt);
 404              		.loc 1 359 0
 405 0288 18308DE2 		add	r3, sp, #24
 406              		.loc 1 356 0
 407 028c 14609DE5 		ldr	r6, [sp, #20]
 360:consol.c      **** 	simplePrint(consolSendCh, fmt, ap);
 408              		.loc 1 360 0
 409 0290 0350A0E1 		mov	r5, r3
 410              	.LVL25:
 411              		.loc 1 359 0
 412 0294 00308DE5 		str	r3, [sp, #0]
 413              	.LVL26:
 414 0298 020000EA 		b	.L105
 415              	.LVL27:
 416              	.L68:
 417              	.LBB12:
 418              	.LBB13:
 419              		.loc 1 106 0
 420 029c 000050E3 		cmp	r0, #0
 421 02a0 5000000A 		beq	.L95
 422              	.LVL28:
 423              	.L103:
 424              		.loc 1 108 0
 425 02a4 FEFFFFEB 		bl	consolSendCh
 426              	.LVL29:
 427              	.L105:
 428              		.loc 1 104 0
 429 02a8 0100D6E4 		ldrb	r0, [r6], #1	@ zero_extendqisi2
 430              	.LVL30:
ARM GAS  /cygdrive/c/DOCUME~1/deforce/LOKALA~1/Temp/ccQeUh7S.s 			page 15


 431 02ac 250050E3 		cmp	r0, #37
 432 02b0 F9FFFF1A 		bne	.L68
 433 02b4 0030A0E3 		mov	r3, #0
 434              	.LVL31:
 435              	.L72:
 436              		.loc 1 114 0
 437 02b8 0140D6E4 		ldrb	r4, [r6], #1	@ zero_extendqisi2
 438              	.LVL32:
 439 02bc 6F0054E3 		cmp	r4, #111
 440 02c0 3000000A 		beq	.L77
 441 02c4 0A00008A 		bhi	.L82
 442 02c8 640054E3 		cmp	r4, #100
 443 02cc 2100000A 		beq	.L75
 444 02d0 0400008A 		bhi	.L83
 445 02d4 000054E3 		cmp	r4, #0
 446 02d8 4200000A 		beq	.L95
 447 02dc 630054E3 		cmp	r4, #99
 448 02e0 3B00001A 		bne	.L73
 449 02e4 0F0000EA 		b	.L74
 450              	.L83:
 451 02e8 6C0054E3 		cmp	r4, #108
 452 02ec 3800001A 		bne	.L73
 453 02f0 0A0000EA 		b	.L76
 454              	.L82:
 455 02f4 730054E3 		cmp	r4, #115
 456 02f8 0E00000A 		beq	.L79
 457 02fc 0200008A 		bhi	.L84
 458 0300 700054E3 		cmp	r4, #112
 459 0304 3200001A 		bne	.L73
 460 0308 290000EA 		b	.L78
 461              	.L84:
 462 030c 750054E3 		cmp	r4, #117
 463 0310 2300000A 		beq	.L80
 464 0314 780054E3 		cmp	r4, #120
 465 0318 2D00001A 		bne	.L73
 466 031c 280000EA 		b	.L81
 467              	.L76:
 468 0320 0130A0E3 		mov	r3, #1
 469 0324 E3FFFFEA 		b	.L72
 470              	.L74:
 471              		.loc 1 125 0
 472 0328 000095E5 		ldr	r0, [r5, #0]
 473              	.LVL33:
 474 032c 7F0000E2 		and	r0, r0, #127
 475 0330 FEFFFFEB 		bl	consolSendCh
 476              	.LVL34:
 477 0334 170000EA 		b	.L102
 478              	.LVL35:
 479              	.L79:
 480              		.loc 1 129 0
 481 0338 004095E5 		ldr	r4, [r5, #0]
 482              	.LVL36:
 483 033c 000000EA 		b	.L85
 484              	.LVL37:
 485              	.L86:
 486              		.loc 1 131 0
 487 0340 FEFFFFEB 		bl	consolSendCh
ARM GAS  /cygdrive/c/DOCUME~1/deforce/LOKALA~1/Temp/ccQeUh7S.s 			page 16


 488              	.LVL38:
 489              	.L85:
 490              		.loc 1 130 0
 491 0344 0130D4E4 		ldrb	r3, [r4], #1	@ zero_extendqisi2
 492              	.LVL39:
 493 0348 000053E2 		subs	r0, r3, #0
 494              	.LVL40:
 495 034c FBFFFF1A 		bne	.L86
 496              	.LVL41:
 497              		.loc 1 129 0
 498 0350 045085E2 		add	r5, r5, #4
 499 0354 D3FFFFEA 		b	.L105
 500              	.LVL42:
 501              	.L75:
 502              		.loc 1 135 0
 503 0358 004095E5 		ldr	r4, [r5, #0]
 504              	.LVL43:
 505              		.loc 1 136 0
 506 035c 000054E3 		cmp	r4, #0
 507 0360 045085E2 		add	r5, r5, #4
 508              	.LVL44:
 509 0364 020000AA 		bge	.L91
 510              		.loc 1 138 0
 511 0368 2D00A0E3 		mov	r0, #45
 512              	.LVL45:
 513 036c FEFFFFEB 		bl	consolSendCh
 514              	.LVL46:
 515              		.loc 1 139 0
 516 0370 004064E2 		rsb	r4, r4, #0
 517              	.LVL47:
 518              	.L91:
 519              		.loc 1 141 0
 520 0374 0410A0E1 		mov	r1, r4
 521 0378 78009FE5 		ldr	r0, .L106
 522              	.LVL48:
 523 037c 0A20A0E3 		mov	r2, #10
 524 0380 1EFFFFEB 		bl	printNum
 525              	.LVL49:
 526 0384 C7FFFFEA 		b	.L105
 527              	.LVL50:
 528              	.L77:
 529              		.loc 1 146 0
 530 0388 001095E5 		ldr	r1, [r5, #0]
 531 038c 64009FE5 		ldr	r0, .L106
 532              	.LVL51:
 533 0390 0820A0E3 		mov	r2, #8
 534              	.L104:
 535 0394 19FFFFEB 		bl	printNum
 536              	.LVL52:
 537              	.L102:
 538              		.loc 1 145 0
 539 0398 043085E2 		add	r3, r5, #4
 540              	.LVL53:
 541              		.loc 1 146 0
 542 039c 0350A0E1 		mov	r5, r3
 543 03a0 C0FFFFEA 		b	.L105
 544              	.LVL54:
ARM GAS  /cygdrive/c/DOCUME~1/deforce/LOKALA~1/Temp/ccQeUh7S.s 			page 17


 545              	.L80:
 546              		.loc 1 151 0
 547 03a4 001095E5 		ldr	r1, [r5, #0]
 548 03a8 48009FE5 		ldr	r0, .L106
 549              	.LVL55:
 550 03ac 0A20A0E3 		mov	r2, #10
 551 03b0 F7FFFFEA 		b	.L104
 552              	.LVL56:
 553              	.L78:
 554              		.loc 1 155 0
 555 03b4 3000A0E3 		mov	r0, #48
 556              	.LVL57:
 557 03b8 FEFFFFEB 		bl	consolSendCh
 558              	.LVL58:
 559              		.loc 1 156 0
 560 03bc 7800A0E3 		mov	r0, #120
 561 03c0 FEFFFFEB 		bl	consolSendCh
 562              	.LVL59:
 563              	.L81:
 564              		.loc 1 162 0
 565 03c4 001095E5 		ldr	r1, [r5, #0]
 566 03c8 28009FE5 		ldr	r0, .L106
 567              	.LVL60:
 568 03cc 1020A0E3 		mov	r2, #16
 569 03d0 EFFFFFEA 		b	.L104
 570              	.LVL61:
 571              	.L73:
 572              		.loc 1 167 0
 573 03d4 000053E3 		cmp	r3, #0
 574              		.loc 1 168 0
 575 03d8 6C00A013 		movne	r0, #108
 576              	.LVL62:
 577 03dc FEFFFF1B 		blne	consolSendCh
 578              	.LVL63:
 579              	.L93:
 580              		.loc 1 169 0
 581 03e0 0400A0E1 		mov	r0, r4
 582              	.LVL64:
 583 03e4 AEFFFFEA 		b	.L103
 584              	.LVL65:
 585              	.L95:
 586              	.LBE13:
 587              	.LBE12:
 361:consol.c      **** 	va_end(ap);
 362:consol.c      **** }
 588              		.loc 1 362 0
 589 03e8 04D08DE2 		add	sp, sp, #4
 590 03ec 7040BDE8 		ldmfd	sp!, {r4, r5, r6, lr}
 591 03f0 10D08DE2 		add	sp, sp, #16
 592 03f4 1EFF2FE1 		bx	lr
 593              	.L107:
 594              		.align	2
 595              	.L106:
 596 03f8 00000000 		.word	consolSendCh
 597              	.LFE9:
 598              		.size	simplePrintf, .-simplePrintf
 599              		.section	.rodata
ARM GAS  /cygdrive/c/DOCUME~1/deforce/LOKALA~1/Temp/ccQeUh7S.s 			page 18


 600              		.align	2
 601              		.type	hexChars.2019, %object
 602              		.size	hexChars.2019, 16
 603              	hexChars.2019:
 604 0000 30313233 		.ascii	"0123456789ABCDEF"
 604      34353637 
 604      38394142 
 604      43444546 
 605              		.section	.debug_frame,"",%progbits
 606              	.Lframe0:
 607 0000 0C000000 		.4byte	.LECIE0-.LSCIE0
 608              	.LSCIE0:
 609 0004 FFFFFFFF 		.4byte	0xffffffff
 610 0008 01       		.byte	0x1
 611 0009 00       		.ascii	"\000"
 612 000a 01       		.uleb128 0x1
 613 000b 7C       		.sleb128 -4
 614 000c 0E       		.byte	0xe
 615 000d 0C       		.byte	0xc
 616 000e 0D       		.uleb128 0xd
 617 000f 00       		.uleb128 0x0
 618              		.align	2
 619              	.LECIE0:
 620              	.LSFDE0:
 621 0010 1C000000 		.4byte	.LEFDE0-.LASFDE0
 622              	.LASFDE0:
 623 0014 00000000 		.4byte	.Lframe0
 624 0018 00000000 		.4byte	.LFB2
 625 001c 84000000 		.4byte	.LFE2-.LFB2
 626 0020 44       		.byte	0x4
 627              		.4byte	.LCFI0-.LFB2
 628 0021 0E       		.byte	0xe
 629 0022 14       		.uleb128 0x14
 630 0023 44       		.byte	0x4
 631              		.4byte	.LCFI1-.LCFI0
 632 0024 0E       		.byte	0xe
 633 0025 48       		.uleb128 0x48
 634 0026 8E       		.byte	0x8e
 635 0027 01       		.uleb128 0x1
 636 0028 87       		.byte	0x87
 637 0029 02       		.uleb128 0x2
 638 002a 86       		.byte	0x86
 639 002b 03       		.uleb128 0x3
 640 002c 85       		.byte	0x85
 641 002d 04       		.uleb128 0x4
 642 002e 84       		.byte	0x84
 643 002f 05       		.uleb128 0x5
 644              		.align	2
 645              	.LEFDE0:
 646              	.LSFDE2:
 647 0030 0C000000 		.4byte	.LEFDE2-.LASFDE2
 648              	.LASFDE2:
 649 0034 00000000 		.4byte	.Lframe0
 650 0038 84000000 		.4byte	.LFB4
 651 003c 50000000 		.4byte	.LFE4-.LFB4
 652              		.align	2
 653              	.LEFDE2:
ARM GAS  /cygdrive/c/DOCUME~1/deforce/LOKALA~1/Temp/ccQeUh7S.s 			page 19


 654              	.LSFDE4:
 655 0040 0C000000 		.4byte	.LEFDE4-.LASFDE4
 656              	.LASFDE4:
 657 0044 00000000 		.4byte	.Lframe0
 658 0048 D4000000 		.4byte	.LFB5
 659 004c 20000000 		.4byte	.LFE5-.LFB5
 660              		.align	2
 661              	.LEFDE4:
 662              	.LSFDE6:
 663 0050 0C000000 		.4byte	.LEFDE6-.LASFDE6
 664              	.LASFDE6:
 665 0054 00000000 		.4byte	.Lframe0
 666 0058 F4000000 		.4byte	.LFB6
 667 005c 44000000 		.4byte	.LFE6-.LFB6
 668              		.align	2
 669              	.LEFDE6:
 670              	.LSFDE8:
 671 0060 14000000 		.4byte	.LEFDE8-.LASFDE8
 672              	.LASFDE8:
 673 0064 00000000 		.4byte	.Lframe0
 674 0068 38010000 		.4byte	.LFB7
 675 006c 2C000000 		.4byte	.LFE7-.LFB7
 676 0070 44       		.byte	0x4
 677              		.4byte	.LCFI2-.LFB7
 678 0071 0E       		.byte	0xe
 679 0072 08       		.uleb128 0x8
 680 0073 8E       		.byte	0x8e
 681 0074 01       		.uleb128 0x1
 682 0075 84       		.byte	0x84
 683 0076 02       		.uleb128 0x2
 684 0077 00       		.align	2
 685              	.LEFDE8:
 686              	.LSFDE10:
 687 0078 24000000 		.4byte	.LEFDE10-.LASFDE10
 688              	.LASFDE10:
 689 007c 00000000 		.4byte	.Lframe0
 690 0080 64010000 		.4byte	.LFB8
 691 0084 18010000 		.4byte	.LFE8-.LFB8
 692 0088 44       		.byte	0x4
 693              		.4byte	.LCFI3-.LFB8
 694 0089 0E       		.byte	0xe
 695 008a 24       		.uleb128 0x24
 696 008b 44       		.byte	0x4
 697              		.4byte	.LCFI4-.LCFI3
 698 008c 0E       		.byte	0xe
 699 008d 44       		.uleb128 0x44
 700 008e 8E       		.byte	0x8e
 701 008f 01       		.uleb128 0x1
 702 0090 8B       		.byte	0x8b
 703 0091 02       		.uleb128 0x2
 704 0092 8A       		.byte	0x8a
 705 0093 03       		.uleb128 0x3
 706 0094 89       		.byte	0x89
 707 0095 04       		.uleb128 0x4
 708 0096 88       		.byte	0x88
 709 0097 05       		.uleb128 0x5
 710 0098 87       		.byte	0x87
ARM GAS  /cygdrive/c/DOCUME~1/deforce/LOKALA~1/Temp/ccQeUh7S.s 			page 20


 711 0099 06       		.uleb128 0x6
 712 009a 86       		.byte	0x86
 713 009b 07       		.uleb128 0x7
 714 009c 85       		.byte	0x85
 715 009d 08       		.uleb128 0x8
 716 009e 84       		.byte	0x84
 717 009f 09       		.uleb128 0x9
 718              		.align	2
 719              	.LEFDE10:
 720              	.LSFDE12:
 721 00a0 28000000 		.4byte	.LEFDE12-.LASFDE12
 722              	.LASFDE12:
 723 00a4 00000000 		.4byte	.Lframe0
 724 00a8 7C020000 		.4byte	.LFB9
 725 00ac 80010000 		.4byte	.LFE9-.LFB9
 726 00b0 44       		.byte	0x4
 727              		.4byte	.LCFI5-.LFB9
 728 00b1 0E       		.byte	0xe
 729 00b2 10       		.uleb128 0x10
 730 00b3 44       		.byte	0x4
 731              		.4byte	.LCFI6-.LCFI5
 732 00b4 0E       		.byte	0xe
 733 00b5 20       		.uleb128 0x20
 734 00b6 44       		.byte	0x4
 735              		.4byte	.LCFI7-.LCFI6
 736 00b7 0E       		.byte	0xe
 737 00b8 24       		.uleb128 0x24
 738 00b9 8E       		.byte	0x8e
 739 00ba 05       		.uleb128 0x5
 740 00bb 86       		.byte	0x86
 741 00bc 06       		.uleb128 0x6
 742 00bd 85       		.byte	0x85
 743 00be 07       		.uleb128 0x7
 744 00bf 84       		.byte	0x84
 745 00c0 08       		.uleb128 0x8
 746 00c1 83       		.byte	0x83
 747 00c2 01       		.uleb128 0x1
 748 00c3 82       		.byte	0x82
 749 00c4 02       		.uleb128 0x2
 750 00c5 81       		.byte	0x81
 751 00c6 03       		.uleb128 0x3
 752 00c7 80       		.byte	0x80
 753 00c8 04       		.uleb128 0x4
 754 00c9 000000   		.align	2
 755              	.LEFDE12:
 756              		.file 2 "/cygdrive/c/program/gnuarm/bin/../lib/gcc/arm-elf/4.1.1/include/stdarg.h"
 757              		.text
 758              	.Letext0: