ARM GAS  /cygdrive/c/DOCUME~1/deforce/LOKALA~1/Temp/ccQeUh7S.s 			page 1


   1              		.file	"consol.c"
   2              		.section	.debug_abbrev,"",%progbits
   3              	.Ldebug_abbrev0:
   4              		.section	.debug_info,"",%progbits
   5              	.Ldebug_info0:
   6              		.section	.debug_line,"",%progbits
   7              	.Ldebug_line0:
   8 0000 1A010000 		.text
   8      02006B00 
   8      00000201 
   8      FB0E0D00 
   8      01010101 
   9              	.Ltext0:
  10              		.global	__umodsi3
  11              		.global	__udivsi3
  12              		.section	.rodata.str1.4,"aMS",%progbits,1
  13              		.align	2
  14              	.LC0:
  15 0000 30313233 		.ascii	"0123456789abcdef\000"
  15      34353637 
  15      38396162 
  15      63646566 
  15      00
  16 0011 000000   		.text
  17              		.align	2
  18              		.type	printNum, %function
  19              	printNum:
  20              	.LFB2:
  21              		.file 1 "consol.c"
   1:consol.c      **** /******************************************************************************
   2:consol.c      ****  *
   3:consol.c      ****  * Copyright:
   4:consol.c      ****  *    (C) 2000 - 2005 Embedded Artists AB
   5:consol.c      ****  *
   6:consol.c      ****  * Description:
   7:consol.c      ****  *    Framework specific implementation of consol
   8:consol.c      ****  *
   9:consol.c      ****  *****************************************************************************/
  10:consol.c      **** 
  11:consol.c      **** 
  12:consol.c      **** /******************************************************************************
  13:consol.c      ****  * Includes
  14:consol.c      ****  *****************************************************************************/
  15:consol.c      **** 
  16:consol.c      **** #include "lpc2xxx.h"                            /* LPC2xxx definitions */
  17:consol.c      **** #include <string.h>
  18:consol.c      **** #include <stdlib.h>
  19:consol.c      **** #include "config.h"
  20:consol.c      **** #include "consol.h"
  21:consol.c      **** #include "framework.h"
  22:consol.c      **** 
  23:consol.c      **** #if (CONSOLE_API_PRINTF == 1) || (CONSOLE_API_SCANF == 1) //own simple printf() or scanf()
  24:consol.c      **** #include <stdarg.h>
  25:consol.c      **** #endif
  26:consol.c      **** 
  27:consol.c      **** #define UART_DLL_VALUE (unsigned short)((PCLK / (CONSOL_BITRATE * 16.0)) + 0.5)
  28:consol.c      **** 
ARM GAS  /cygdrive/c/DOCUME~1/deforce/LOKALA~1/Temp/ccQeUh7S.s 			page 2


  29:consol.c      **** #if (CONSOLE_API_SCANF == 1)  //SIMPLE
  30:consol.c      **** #define __isalpha(c) (c >'9')
  31:consol.c      **** #define __isupper(c) !(c & 0x20)
  32:consol.c      **** #define __ishex(c) (((c >= '0')&&(c <= '9'))||((c >= 'A')&&(c <= 'F')))
  33:consol.c      **** #define __ascii2hex(c) ((c <= '9')? c-'0': c-'A'+10)
  34:consol.c      **** #endif
  35:consol.c      **** 
  36:consol.c      **** /******************************************************************************
  37:consol.c      ****  * Implementation of local functions
  38:consol.c      ****  *****************************************************************************/
  39:consol.c      **** 
  40:consol.c      **** #if (CONSOLE_API_PRINTF == 1)  //OWN_PRINTF
  41:consol.c      **** /*****************************************************************************
  42:consol.c      ****  *
  43:consol.c      ****  * Description:
  44:consol.c      ****  *    Print a number. 
  45:consol.c      ****  *
  46:consol.c      ****  * Params:
  47:consol.c      ****  *    [in] outputFnk - Output function where characters to be printed are 
  48:consol.c      ****  *                      sent 
  49:consol.c      ****  * 
  50:consol.c      ****  *                Params (callback):
  51:consol.c      ****  *                   ch - Character to be printed 
  52:consol.c      ****  *    [in] number    - Number to be printed 
  53:consol.c      ****  *    [in] base      - Base when printing number (2-16) 
  54:consol.c      ****  *
  55:consol.c      ****  ****************************************************************************/
  56:consol.c      **** static void
  57:consol.c      **** printNum(void (*outputFnk) (char ch),
  58:consol.c      ****          unsigned int number,
  59:consol.c      ****          unsigned int base)
  60:consol.c      **** {
  22              		.loc 1 60 0
  23              		@ Function supports interworking.
  24              		@ args = 0, pretend = 0, frame = 52
  25              		@ frame_needed = 0, uses_anonymous_args = 0
  26              	.LVL0:
  27 0000 F0402DE9 		stmfd	sp!, {r4, r5, r6, r7, lr}
  28              	.LCFI0:
  29 0004 34D04DE2 		sub	sp, sp, #52
  30              	.LCFI1:
  31              		.loc 1 60 0
  32 0008 0070A0E1 		mov	r7, r0
  33 000c 0140A0E1 		mov	r4, r1
  34 0010 0260A0E1 		mov	r6, r2
  61:consol.c      **** 	char *p;
  62:consol.c      **** 	char  buf[33];
  63:consol.c      **** 	char  hexChars[] = "0123456789abcdef";
  35              		.loc 1 63 0
  36 0014 23008DE2 		add	r0, sp, #35
  37              	.LVL1:
  38 0018 60109FE5 		ldr	r1, .L11
  39              	.LVL2:
  40 001c 1120A0E3 		mov	r2, #17
  41              	.LVL3:
  42 0020 FEFFFFEB 		bl	memcpy
  43 0024 02508DE2 		add	r5, sp, #2
ARM GAS  /cygdrive/c/DOCUME~1/deforce/LOKALA~1/Temp/ccQeUh7S.s 			page 3


  44              	.LVL4:
  45              	.L2:
  64:consol.c      **** 	
  65:consol.c      **** 	p = buf;
  66:consol.c      **** 	
  67:consol.c      **** 	do {
  68:consol.c      **** 		*p++ = hexChars[number % base];
  46              		.loc 1 68 0
  47 0028 0400A0E1 		mov	r0, r4
  48 002c 0610A0E1 		mov	r1, r6
  49 0030 FEFFFFEB 		bl	__umodsi3
  50 0034 34308DE2 		add	r3, sp, #52
  51 0038 000083E0 		add	r0, r3, r0
  52 003c 113050E5 		ldrb	r3, [r0, #-17]	@ zero_extendqisi2
  69:consol.c      **** 	} while (number /= base);
  53              		.loc 1 69 0
  54 0040 0610A0E1 		mov	r1, r6
  55 0044 0400A0E1 		mov	r0, r4
  56              		.loc 1 68 0
  57 0048 0130C5E4 		strb	r3, [r5], #1
  58              		.loc 1 69 0
  59 004c FEFFFFEB 		bl	__udivsi3
  60 0050 004050E2 		subs	r4, r0, #0
  61 0054 F3FFFF1A 		bne	.L2
  62 0058 0540A0E1 		mov	r4, r5
  63              	.LVL5:
  64              	.L4:
  70:consol.c      **** 	
  71:consol.c      **** 	do {
  72:consol.c      **** 		outputFnk(*--p);
  65              		.loc 1 72 0
  66 005c 010074E5 		ldrb	r0, [r4, #-1]!	@ zero_extendqisi2
  67 0060 0FE0A0E1 		mov	lr, pc
  68 0064 17FF2FE1 		bx	r7
  73:consol.c      **** 	} while (p > buf);
  69              		.loc 1 73 0
  70 0068 02308DE2 		add	r3, sp, #2
  71 006c 030054E1 		cmp	r4, r3
  72 0070 F9FFFF8A 		bhi	.L4
  74:consol.c      **** }
  73              		.loc 1 74 0
  74 0074 34D08DE2 		add	sp, sp, #52
  75 0078 F040BDE8 		ldmfd	sp!, {r4, r5, r6, r7, lr}
  76 007c 1EFF2FE1 		bx	lr
  77              	.L12:
  78              		.align	2
  79              	.L11:
  80 0080 00000000 		.word	.LC0
  81              	.LFE2:
  82              		.size	printNum, .-printNum
  83              		.align	2
  84              		.global	consolInit
  85              		.type	consolInit, %function
  86              	consolInit:
  87              	.LFB4:
  75:consol.c      **** 
  76:consol.c      **** /*****************************************************************************
ARM GAS  /cygdrive/c/DOCUME~1/deforce/LOKALA~1/Temp/ccQeUh7S.s 			page 4


  77:consol.c      ****  *
  78:consol.c      ****  * Description:
  79:consol.c      ****  *    A simple implementation of printf that uses a minimum of stack space.
  80:consol.c      ****  *
  81:consol.c      ****  * Params:
  82:consol.c      ****  *    [in] outputFnk - Output function where characters to be printed are 
  83:consol.c      ****  *                      sent 
  84:consol.c      ****  * 
  85:consol.c      ****  *                Params (callback):
  86:consol.c      ****  *                   ch - Character to be printed 
  87:consol.c      ****  *    [in] fmt       - Format string that specifies what to be printed 
  88:consol.c      ****  *    [in] ap        - Structure that hold information about the variable 
  89:consol.c      ****  *                     number of parameters 
  90:consol.c      ****  *
  91:consol.c      ****  ****************************************************************************/
  92:consol.c      **** static void
  93:consol.c      **** simplePrint(void         (*outputFnk) (char ch),
  94:consol.c      ****             const char * fmt,
  95:consol.c      ****             va_list      ap)
  96:consol.c      **** {
  97:consol.c      ****   char          *p;
  98:consol.c      ****   char           ch;
  99:consol.c      ****   unsigned long  ul;
 100:consol.c      ****   unsigned char  lflag;
 101:consol.c      **** 
 102:consol.c      ****   for (;;)
 103:consol.c      ****   {
 104:consol.c      ****     while ((ch = *fmt++) != '%')
 105:consol.c      ****     {
 106:consol.c      ****       if (ch == '\0')
 107:consol.c      ****         	return;
 108:consol.c      ****       outputFnk(ch);
 109:consol.c      ****     }
 110:consol.c      ****     lflag = 0;
 111:consol.c      **** 
 112:consol.c      **** reswitch:
 113:consol.c      **** 
 114:consol.c      ****     switch (ch = *fmt++)
 115:consol.c      ****     {
 116:consol.c      ****     case '\0':
 117:consol.c      ****       return;
 118:consol.c      **** 
 119:consol.c      ****     case 'l':
 120:consol.c      ****       lflag = 1;
 121:consol.c      ****       goto reswitch;
 122:consol.c      **** 
 123:consol.c      ****     case 'c':
 124:consol.c      **** 	    ch = va_arg(ap, unsigned int);
 125:consol.c      **** 	    outputFnk(ch & 0x7f);
 126:consol.c      **** 	    break;
 127:consol.c      **** 
 128:consol.c      ****     case 's':
 129:consol.c      ****       p = va_arg(ap, char *);
 130:consol.c      ****       while ((ch = *p++) != 0)
 131:consol.c      ****         outputFnk(ch);
 132:consol.c      ****       break;
 133:consol.c      **** 
ARM GAS  /cygdrive/c/DOCUME~1/deforce/LOKALA~1/Temp/ccQeUh7S.s 			page 5


 134:consol.c      ****     case 'd':
 135:consol.c      ****       ul = lflag ? va_arg(ap, long) : va_arg(ap, unsigned int);
 136:consol.c      ****       if ((long)ul < 0)
 137:consol.c      ****       {
 138:consol.c      ****         outputFnk('-');
 139:consol.c      ****         ul = -(long)ul;
 140:consol.c      ****       }
 141:consol.c      ****       printNum(outputFnk, ul, 10);
 142:consol.c      ****       break;
 143:consol.c      **** 
 144:consol.c      ****     case 'o':
 145:consol.c      ****       ul = va_arg(ap, unsigned int);
 146:consol.c      ****       printNum(outputFnk, ul, 8);
 147:consol.c      ****       break;
 148:consol.c      **** 
 149:consol.c      ****     case 'u':
 150:consol.c      ****       ul = va_arg(ap, unsigned int);
 151:consol.c      ****       printNum(outputFnk, ul, 10);
 152:consol.c      ****       break;
 153:consol.c      **** 
 154:consol.c      ****     case 'p':
 155:consol.c      ****       outputFnk('0');
 156:consol.c      ****       outputFnk('x');
 157:consol.c      ****       lflag = 1;
 158:consol.c      ****       // fall through
 159:consol.c      **** 
 160:consol.c      ****     case 'x':
 161:consol.c      ****       ul = va_arg(ap, unsigned int);
 162:consol.c      ****       printNum(outputFnk, ul, 16);
 163:consol.c      ****       break;
 164:consol.c      **** 
 165:consol.c      ****     default:
 166:consol.c      **** //      outputFnk('%');
 167:consol.c      ****       if (lflag)
 168:consol.c      ****         outputFnk('l');
 169:consol.c      ****       outputFnk(ch);
 170:consol.c      ****     }
 171:consol.c      ****   }
 172:consol.c      ****   va_end(ap);
 173:consol.c      **** }
 174:consol.c      **** #endif
 175:consol.c      **** 
 176:consol.c      **** /******************************************************************************
 177:consol.c      ****  * Implementation of public functions
 178:consol.c      ****  *****************************************************************************/
 179:consol.c      **** 
 180:consol.c      **** 
 181:consol.c      **** /*****************************************************************************
 182:consol.c      ****  *
 183:consol.c      ****  * Description:
 184:consol.c      ****  *    Initializes the consol channel (init UART, including setting bitrate and 
 185:consol.c      ****  *    GPIO). 
 186:consol.c      ****  *
 187:consol.c      ****  ****************************************************************************/
 188:consol.c      **** void
 189:consol.c      **** consolInit(void)
 190:consol.c      **** {
ARM GAS  /cygdrive/c/DOCUME~1/deforce/LOKALA~1/Temp/ccQeUh7S.s 			page 6


  88              		.loc 1 190 0
  89              		@ Function supports interworking.
  90              		@ args = 0, pretend = 0, frame = 0
  91              		@ frame_needed = 0, uses_anonymous_args = 0
  92              		@ link register save eliminated.
 191:consol.c      **** #if (CONSOL_UART == 0)
 192:consol.c      ****   //enable uart #0 pins in GPIO (P0.0 = TxD0, P0.1 = RxD0)
 193:consol.c      ****   PINSEL0 = (PINSEL0 & 0xfffffff0) | 0x00000005;
  93              		.loc 1 193 0
  94 0084 40009FE5 		ldr	r0, .L15
  95 0088 003090E5 		ldr	r3, [r0, #0]
  96 008c 0F30C3E3 		bic	r3, r3, #15
 194:consol.c      **** #else
 195:consol.c      ****   //enable uart #1 pins in GPIO (P0.8 = TxD1, P9.1 = RxD1)
 196:consol.c      ****   PINSEL0 = (PINSEL0 & 0xfff0ffff) | 0x00050000;
 197:consol.c      **** #endif
 198:consol.c      **** 
 199:consol.c      ****   //initialize bitrate (by first enable DL registers, DLAB-bit = 1)
 200:consol.c      ****   UART_LCR = 0x80;
  97              		.loc 1 200 0
  98 0090 38209FE5 		ldr	r2, .L15+4
  99              		.loc 1 193 0
 100 0094 053083E3 		orr	r3, r3, #5
 101 0098 003080E5 		str	r3, [r0, #0]
 102              		.loc 1 200 0
 103 009c 8030A0E3 		mov	r3, #128
 104 00a0 0C3082E5 		str	r3, [r2, #12]
 201:consol.c      ****   UART_DLL = (unsigned char)(UART_DLL_VALUE & 0x00ff);
 105              		.loc 1 201 0
 106 00a4 2130A0E3 		mov	r3, #33
 107 00a8 003082E5 		str	r3, [r2, #0]
 202:consol.c      ****   UART_DLM = (unsigned char)(UART_DLL_VALUE>>8);
 108              		.loc 1 202 0
 109 00ac 0010A0E3 		mov	r1, #0
 203:consol.c      ****   UART_LCR = 0x00;
 204:consol.c      **** 
 205:consol.c      ****   //initialize LCR: 8N1
 206:consol.c      ****   UART_LCR = 0x03;
 110              		.loc 1 206 0
 111 00b0 0330A0E3 		mov	r3, #3
 112              		.loc 1 202 0
 113 00b4 041082E5 		str	r1, [r2, #4]
 114              		.loc 1 190 0
 115              		@ lr needed for prologue
 116              		.loc 1 203 0
 117 00b8 0C1082E5 		str	r1, [r2, #12]
 118              		.loc 1 206 0
 119 00bc 0C3082E5 		str	r3, [r2, #12]
 207:consol.c      **** 
 208:consol.c      ****   //reset FIFO
 209:consol.c      ****   UART_FCR = 0x00;
 120              		.loc 1 209 0
 121 00c0 081082E5 		str	r1, [r2, #8]
 210:consol.c      **** 
 211:consol.c      ****   //clear interrupt bits
 212:consol.c      ****   UART_IER = 0x00;
 122              		.loc 1 212 0
ARM GAS  /cygdrive/c/DOCUME~1/deforce/LOKALA~1/Temp/ccQeUh7S.s 			page 7


 123 00c4 041082E5 		str	r1, [r2, #4]
 213:consol.c      **** }
 124              		.loc 1 213 0
 125 00c8 1EFF2FE1 		bx	lr
 126              	.L16:
 127              		.align	2
 128              	.L15:
 129 00cc 00C002E0 		.word	-536690688
 130 00d0 00C000E0 		.word	-536821760
 131              	.LFE4:
 132              		.size	consolInit, .-consolInit
 133              		.align	2
 134              		.global	consolSendChar
 135              		.type	consolSendChar, %function
 136              	consolSendChar:
 137              	.LFB5:
 214:consol.c      **** 
 215:consol.c      **** /*****************************************************************************
 216:consol.c      ****  *
 217:consol.c      ****  * Description:
 218:consol.c      ****  *    Blocking consol output routine, i.e., the routine waits until the uart 
 219:consol.c      ****  *    buffer is free and then sends the character. 
 220:consol.c      ****  *
 221:consol.c      ****  * Params:
 222:consol.c      ****  *    [in] charToSend - The character to print (to the consol) 
 223:consol.c      ****  *
 224:consol.c      ****  ****************************************************************************/
 225:consol.c      **** void
 226:consol.c      **** consolSendChar(char charToSend)
 227:consol.c      **** {
 138              		.loc 1 227 0
 139              		@ Function supports interworking.
 140              		@ args = 0, pretend = 0, frame = 0
 141              		@ frame_needed = 0, uses_anonymous_args = 0
 142              		@ link register save eliminated.
 143              	.LVL6:
 144              		@ lr needed for prologue
 145 00d4 FF0000E2 		and	r0, r0, #255
 146              	.L19:
 228:consol.c      ****   //Wait until THR is empty
 229:consol.c      ****   while(!(UART_LSR & 0x20))
 147              		.loc 1 229 0
 148 00d8 10209FE5 		ldr	r2, .L24
 149 00dc 143092E5 		ldr	r3, [r2, #20]
 150 00e0 200013E3 		tst	r3, #32
 151 00e4 FBFFFF0A 		beq	.L19
 230:consol.c      ****     ;
 231:consol.c      ****   UART_THR = charToSend;
 152              		.loc 1 231 0
 153 00e8 000082E5 		str	r0, [r2, #0]
 232:consol.c      **** }
 154              		.loc 1 232 0
 155 00ec 1EFF2FE1 		bx	lr
 156              	.L25:
 157              		.align	2
 158              	.L24:
 159 00f0 00C000E0 		.word	-536821760
ARM GAS  /cygdrive/c/DOCUME~1/deforce/LOKALA~1/Temp/ccQeUh7S.s 			page 8


 160              	.LFE5:
 161              		.size	consolSendChar, .-consolSendChar
 162              		.align	2
 163              		.global	consolSendCh
 164              		.type	consolSendCh, %function
 165              	consolSendCh:
 166              	.LFB6:
 233:consol.c      **** 
 234:consol.c      **** /*****************************************************************************
 235:consol.c      ****  *
 236:consol.c      ****  * Description:
 237:consol.c      ****  *    Consol output routine that adds extra line feeds at line breaks. 
 238:consol.c      ****  *
 239:consol.c      ****  * Params:
 240:consol.c      ****  *    [in] charToSend - The character to print (to the consol) 
 241:consol.c      ****  *
 242:consol.c      ****  ****************************************************************************/
 243:consol.c      **** void
 244:consol.c      **** consolSendCh(char charToSend)
 245:consol.c      **** {
 167              		.loc 1 245 0
 168              		@ Function supports interworking.
 169              		@ args = 0, pretend = 0, frame = 0
 170              		@ frame_needed = 0, uses_anonymous_args = 0
 171              		@ link register save eliminated.
 172              	.LVL7:
 173 00f4 FF0000E2 		and	r0, r0, #255
 246:consol.c      ****   if(charToSend == '\n')
 174              		.loc 1 246 0
 175 00f8 0A0050E3 		cmp	r0, #10
 176              		.loc 1 245 0
 177              		@ lr needed for prologue
 178              		.loc 1 246 0
 179 00fc 0500001A 		bne	.L34
 180              	.L33:
 181              	.LBB6:
 182              	.LBB7:
 183              		.loc 1 229 0
 184 0100 2C209FE5 		ldr	r2, .L39
 185 0104 143092E5 		ldr	r3, [r2, #20]
 186 0108 200013E3 		tst	r3, #32
 187 010c FBFFFF0A 		beq	.L33
 188              		.loc 1 231 0
 189 0110 0D30A0E3 		mov	r3, #13
 190 0114 003082E5 		str	r3, [r2, #0]
 191              	.L34:
 192              	.LBE7:
 193              	.LBE6:
 194              	.LBB8:
 195              	.LBB9:
 196              		.loc 1 229 0
 197 0118 14209FE5 		ldr	r2, .L39
 198 011c 143092E5 		ldr	r3, [r2, #20]
 199 0120 200013E3 		tst	r3, #32
 200 0124 FBFFFF0A 		beq	.L34
 201              		.loc 1 231 0
 202 0128 FF3000E2 		and	r3, r0, #255
ARM GAS  /cygdrive/c/DOCUME~1/deforce/LOKALA~1/Temp/ccQeUh7S.s 			page 9


 203 012c 003082E5 		str	r3, [r2, #0]
 204              	.LBE9:
 205              	.LBE8:
 247:consol.c      ****     consolSendChar('\r');
 248:consol.c      **** 
 249:consol.c      ****   consolSendChar(charToSend);
 250:consol.c      **** }
 206              		.loc 1 250 0
 207 0130 1EFF2FE1 		bx	lr
 208              	.L40:
 209              		.align	2
 210              	.L39:
 211 0134 00C000E0 		.word	-536821760
 212              	.LFE6:
 213              		.size	consolSendCh, .-consolSendCh
 214              		.align	2
 215              		.global	consolSendString
 216              		.type	consolSendString, %function
 217              	consolSendString:
 218              	.LFB7:
 251:consol.c      **** 
 252:consol.c      **** /*****************************************************************************
 253:consol.c      ****  *
 254:consol.c      ****  * Description:
 255:consol.c      ****  *    Print string to consol. 
 256:consol.c      ****  *
 257:consol.c      ****  * Params:
 258:consol.c      ****  *    [in] pString - Pointer to string to be printed 
 259:consol.c      ****  *
 260:consol.c      ****  ****************************************************************************/
 261:consol.c      **** void
 262:consol.c      **** consolSendString(char *pString)
 263:consol.c      **** {
 219              		.loc 1 263 0
 220              		@ Function supports interworking.
 221              		@ args = 0, pretend = 0, frame = 0
 222              		@ frame_needed = 0, uses_anonymous_args = 0
 223              	.LVL8:
 224 0138 10402DE9 		stmfd	sp!, {r4, lr}
 225              	.LCFI2:
 226              		.loc 1 263 0
 227 013c 0040A0E1 		mov	r4, r0
 228 0140 000000EA 		b	.L42
 229              	.LVL9:
 230              	.L43:
 264:consol.c      ****   while(*pString)
 265:consol.c      ****     consolSendCh(*pString++);
 231              		.loc 1 265 0
 232 0144 FEFFFFEB 		bl	consolSendCh
 233              	.LVL10:
 234              	.L42:
 235              		.loc 1 264 0
 236 0148 0030D4E5 		ldrb	r3, [r4, #0]	@ zero_extendqisi2
 237 014c 000053E3 		cmp	r3, #0
 238              		.loc 1 265 0
 239 0150 0300A0E1 		mov	r0, r3
 240 0154 014084E2 		add	r4, r4, #1
ARM GAS  /cygdrive/c/DOCUME~1/deforce/LOKALA~1/Temp/ccQeUh7S.s 			page 10


 241              		.loc 1 264 0
 242 0158 F9FFFF1A 		bne	.L43
 266:consol.c      **** }
 243              		.loc 1 266 0
 244 015c 1040BDE8 		ldmfd	sp!, {r4, lr}
 245 0160 1EFF2FE1 		bx	lr
 246              	.LFE7:
 247              		.size	consolSendString, .-consolSendString
 248              		.align	2
 249              		.global	consolSendNumber
 250              		.type	consolSendNumber, %function
 251              	consolSendNumber:
 252              	.LFB8:
 267:consol.c      **** 
 268:consol.c      **** /*****************************************************************************
 269:consol.c      ****  *
 270:consol.c      ****  * Description:
 271:consol.c      ****  *    Routine for printing integer numbers in various formats. The number is 
 272:consol.c      ****  *    printed in the specified 'base' using exactly 'noDigits', using +/- if 
 273:consol.c      ****  *    signed flag 'sign' is TRUE, and using the character specified in 'pad' 
 274:consol.c      ****  *    to pad extra characters. 
 275:consol.c      ****  *
 276:consol.c      ****  * Params:
 277:consol.c      ****  *    [in] base     - Base to print number in (2-16) 
 278:consol.c      ****  *    [in] noDigits - Number of digits to print (max 32) 
 279:consol.c      ****  *    [in] sign     - Flag if sign is to be used (TRUE), or not (FALSE) 
 280:consol.c      ****  *    [in] pad      - Character to pad any unused positions 
 281:consol.c      ****  *    [in] number   - Signed number to print 
 282:consol.c      ****  *
 283:consol.c      ****  ****************************************************************************/
 284:consol.c      **** void
 285:consol.c      **** consolSendNumber(unsigned char base,
 286:consol.c      ****                  unsigned char noDigits,
 287:consol.c      ****                  unsigned char sign,
 288:consol.c      ****                  char          pad,
 289:consol.c      ****                  int           number)
 290:consol.c      **** {
 253              		.loc 1 290 0
 254              		@ Function supports interworking.
 255              		@ args = 4, pretend = 0, frame = 32
 256              		@ frame_needed = 0, uses_anonymous_args = 0
 257              	.LVL11:
 258 0164 F04F2DE9 		stmfd	sp!, {r4, r5, r6, r7, r8, r9, sl, fp, lr}
 259              	.LCFI3:
 260 0168 20D04DE2 		sub	sp, sp, #32
 261              	.LCFI4:
 262              		.loc 1 290 0
 263 016c 44809DE5 		ldr	r8, [sp, #68]
 291:consol.c      ****   static char    hexChars[16] = "0123456789ABCDEF";
 292:consol.c      ****   char          *pBuf;
 293:consol.c      ****   char           buf[32];
 294:consol.c      ****   unsigned int   numberAbs;
 295:consol.c      ****   unsigned char  count;
 296:consol.c      **** 
 297:consol.c      ****   // prepare negative number
 298:consol.c      ****   if(sign && (number < 0))
 264              		.loc 1 298 0
ARM GAS  /cygdrive/c/DOCUME~1/deforce/LOKALA~1/Temp/ccQeUh7S.s 			page 11


 265 0170 FF2012E2 		ands	r2, r2, #255
 266 0174 00A0A003 		moveq	sl, #0
 267 0178 01A0A013 		movne	sl, #1
 268 017c A89FA0E1 		mov	r9, r8, lsr #31
 269 0180 09001AE1 		tst	sl, r9
 299:consol.c      ****     numberAbs = -number;
 270              		.loc 1 299 0
 271 0184 00406812 		rsbne	r4, r8, #0
 272              	.LVL12:
 300:consol.c      ****   else
 301:consol.c      ****     numberAbs = number;
 273              		.loc 1 301 0
 274 0188 0840A001 		moveq	r4, r8
 275              		.loc 1 290 0
 276 018c FF7000E2 		and	r7, r0, #255
 277 0190 FF1001E2 		and	r1, r1, #255
 302:consol.c      **** 
 303:consol.c      ****   // setup little string buffer
 304:consol.c      ****   count = (noDigits - 1) - (sign ? 1 : 0);
 278              		.loc 1 304 0
 279 0194 000052E3 		cmp	r2, #0
 280 0198 0120A001 		moveq	r2, r1
 281 019c 01204112 		subne	r2, r1, #1
 282              	.LVL13:
 305:consol.c      ****   pBuf = buf + sizeof(buf);
 306:consol.c      ****   *--pBuf = '\0';
 307:consol.c      **** 
 308:consol.c      ****   // force calculation of first digit
 309:consol.c      ****   // (to prevent zero from not printing at all!!!)
 310:consol.c      ****   *--pBuf = hexChars[(numberAbs % base)];
 283              		.loc 1 310 0
 284 01a0 0400A0E1 		mov	r0, r4
 285              	.LVL14:
 286 01a4 0710A0E1 		mov	r1, r7
 287              	.LVL15:
 288              		.loc 1 290 0
 289 01a8 FFB003E2 		and	fp, r3, #255
 290              		.loc 1 306 0
 291 01ac 0030A0E3 		mov	r3, #0
 292              	.LVL16:
 293 01b0 1F30CDE5 		strb	r3, [sp, #31]
 294              		.loc 1 304 0
 295 01b4 FF6002E2 		and	r6, r2, #255
 296              		.loc 1 310 0
 297 01b8 FEFFFFEB 		bl	__umodsi3
 298 01bc B4309FE5 		ldr	r3, .L64
 299 01c0 0030D3E7 		ldrb	r3, [r3, r0]	@ zero_extendqisi2
 311:consol.c      ****   numberAbs /= base;
 300              		.loc 1 311 0
 301 01c4 0710A0E1 		mov	r1, r7
 302 01c8 0400A0E1 		mov	r0, r4
 303              		.loc 1 310 0
 304 01cc 1E30CDE5 		strb	r3, [sp, #30]
 305              		.loc 1 311 0
 306 01d0 FEFFFFEB 		bl	__udivsi3
 307 01d4 1E408DE2 		add	r4, sp, #30
 308              	.LVL17:
ARM GAS  /cygdrive/c/DOCUME~1/deforce/LOKALA~1/Temp/ccQeUh7S.s 			page 12


 309 01d8 0050A0E1 		mov	r5, r0
 310              	.LVL18:
 311 01dc 0F0000EA 		b	.L50
 312              	.LVL19:
 313              	.L51:
 312:consol.c      **** 
 313:consol.c      ****   // calculate remaining digits
 314:consol.c      ****   while(count--)
 315:consol.c      ****   {
 316:consol.c      ****     if(numberAbs != 0)
 314              		.loc 1 316 0
 315 01e0 000055E3 		cmp	r5, #0
 316 01e4 013044E2 		sub	r3, r4, #1
 317:consol.c      ****     {
 318:consol.c      ****       //calculate next digit
 319:consol.c      ****       *--pBuf = hexChars[(numberAbs % base)];
 317              		.loc 1 319 0
 318 01e8 0340A0E1 		mov	r4, r3
 320:consol.c      ****       numberAbs /= base;
 321:consol.c      ****     }
 322:consol.c      ****     else
 323:consol.c      ****       // no more digits left, pad out to desired length
 324:consol.c      ****       *--pBuf = pad;
 319              		.loc 1 324 0
 320 01ec 0340A001 		moveq	r4, r3
 321 01f0 00B0C405 		streqb	fp, [r4, #0]
 322              		.loc 1 316 0
 323 01f4 0700000A 		beq	.L54
 324              	.LVL20:
 325              		.loc 1 319 0
 326 01f8 FEFFFFEB 		bl	__umodsi3
 327 01fc 74309FE5 		ldr	r3, .L64
 328 0200 0030D3E7 		ldrb	r3, [r3, r0]	@ zero_extendqisi2
 329              		.loc 1 320 0
 330 0204 0710A0E1 		mov	r1, r7
 331 0208 0500A0E1 		mov	r0, r5
 332              		.loc 1 319 0
 333 020c 0030C4E5 		strb	r3, [r4, #0]
 334              		.loc 1 320 0
 335 0210 FEFFFFEB 		bl	__udivsi3
 336 0214 0050A0E1 		mov	r5, r0
 337              	.LVL21:
 338              	.L54:
 339              		.loc 1 324 0
 340 0218 013046E2 		sub	r3, r6, #1
 341 021c FF6003E2 		and	r6, r3, #255
 342              	.L50:
 343              		.loc 1 314 0
 344 0220 010056E3 		cmp	r6, #1
 345              		.loc 1 319 0
 346 0224 0500A0E1 		mov	r0, r5
 347 0228 0710A0E1 		mov	r1, r7
 348              		.loc 1 314 0
 349 022c EBFFFF1A 		bne	.L51
 350              	.LVL22:
 325:consol.c      ****   }
 326:consol.c      **** 
ARM GAS  /cygdrive/c/DOCUME~1/deforce/LOKALA~1/Temp/ccQeUh7S.s 			page 13


 327:consol.c      ****   // apply signed notation if requested
 328:consol.c      ****   if(sign)
 351              		.loc 1 328 0
 352 0230 00005AE3 		cmp	sl, #0
 353 0234 0A00000A 		beq	.L56
 329:consol.c      ****   {
 330:consol.c      ****     if(number < 0)
 354              		.loc 1 330 0
 355 0238 000059E3 		cmp	r9, #0
 331:consol.c      ****       *--pBuf = '-';
 356              		.loc 1 331 0
 357 023c 2D30A013 		movne	r3, #45
 358 0240 01306415 		strneb	r3, [r4, #-1]!
 359              		.loc 1 330 0
 360 0244 0600001A 		bne	.L56
 361 0248 013044E2 		sub	r3, r4, #1
 332:consol.c      ****     else if(number > 0)
 362              		.loc 1 332 0
 363 024c 000058E3 		cmp	r8, #0
 333:consol.c      ****        *--pBuf = '+';
 364              		.loc 1 333 0
 365 0250 0340A011 		movne	r4, r3
 334:consol.c      ****     else
 335:consol.c      ****        *--pBuf = ' ';
 366              		.loc 1 335 0
 367 0254 0340A001 		moveq	r4, r3
 368              		.loc 1 333 0
 369 0258 2B30A013 		movne	r3, #43
 370              		.loc 1 335 0
 371 025c 2030A003 		moveq	r3, #32
 372 0260 0030C4E5 		strb	r3, [r4, #0]
 373              	.L56:
 336:consol.c      ****   }
 337:consol.c      **** 
 338:consol.c      ****   // print the string right-justified
 339:consol.c      ****   consolSendString(pBuf);
 374              		.loc 1 339 0
 375 0264 0400A0E1 		mov	r0, r4
 376              	.LVL23:
 377 0268 FEFFFFEB 		bl	consolSendString
 340:consol.c      **** }
 378              		.loc 1 340 0
 379 026c 20D08DE2 		add	sp, sp, #32
 380 0270 F04FBDE8 		ldmfd	sp!, {r4, r5, r6, r7, r8, r9, sl, fp, lr}
 381 0274 1EFF2FE1 		bx	lr
 382              	.L65:
 383              		.align	2
 384              	.L64:
 385 0278 00000000 		.word	hexChars.2019
 386              	.LFE8:
 387              		.size	consolSendNumber, .-consolSendNumber
 388              		.align	2
 389              		.global	simplePrintf
 390              		.type	simplePrintf, %function
 391              	simplePrintf:
 392              	.LFB9:
 341:consol.c      **** 
ARM GAS  /cygdrive/c/DOCUME~1/deforce/LOKALA~1/Temp/ccQeUh7S.s 			page 14


 342:consol.c      **** #if (CONSOLE_API_PRINTF == 1)  //OWN_PRINTF
 343:consol.c      **** /*****************************************************************************
 344:consol.c      ****  *
 345:consol.c      ****  * Description:
 346:consol.c      ****  *    Simple implementation of printf 
 347:consol.c      ****  *
 348:consol.c      ****  * Params:
 349:consol.c      ****  *    [in] fmt - Format string that specifies what to be printed 
 350:consol.c      ****  *    [in] ... - Variable number of parameters to match format string 
 351:consol.c      ****  *
 352:consol.c      ****  ****************************************************************************/
 353:consol.c      **** void
 354:consol.c      **** simplePrintf(const char * fmt,
 355:consol.c      ****              ...          )
 356:consol.c      **** {
 393              		.loc 1 356 0
 394              		@ Function supports interworking.
 395              		@ args = 4, pretend = 16, frame = 4
 396              		@ frame_needed = 0, uses_anonymous_args = 1
 397              	.LVL24:
 398 027c 0F002DE9 		stmfd	sp!, {r0, r1, r2, r3}
 399              	.LCFI5:
 400 0280 70402DE9 		stmfd	sp!, {r4, r5, r6, lr}
 401              	.LCFI6:
 402 0284 04D04DE2 		sub	sp, sp, #4
 403              	.LCFI7:
 357:consol.c      **** 	va_list ap;
 358:consol.c      **** 
 359:consol.c      **** 	va_start(ap, fmt);
 404              		.loc 1 359 0
 405 0288 18308DE2 		add	r3, sp, #24
 406              		.loc 1 356 0
 407 028c 14609DE5 		ldr	r6, [sp, #20]
 360:consol.c      **** 	simplePrint(consolSendCh, fmt, ap);
 408              		.loc 1 360 0
 409 0290 0350A0E1 		mov	r5, r3
 410              	.LVL25:
 411              		.loc 1 359 0
 412 0294 00308DE5 		str	r3, [sp, #0]
 413              	.LVL26:
 414 0298 020000EA 		b	.L105
 415              	.LVL27:
 416              	.L68:
 417              	.LBB12:
 418              	.LBB13:
 419              		.loc 1 106 0
 420 029c 000050E3 		cmp	r0, #0
 421 02a0 5000000A 		beq	.L95
 422              	.LVL28:
 423              	.L103:
 424              		.loc 1 108 0
 425 02a4 FEFFFFEB 		bl	consolSendCh
 426              	.LVL29:
 427              	.L105:
 428              		.loc 1 104 0
 429 02a8 0100D6E4 		ldrb	r0, [r6], #1	@ zero_extendqisi2
 430              	.LVL30:
ARM GAS  /cygdrive/c/DOCUME~1/deforce/LOKALA~1/Temp/ccQeUh7S.s 			page 15


 431 02ac 250050E3 		cmp	r0, #37
 432 02b0 F9FFFF1A 		bne	.L68
 433 02b4 0030A0E3 		mov	r3, #0
 434              	.LVL31:
 435              	.L72:
 436              		.loc 1 114 0
 437 02b8 0140D6E4 		ldrb	r4, [r6], #1	@ zero_extendqisi2
 438              	.LVL32:
 439 02bc 6F0054E3 		cmp	r4, #111
 440 02c0 3000000A 		beq	.L77
 441 02c4 0A00008A 		bhi	.L82
 442 02c8 640054E3 		cmp	r4, #100
 443 02cc 2100000A 		beq	.L75
 444 02d0 0400008A 		bhi	.L83
 445 02d4 000054E3 		cmp	r4, #0
 446 02d8 4200000A 		beq	.L95
 447 02dc 630054E3 		cmp	r4, #99
 448 02e0 3B00001A 		bne	.L73
 449 02e4 0F0000EA 		b	.L74
 450              	.L83:
 451 02e8 6C0054E3 		cmp	r4, #108
 452 02ec 3800001A 		bne	.L73
 453 02f0 0A0000EA 		b	.L76
 454              	.L82:
 455 02f4 730054E3 		cmp	r4, #115
 456 02f8 0E00000A 		beq	.L79
 457 02fc 0200008A 		bhi	.L84
 458 0300 700054E3 		cmp	r4, #112
 459 0304 3200001A 		bne	.L73
 460 0308 290000EA 		b	.L78
 461              	.L84:
 462 030c 750054E3 		cmp	r4, #117
 463 0310 2300000A 		beq	.L80
 464 0314 780054E3 		cmp	r4, #120
 465 0318 2D00001A 		bne	.L73
 466 031c 280000EA 		b	.L81
 467              	.L76:
 468 0320 0130A0E3 		mov	r3, #1
 469 0324 E3FFFFEA 		b	.L72
 470              	.L74:
 471              		.loc 1 125 0
 472 0328 000095E5 		ldr	r0, [r5, #0]
 473              	.LVL33:
 474 032c 7F0000E2 		and	r0, r0, #127
 475 0330 FEFFFFEB 		bl	consolSendCh
 476              	.LVL34:
 477 0334 170000EA 		b	.L102
 478              	.LVL35:
 479              	.L79:
 480              		.loc 1 129 0
 481 0338 004095E5 		ldr	r4, [r5, #0]
 482              	.LVL36:
 483 033c 000000EA 		b	.L85
 484              	.LVL37:
 485              	.L86:
 486              		.loc 1 131 0
 487 0340 FEFFFFEB 		bl	consolSendCh
ARM GAS  /cygdrive/c/DOCUME~1/deforce/LOKALA~1/Temp/ccQeUh7S.s 			page 16


 488              	.LVL38:
 489              	.L85:
 490              		.loc 1 130 0
 491 0344 0130D4E4 		ldrb	r3, [r4], #1	@ zero_extendqisi2
 492              	.LVL39:
 493 0348 000053E2 		subs	r0, r3, #0
 494              	.LVL40:
 495 034c FBFFFF1A 		bne	.L86
 496              	.LVL41:
 497              		.loc 1 129 0
 498 0350 045085E2 		add	r5, r5, #4
 499 0354 D3FFFFEA 		b	.L105
 500              	.LVL42:
 501              	.L75:
 502              		.loc 1 135 0
 503 0358 004095E5 		ldr	r4, [r5, #0]
 504              	.LVL43:
 505              		.loc 1 136 0
 506 035c 000054E3 		cmp	r4, #0
 507 0360 045085E2 		add	r5, r5, #4
 508              	.LVL44:
 509 0364 020000AA 		bge	.L91
 510              		.loc 1 138 0
 511 0368 2D00A0E3 		mov	r0, #45
 512              	.LVL45:
 513 036c FEFFFFEB 		bl	consolSendCh
 514              	.LVL46:
 515              		.loc 1 139 0
 516 0370 004064E2 		rsb	r4, r4, #0
 517              	.LVL47:
 518              	.L91:
 519              		.loc 1 141 0
 520 0374 0410A0E1 		mov	r1, r4
 521 0378 78009FE5 		ldr	r0, .L106
 522              	.LVL48:
 523 037c 0A20A0E3 		mov	r2, #10
 524 0380 1EFFFFEB 		bl	printNum
 525              	.LVL49:
 526 0384 C7FFFFEA 		b	.L105
 527              	.LVL50:
 528              	.L77:
 529              		.loc 1 146 0
 530 0388 001095E5 		ldr	r1, [r5, #0]
 531 038c 64009FE5 		ldr	r0, .L106
 532              	.LVL51:
 533 0390 0820A0E3 		mov	r2, #8
 534              	.L104:
 535 0394 19FFFFEB 		bl	printNum
 536              	.LVL52:
 537              	.L102:
 538              		.loc 1 145 0
 539 0398 043085E2 		add	r3, r5, #4
 540              	.LVL53:
 541              		.loc 1 146 0
 542 039c 0350A0E1 		mov	r5, r3
 543 03a0 C0FFFFEA 		b	.L105
 544              	.LVL54:
ARM GAS  /cygdrive/c/DOCUME~1/deforce/LOKALA~1/Temp/ccQeUh7S.s 			page 17


 545              	.L80:
 546              		.loc 1 151 0
 547 03a4 001095E5 		ldr	r1, [r5, #0]
 548 03a8 48009FE5 		ldr	r0, .L106
 549              	.LVL55:
 550 03ac 0A20A0E3 		mov	r2, #10
 551 03b0 F7FFFFEA 		b	.L104
 552              	.LVL56:
 553              	.L78:
 554              		.loc 1 155 0
 555 03b4 3000A0E3 		mov	r0, #48
 556              	.LVL57:
 557 03b8 FEFFFFEB 		bl	consolSendCh
 558              	.LVL58:
 559              		.loc 1 156 0
 560 03bc 7800A0E3 		mov	r0, #120
 561 03c0 FEFFFFEB 		bl	consolSendCh
 562              	.LVL59:
 563              	.L81:
 564              		.loc 1 162 0
 565 03c4 001095E5 		ldr	r1, [r5, #0]
 566 03c8 28009FE5 		ldr	r0, .L106
 567              	.LVL60:
 568 03cc 1020A0E3 		mov	r2, #16
 569 03d0 EFFFFFEA 		b	.L104
 570              	.LVL61:
 571              	.L73:
 572              		.loc 1 167 0
 573 03d4 000053E3 		cmp	r3, #0
 574              		.loc 1 168 0
 575 03d8 6C00A013 		movne	r0, #108
 576              	.LVL62:
 577 03dc FEFFFF1B 		blne	consolSendCh
 578              	.LVL63:
 579              	.L93:
 580              		.loc 1 169 0
 581 03e0 0400A0E1 		mov	r0, r4
 582              	.LVL64:
 583 03e4 AEFFFFEA 		b	.L103
 584              	.LVL65:
 585              	.L95:
 586              	.LBE13:
 587              	.LBE12:
 361:consol.c      **** 	va_end(ap);
 362:consol.c      **** }
 588              		.loc 1 362 0
 589 03e8 04D08DE2 		add	sp, sp, #4
 590 03ec 7040BDE8 		ldmfd	sp!, {r4, r5, r6, lr}
 591 03f0 10D08DE2 		add	sp, sp, #16
 592 03f4 1EFF2FE1 		bx	lr
 593              	.L107:
 594              		.align	2
 595              	.L106:
 596 03f8 00000000 		.word	consolSendCh
 597              	.LFE9:
 598              		.size	simplePrintf, .-simplePrintf
 599              		.section	.rodata
ARM GAS  /cygdrive/c/DOCUME~1/deforce/LOKALA~1/Temp/ccQeUh7S.s 			page 18


 600              		.align	2
 601              		.type	hexChars.2019, %object
 602              		.size	hexChars.2019, 16
 603              	hexChars.2019:
 604 0000 30313233 		.ascii	"0123456789ABCDEF"
 604      34353637 
 604      38394142 
 604      43444546 
 605              		.section	.debug_frame,"",%progbits
 606              	.Lframe0:
 607 0000 0C000000 		.4byte	.LECIE0-.LSCIE0
 608              	.LSCIE0:
 609 0004 FFFFFFFF 		.4byte	0xffffffff
 610 0008 01       		.byte	0x1
 611 0009 00       		.ascii	"\000"
 612 000a 01       		.uleb128 0x1
 613 000b 7C       		.sleb128 -4
 614 000c 0E       		.byte	0xe
 615 000d 0C       		.byte	0xc
 616 000e 0D       		.uleb128 0xd
 617 000f 00       		.uleb128 0x0
 618              		.align	2
 619              	.LECIE0:
 620              	.LSFDE0:
 621 0010 1C000000 		.4byte	.LEFDE0-.LASFDE0
 622              	.LASFDE0:
 623 0014 00000000 		.4byte	.Lframe0
 624 0018 00000000 		.4byte	.LFB2
 625 001c 84000000 		.4byte	.LFE2-.LFB2
 626 0020 44       		.byte	0x4
 627              		.4byte	.LCFI0-.LFB2
 628 0021 0E       		.byte	0xe
 629 0022 14       		.uleb128 0x14
 630 0023 44       		.byte	0x4
 631              		.4byte	.LCFI1-.LCFI0
 632 0024 0E       		.byte	0xe
 633 0025 48       		.uleb128 0x48
 634 0026 8E       		.byte	0x8e
 635 0027 01       		.uleb128 0x1
 636 0028 87       		.byte	0x87
 637 0029 02       		.uleb128 0x2
 638 002a 86       		.byte	0x86
 639 002b 03       		.uleb128 0x3
 640 002c 85       		.byte	0x85
 641 002d 04       		.uleb128 0x4
 642 002e 84       		.byte	0x84
 643 002f 05       		.uleb128 0x5
 644              		.align	2
 645              	.LEFDE0:
 646              	.LSFDE2:
 647 0030 0C000000 		.4byte	.LEFDE2-.LASFDE2
 648              	.LASFDE2:
 649 0034 00000000 		.4byte	.Lframe0
 650 0038 84000000 		.4byte	.LFB4
 651 003c 50000000 		.4byte	.LFE4-.LFB4
 652              		.align	2
 653              	.LEFDE2:
ARM GAS  /cygdrive/c/DOCUME~1/deforce/LOKALA~1/Temp/ccQeUh7S.s 			page 19


 654              	.LSFDE4:
 655 0040 0C000000 		.4byte	.LEFDE4-.LASFDE4
 656              	.LASFDE4:
 657 0044 00000000 		.4byte	.Lframe0
 658 0048 D4000000 		.4byte	.LFB5
 659 004c 20000000 		.4byte	.LFE5-.LFB5
 660              		.align	2
 661              	.LEFDE4:
 662              	.LSFDE6:
 663 0050 0C000000 		.4byte	.LEFDE6-.LASFDE6
 664              	.LASFDE6:
 665 0054 00000000 		.4byte	.Lframe0
 666 0058 F4000000 		.4byte	.LFB6
 667 005c 44000000 		.4byte	.LFE6-.LFB6
 668              		.align	2
 669              	.LEFDE6:
 670              	.LSFDE8:
 671 0060 14000000 		.4byte	.LEFDE8-.LASFDE8
 672              	.LASFDE8:
 673 0064 00000000 		.4byte	.Lframe0
 674 0068 38010000 		.4byte	.LFB7
 675 006c 2C000000 		.4byte	.LFE7-.LFB7
 676 0070 44       		.byte	0x4
 677              		.4byte	.LCFI2-.LFB7
 678 0071 0E       		.byte	0xe
 679 0072 08       		.uleb128 0x8
 680 0073 8E       		.byte	0x8e
 681 0074 01       		.uleb128 0x1
 682 0075 84       		.byte	0x84
 683 0076 02       		.uleb128 0x2
 684 0077 00       		.align	2
 685              	.LEFDE8:
 686              	.LSFDE10:
 687 0078 24000000 		.4byte	.LEFDE10-.LASFDE10
 688              	.LASFDE10:
 689 007c 00000000 		.4byte	.Lframe0
 690 0080 64010000 		.4byte	.LFB8
 691 0084 18010000 		.4byte	.LFE8-.LFB8
 692 0088 44       		.byte	0x4
 693              		.4byte	.LCFI3-.LFB8
 694 0089 0E       		.byte	0xe
 695 008a 24       		.uleb128 0x24
 696 008b 44       		.byte	0x4
 697              		.4byte	.LCFI4-.LCFI3
 698 008c 0E       		.byte	0xe
 699 008d 44       		.uleb128 0x44
 700 008e 8E       		.byte	0x8e
 701 008f 01       		.uleb128 0x1
 702 0090 8B       		.byte	0x8b
 703 0091 02       		.uleb128 0x2
 704 0092 8A       		.byte	0x8a
 705 0093 03       		.uleb128 0x3
 706 0094 89       		.byte	0x89
 707 0095 04       		.uleb128 0x4
 708 0096 88       		.byte	0x88
 709 0097 05       		.uleb128 0x5
 710 0098 87       		.byte	0x87
ARM GAS  /cygdrive/c/DOCUME~1/deforce/LOKALA~1/Temp/ccQeUh7S.s 			page 20


 711 0099 06       		.uleb128 0x6
 712 009a 86       		.byte	0x86
 713 009b 07       		.uleb128 0x7
 714 009c 85       		.byte	0x85
 715 009d 08       		.uleb128 0x8
 716 009e 84       		.byte	0x84
 717 009f 09       		.uleb128 0x9
 718              		.align	2
 719              	.LEFDE10:
 720              	.LSFDE12:
 721 00a0 28000000 		.4byte	.LEFDE12-.LASFDE12
 722              	.LASFDE12:
 723 00a4 00000000 		.4byte	.Lframe0
 724 00a8 7C020000 		.4byte	.LFB9
 725 00ac 80010000 		.4byte	.LFE9-.LFB9
 726 00b0 44       		.byte	0x4
 727              		.4byte	.LCFI5-.LFB9
 728 00b1 0E       		.byte	0xe
 729 00b2 10       		.uleb128 0x10
 730 00b3 44       		.byte	0x4
 731              		.4byte	.LCFI6-.LCFI5
 732 00b4 0E       		.byte	0xe
 733 00b5 20       		.uleb128 0x20
 734 00b6 44       		.byte	0x4
 735              		.4byte	.LCFI7-.LCFI6
 736 00b7 0E       		.byte	0xe
 737 00b8 24       		.uleb128 0x24
 738 00b9 8E       		.byte	0x8e
 739 00ba 05       		.uleb128 0x5
 740 00bb 86       		.byte	0x86
 741 00bc 06       		.uleb128 0x6
 742 00bd 85       		.byte	0x85
 743 00be 07       		.uleb128 0x7
 744 00bf 84       		.byte	0x84
 745 00c0 08       		.uleb128 0x8
 746 00c1 83       		.byte	0x83
 747 00c2 01       		.uleb128 0x1
 748 00c3 82       		.byte	0x82
 749 00c4 02       		.uleb128 0x2
 750 00c5 81       		.byte	0x81
 751 00c6 03       		.uleb128 0x3
 752 00c7 80       		.byte	0x80
 753 00c8 04       		.uleb128 0x4
 754 00c9 000000   		.align	2
 755              	.LEFDE12:
 756              		.file 2 "/cygdrive/c/program/gnuarm/bin/../lib/gcc/arm-elf/4.1.1/include/stdarg.h"
 757              		.text
 758              	.Letext0:
 759              		.section	.debug_loc,"",%progbits
 760              	.Ldebug_loc0:
 761              	.LLST0:
 762 0000 00000000 		.4byte	.LFB2-.Ltext0
 763 0004 04000000 		.4byte	.LCFI0-.Ltext0
 764 0008 0100     		.2byte	0x1
 765 000a 5D       		.byte	0x5d
 766 000b 04000000 		.4byte	.LCFI0-.Ltext0
 767 000f 08000000 		.4byte	.LCFI1-.Ltext0
ARM GAS  /cygdrive/c/DOCUME~1/deforce/LOKALA~1/Temp/ccQeUh7S.s 			page 21


 768 0013 0200     		.2byte	0x2
 769 0015 7D       		.byte	0x7d
 770 0016 14       		.sleb128 20
 771 0017 08000000 		.4byte	.LCFI1-.Ltext0
 772 001b 84000000 		.4byte	.LFE2-.Ltext0
 773 001f 0300     		.2byte	0x3
 774 0021 7D       		.byte	0x7d
 775 0022 C800     		.sleb128 72
 776 0024 00000000 		.4byte	0x0
 777 0028 00000000 		.4byte	0x0
 778              	.LLST1:
 779 002c 00000000 		.4byte	.LVL0-.Ltext0
 780 0030 18000000 		.4byte	.LVL1-.Ltext0
 781 0034 0100     		.2byte	0x1
 782 0036 50       		.byte	0x50
 783 0037 18000000 		.4byte	.LVL1-.Ltext0
 784 003b 84000000 		.4byte	.LFE2-.Ltext0
 785 003f 0100     		.2byte	0x1
 786 0041 57       		.byte	0x57
 787 0042 00000000 		.4byte	0x0
 788 0046 00000000 		.4byte	0x0
 789              	.LLST2:
 790 004a 00000000 		.4byte	.LVL0-.Ltext0
 791 004e 1C000000 		.4byte	.LVL2-.Ltext0
 792 0052 0100     		.2byte	0x1
 793 0054 51       		.byte	0x51
 794 0055 1C000000 		.4byte	.LVL2-.Ltext0
 795 0059 5C000000 		.4byte	.LVL5-.Ltext0
 796 005d 0100     		.2byte	0x1
 797 005f 54       		.byte	0x54
 798 0060 00000000 		.4byte	0x0
 799 0064 00000000 		.4byte	0x0
 800              	.LLST3:
 801 0068 00000000 		.4byte	.LVL0-.Ltext0
 802 006c 20000000 		.4byte	.LVL3-.Ltext0
 803 0070 0100     		.2byte	0x1
 804 0072 52       		.byte	0x52
 805 0073 20000000 		.4byte	.LVL3-.Ltext0
 806 0077 84000000 		.4byte	.LFE2-.Ltext0
 807 007b 0100     		.2byte	0x1
 808 007d 56       		.byte	0x56
 809 007e 00000000 		.4byte	0x0
 810 0082 00000000 		.4byte	0x0
 811              	.LLST7:
 812 0086 38010000 		.4byte	.LFB7-.Ltext0
 813 008a 3C010000 		.4byte	.LCFI2-.Ltext0
 814 008e 0100     		.2byte	0x1
 815 0090 5D       		.byte	0x5d
 816 0091 3C010000 		.4byte	.LCFI2-.Ltext0
 817 0095 64010000 		.4byte	.LFE7-.Ltext0
 818 0099 0200     		.2byte	0x2
 819 009b 7D       		.byte	0x7d
 820 009c 08       		.sleb128 8
 821 009d 00000000 		.4byte	0x0
 822 00a1 00000000 		.4byte	0x0
 823              	.LLST8:
 824 00a5 38010000 		.4byte	.LVL8-.Ltext0
ARM GAS  /cygdrive/c/DOCUME~1/deforce/LOKALA~1/Temp/ccQeUh7S.s 			page 22


 825 00a9 44010000 		.4byte	.LVL9-.Ltext0
 826 00ad 0100     		.2byte	0x1
 827 00af 50       		.byte	0x50
 828 00b0 44010000 		.4byte	.LVL9-.Ltext0
 829 00b4 64010000 		.4byte	.LFE7-.Ltext0
 830 00b8 0100     		.2byte	0x1
 831 00ba 54       		.byte	0x54
 832 00bb 00000000 		.4byte	0x0
 833 00bf 00000000 		.4byte	0x0
 834              	.LLST9:
 835 00c3 64010000 		.4byte	.LFB8-.Ltext0
 836 00c7 68010000 		.4byte	.LCFI3-.Ltext0
 837 00cb 0100     		.2byte	0x1
 838 00cd 5D       		.byte	0x5d
 839 00ce 68010000 		.4byte	.LCFI3-.Ltext0
 840 00d2 6C010000 		.4byte	.LCFI4-.Ltext0
 841 00d6 0200     		.2byte	0x2
 842 00d8 7D       		.byte	0x7d
 843 00d9 24       		.sleb128 36
 844 00da 6C010000 		.4byte	.LCFI4-.Ltext0
 845 00de 7C020000 		.4byte	.LFE8-.Ltext0
 846 00e2 0300     		.2byte	0x3
 847 00e4 7D       		.byte	0x7d
 848 00e5 C400     		.sleb128 68
 849 00e7 00000000 		.4byte	0x0
 850 00eb 00000000 		.4byte	0x0
 851              	.LLST10:
 852 00ef 64010000 		.4byte	.LVL11-.Ltext0
 853 00f3 A4010000 		.4byte	.LVL14-.Ltext0
 854 00f7 0100     		.2byte	0x1
 855 00f9 50       		.byte	0x50
 856 00fa A4010000 		.4byte	.LVL14-.Ltext0
 857 00fe 7C020000 		.4byte	.LFE8-.Ltext0
 858 0102 0100     		.2byte	0x1
 859 0104 57       		.byte	0x57
 860 0105 00000000 		.4byte	0x0
 861 0109 00000000 		.4byte	0x0
 862              	.LLST11:
 863 010d 64010000 		.4byte	.LVL11-.Ltext0
 864 0111 A8010000 		.4byte	.LVL15-.Ltext0
 865 0115 0100     		.2byte	0x1
 866 0117 51       		.byte	0x51
 867 0118 00000000 		.4byte	0x0
 868 011c 00000000 		.4byte	0x0
 869              	.LLST12:
 870 0120 64010000 		.4byte	.LVL11-.Ltext0
 871 0124 A0010000 		.4byte	.LVL13-.Ltext0
 872 0128 0100     		.2byte	0x1
 873 012a 52       		.byte	0x52
 874 012b 00000000 		.4byte	0x0
 875 012f 00000000 		.4byte	0x0
 876              	.LLST13:
 877 0133 64010000 		.4byte	.LVL11-.Ltext0
 878 0137 B0010000 		.4byte	.LVL16-.Ltext0
 879 013b 0100     		.2byte	0x1
 880 013d 53       		.byte	0x53
 881 013e B0010000 		.4byte	.LVL16-.Ltext0
ARM GAS  /cygdrive/c/DOCUME~1/deforce/LOKALA~1/Temp/ccQeUh7S.s 			page 23


 882 0142 7C020000 		.4byte	.LFE8-.Ltext0
 883 0146 0100     		.2byte	0x1
 884 0148 5B       		.byte	0x5b
 885 0149 00000000 		.4byte	0x0
 886 014d 00000000 		.4byte	0x0
 887              	.LLST14:
 888 0151 64010000 		.4byte	.LVL11-.Ltext0
 889 0155 E0010000 		.4byte	.LVL19-.Ltext0
 890 0159 0200     		.2byte	0x2
 891 015b 91       		.byte	0x91
 892 015c 00       		.sleb128 0
 893 015d E0010000 		.4byte	.LVL19-.Ltext0
 894 0161 7C020000 		.4byte	.LFE8-.Ltext0
 895 0165 0100     		.2byte	0x1
 896 0167 58       		.byte	0x58
 897 0168 00000000 		.4byte	0x0
 898 016c 00000000 		.4byte	0x0
 899              	.LLST15:
 900 0170 88010000 		.4byte	.LVL12-.Ltext0
 901 0174 D8010000 		.4byte	.LVL17-.Ltext0
 902 0178 0100     		.2byte	0x1
 903 017a 54       		.byte	0x54
 904 017b DC010000 		.4byte	.LVL18-.Ltext0
 905 017f E0010000 		.4byte	.LVL19-.Ltext0
 906 0183 0100     		.2byte	0x1
 907 0185 55       		.byte	0x55
 908 0186 E0010000 		.4byte	.LVL19-.Ltext0
 909 018a F8010000 		.4byte	.LVL20-.Ltext0
 910 018e 0100     		.2byte	0x1
 911 0190 50       		.byte	0x50
 912 0191 F8010000 		.4byte	.LVL20-.Ltext0
 913 0195 30020000 		.4byte	.LVL22-.Ltext0
 914 0199 0100     		.2byte	0x1
 915 019b 55       		.byte	0x55
 916 019c 30020000 		.4byte	.LVL22-.Ltext0
 917 01a0 68020000 		.4byte	.LVL23-.Ltext0
 918 01a4 0100     		.2byte	0x1
 919 01a6 50       		.byte	0x50
 920 01a7 68020000 		.4byte	.LVL23-.Ltext0
 921 01ab 7C020000 		.4byte	.LFE8-.Ltext0
 922 01af 0100     		.2byte	0x1
 923 01b1 55       		.byte	0x55
 924 01b2 00000000 		.4byte	0x0
 925 01b6 00000000 		.4byte	0x0
 926              	.LLST16:
 927 01ba 7C020000 		.4byte	.LFB9-.Ltext0
 928 01be 80020000 		.4byte	.LCFI5-.Ltext0
 929 01c2 0100     		.2byte	0x1
 930 01c4 5D       		.byte	0x5d
 931 01c5 80020000 		.4byte	.LCFI5-.Ltext0
 932 01c9 84020000 		.4byte	.LCFI6-.Ltext0
 933 01cd 0200     		.2byte	0x2
 934 01cf 7D       		.byte	0x7d
 935 01d0 10       		.sleb128 16
 936 01d1 84020000 		.4byte	.LCFI6-.Ltext0
 937 01d5 88020000 		.4byte	.LCFI7-.Ltext0
 938 01d9 0200     		.2byte	0x2
ARM GAS  /cygdrive/c/DOCUME~1/deforce/LOKALA~1/Temp/ccQeUh7S.s 			page 24


 939 01db 7D       		.byte	0x7d
 940 01dc 20       		.sleb128 32
 941 01dd 88020000 		.4byte	.LCFI7-.Ltext0
 942 01e1 FC030000 		.4byte	.LFE9-.Ltext0
 943 01e5 0200     		.2byte	0x2
 944 01e7 7D       		.byte	0x7d
 945 01e8 24       		.sleb128 36
 946 01e9 00000000 		.4byte	0x0
 947 01ed 00000000 		.4byte	0x0
 948              	.LLST17:
 949 01f1 7C020000 		.4byte	.LVL24-.Ltext0
 950 01f5 9C020000 		.4byte	.LVL27-.Ltext0
 951 01f9 0200     		.2byte	0x2
 952 01fb 91       		.byte	0x91
 953 01fc 00       		.sleb128 0
 954 01fd 9C020000 		.4byte	.LVL27-.Ltext0
 955 0201 FC030000 		.4byte	.LFE9-.Ltext0
 956 0205 0100     		.2byte	0x1
 957 0207 56       		.byte	0x56
 958 0208 00000000 		.4byte	0x0
 959 020c 00000000 		.4byte	0x0
 960              	.LLST18:
 961 0210 94020000 		.4byte	.LVL25-.Ltext0
 962 0214 9C020000 		.4byte	.LVL27-.Ltext0
 963 0218 0100     		.2byte	0x1
 964 021a 55       		.byte	0x55
 965 021b 9C020000 		.4byte	.LVL27-.Ltext0
 966 021f A8020000 		.4byte	.LVL29-.Ltext0
 967 0223 0100     		.2byte	0x1
 968 0225 53       		.byte	0x53
 969 0226 A8020000 		.4byte	.LVL29-.Ltext0
 970 022a B8020000 		.4byte	.LVL31-.Ltext0
 971 022e 0100     		.2byte	0x1
 972 0230 53       		.byte	0x53
 973 0231 88030000 		.4byte	.LVL50-.Ltext0
 974 0235 9C030000 		.4byte	.LVL53-.Ltext0
 975 0239 0100     		.2byte	0x1
 976 023b 55       		.byte	0x55
 977 023c 9C030000 		.4byte	.LVL53-.Ltext0
 978 0240 A4030000 		.4byte	.LVL54-.Ltext0
 979 0244 0100     		.2byte	0x1
 980 0246 53       		.byte	0x53
 981 0247 E8030000 		.4byte	.LVL65-.Ltext0
 982 024b FC030000 		.4byte	.LFE9-.Ltext0
 983 024f 0100     		.2byte	0x1
 984 0251 53       		.byte	0x53
 985 0252 00000000 		.4byte	0x0
 986 0256 00000000 		.4byte	0x0
 987              	.LLST19:
 988 025a 9C020000 		.4byte	.LVL27-.Ltext0
 989 025e BC020000 		.4byte	.LVL32-.Ltext0
 990 0262 0100     		.2byte	0x1
 991 0264 54       		.byte	0x54
 992 0265 3C030000 		.4byte	.LVL36-.Ltext0
 993 0269 58030000 		.4byte	.LVL42-.Ltext0
 994 026d 0100     		.2byte	0x1
 995 026f 54       		.byte	0x54
ARM GAS  /cygdrive/c/DOCUME~1/deforce/LOKALA~1/Temp/ccQeUh7S.s 			page 25


 996 0270 E8030000 		.4byte	.LVL65-.Ltext0
 997 0274 FC030000 		.4byte	.LFE9-.Ltext0
 998 0278 0100     		.2byte	0x1
 999 027a 54       		.byte	0x54
 1000 027b 00000000 		.4byte	0x0
 1001 027f 00000000 		.4byte	0x0
 1002              	.LLST20:
 1003 0283 9C020000 		.4byte	.LVL27-.Ltext0
 1004 0287 9C020000 		.4byte	.LVL27-.Ltext0
 1005 028b 0100     		.2byte	0x1
 1006 028d 53       		.byte	0x53
 1007 028e 9C020000 		.4byte	.LVL27-.Ltext0
 1008 0292 A8020000 		.4byte	.LVL29-.Ltext0
 1009 0296 0100     		.2byte	0x1
 1010 0298 50       		.byte	0x50
 1011 0299 A8020000 		.4byte	.LVL29-.Ltext0
 1012 029d AC020000 		.4byte	.LVL30-.Ltext0
 1013 02a1 0100     		.2byte	0x1
 1014 02a3 50       		.byte	0x50
 1015 02a4 AC020000 		.4byte	.LVL30-.Ltext0
 1016 02a8 B8020000 		.4byte	.LVL31-.Ltext0
 1017 02ac 0100     		.2byte	0x1
 1018 02ae 53       		.byte	0x53
 1019 02af 38030000 		.4byte	.LVL35-.Ltext0
 1020 02b3 40030000 		.4byte	.LVL37-.Ltext0
 1021 02b7 0100     		.2byte	0x1
 1022 02b9 50       		.byte	0x50
 1023 02ba 44030000 		.4byte	.LVL38-.Ltext0
 1024 02be 48030000 		.4byte	.LVL39-.Ltext0
 1025 02c2 0100     		.2byte	0x1
 1026 02c4 50       		.byte	0x50
 1027 02c5 48030000 		.4byte	.LVL39-.Ltext0
 1028 02c9 4C030000 		.4byte	.LVL40-.Ltext0
 1029 02cd 0100     		.2byte	0x1
 1030 02cf 53       		.byte	0x53
 1031 02d0 50030000 		.4byte	.LVL41-.Ltext0
 1032 02d4 58030000 		.4byte	.LVL42-.Ltext0
 1033 02d8 0100     		.2byte	0x1
 1034 02da 50       		.byte	0x50
 1035 02db 58030000 		.4byte	.LVL42-.Ltext0
 1036 02df 6C030000 		.4byte	.LVL45-.Ltext0
 1037 02e3 0100     		.2byte	0x1
 1038 02e5 50       		.byte	0x50
 1039 02e6 74030000 		.4byte	.LVL47-.Ltext0
 1040 02ea 7C030000 		.4byte	.LVL48-.Ltext0
 1041 02ee 0100     		.2byte	0x1
 1042 02f0 50       		.byte	0x50
 1043 02f1 88030000 		.4byte	.LVL50-.Ltext0
 1044 02f5 90030000 		.4byte	.LVL51-.Ltext0
 1045 02f9 0100     		.2byte	0x1
 1046 02fb 50       		.byte	0x50
 1047 02fc A4030000 		.4byte	.LVL54-.Ltext0
 1048 0300 AC030000 		.4byte	.LVL55-.Ltext0
 1049 0304 0100     		.2byte	0x1
 1050 0306 50       		.byte	0x50
 1051 0307 B4030000 		.4byte	.LVL56-.Ltext0
 1052 030b B8030000 		.4byte	.LVL57-.Ltext0
ARM GAS  /cygdrive/c/DOCUME~1/deforce/LOKALA~1/Temp/ccQeUh7S.s 			page 26


 1053 030f 0100     		.2byte	0x1
 1054 0311 50       		.byte	0x50
 1055 0312 C4030000 		.4byte	.LVL59-.Ltext0
 1056 0316 CC030000 		.4byte	.LVL60-.Ltext0
 1057 031a 0100     		.2byte	0x1
 1058 031c 50       		.byte	0x50
 1059 031d D4030000 		.4byte	.LVL61-.Ltext0
 1060 0321 DC030000 		.4byte	.LVL62-.Ltext0
 1061 0325 0100     		.2byte	0x1
 1062 0327 50       		.byte	0x50
 1063 0328 E0030000 		.4byte	.LVL63-.Ltext0
 1064 032c E4030000 		.4byte	.LVL64-.Ltext0
 1065 0330 0100     		.2byte	0x1
 1066 0332 50       		.byte	0x50
 1067 0333 E8030000 		.4byte	.LVL65-.Ltext0
 1068 0337 E8030000 		.4byte	.LVL65-.Ltext0
 1069 033b 0100     		.2byte	0x1
 1070 033d 53       		.byte	0x53
 1071 033e E8030000 		.4byte	.LVL65-.Ltext0
 1072 0342 FC030000 		.4byte	.LFE9-.Ltext0
 1073 0346 0100     		.2byte	0x1
 1074 0348 50       		.byte	0x50
 1075 0349 00000000 		.4byte	0x0
 1076 034d 00000000 		.4byte	0x0
 1077              	.LLST21:
 1078 0351 9C020000 		.4byte	.LVL27-.Ltext0
 1079 0355 BC020000 		.4byte	.LVL32-.Ltext0
 1080 0359 0100     		.2byte	0x1
 1081 035b 54       		.byte	0x54
 1082 035c 5C030000 		.4byte	.LVL43-.Ltext0
 1083 0360 88030000 		.4byte	.LVL50-.Ltext0
 1084 0364 0100     		.2byte	0x1
 1085 0366 54       		.byte	0x54
 1086 0367 E8030000 		.4byte	.LVL65-.Ltext0
 1087 036b FC030000 		.4byte	.LFE9-.Ltext0
 1088 036f 0100     		.2byte	0x1
 1089 0371 54       		.byte	0x54
 1090 0372 00000000 		.4byte	0x0
 1091 0376 00000000 		.4byte	0x0
 1092              	.LLST22:
 1093 037a A4020000 		.4byte	.LVL28-.Ltext0
 1094 037e A8020000 		.4byte	.LVL29-.Ltext0
 1095 0382 0100     		.2byte	0x1
 1096 0384 53       		.byte	0x53
 1097 0385 B8020000 		.4byte	.LVL31-.Ltext0
 1098 0389 34030000 		.4byte	.LVL34-.Ltext0
 1099 038d 0100     		.2byte	0x1
 1100 038f 53       		.byte	0x53
 1101 0390 38030000 		.4byte	.LVL35-.Ltext0
 1102 0394 40030000 		.4byte	.LVL37-.Ltext0
 1103 0398 0100     		.2byte	0x1
 1104 039a 53       		.byte	0x53
 1105 039b 44030000 		.4byte	.LVL38-.Ltext0
 1106 039f 48030000 		.4byte	.LVL39-.Ltext0
 1107 03a3 0100     		.2byte	0x1
 1108 03a5 53       		.byte	0x53
 1109 03a6 58030000 		.4byte	.LVL42-.Ltext0
ARM GAS  /cygdrive/c/DOCUME~1/deforce/LOKALA~1/Temp/ccQeUh7S.s 			page 27


 1110 03aa 70030000 		.4byte	.LVL46-.Ltext0
 1111 03ae 0100     		.2byte	0x1
 1112 03b0 53       		.byte	0x53
 1113 03b1 74030000 		.4byte	.LVL47-.Ltext0
 1114 03b5 84030000 		.4byte	.LVL49-.Ltext0
 1115 03b9 0100     		.2byte	0x1
 1116 03bb 53       		.byte	0x53
 1117 03bc 88030000 		.4byte	.LVL50-.Ltext0
 1118 03c0 98030000 		.4byte	.LVL52-.Ltext0
 1119 03c4 0100     		.2byte	0x1
 1120 03c6 53       		.byte	0x53
 1121 03c7 A4030000 		.4byte	.LVL54-.Ltext0
 1122 03cb BC030000 		.4byte	.LVL58-.Ltext0
 1123 03cf 0100     		.2byte	0x1
 1124 03d1 53       		.byte	0x53
 1125 03d2 C4030000 		.4byte	.LVL59-.Ltext0
 1126 03d6 E0030000 		.4byte	.LVL63-.Ltext0
 1127 03da 0100     		.2byte	0x1
 1128 03dc 53       		.byte	0x53
 1129 03dd E0030000 		.4byte	.LVL63-.Ltext0
 1130 03e1 FC030000 		.4byte	.LFE9-.Ltext0
 1131 03e5 0100     		.2byte	0x1
 1132 03e7 53       		.byte	0x53
 1133 03e8 00000000 		.4byte	0x0
 1134 03ec 00000000 		.4byte	0x0
 1135              		.section	.debug_info
 1136 0000 C8030000 		.4byte	0x3c8
 1137 0004 0200     		.2byte	0x2
 1138 0006 00000000 		.4byte	.Ldebug_abbrev0
 1139 000a 04       		.byte	0x4
 1140 000b 01       		.uleb128 0x1
 1141 000c 00000000 		.4byte	.Ldebug_line0
 1142 0010 FC030000 		.4byte	.Letext0
 1143 0014 00000000 		.4byte	.Ltext0
 1144 0018 56000000 		.4byte	.LASF30
 1145 001c 01       		.byte	0x1
 1146 001d 47010000 		.4byte	.LASF31
 1147 0021 71010000 		.4byte	.LASF32
 1148 0025 02       		.uleb128 0x2
 1149 0026 696E7400 		.ascii	"int\000"
 1150 002a 04       		.byte	0x4
 1151 002b 05       		.byte	0x5
 1152 002c 03       		.uleb128 0x3
 1153 002d 95000000 		.4byte	.LASF0
 1154 0031 04       		.byte	0x4
 1155 0032 05       		.byte	0x5
 1156 0033 03       		.uleb128 0x3
 1157 0034 87000000 		.4byte	.LASF1
 1158 0038 08       		.byte	0x8
 1159 0039 05       		.byte	0x5
 1160 003a 03       		.uleb128 0x3
 1161 003b 10010000 		.4byte	.LASF2
 1162 003f 04       		.byte	0x4
 1163 0040 07       		.byte	0x7
 1164 0041 03       		.uleb128 0x3
 1165 0042 55010000 		.4byte	.LASF3
 1166 0046 04       		.byte	0x4
ARM GAS  /cygdrive/c/DOCUME~1/deforce/LOKALA~1/Temp/ccQeUh7S.s 			page 28


 1167 0047 07       		.byte	0x7
 1168 0048 03       		.uleb128 0x3
 1169 0049 C8000000 		.4byte	.LASF4
 1170 004d 01       		.byte	0x1
 1171 004e 08       		.byte	0x8
 1172 004f 03       		.uleb128 0x3
 1173 0050 55010000 		.4byte	.LASF3
 1174 0054 04       		.byte	0x4
 1175 0055 07       		.byte	0x7
 1176 0056 03       		.uleb128 0x3
 1177 0057 37000000 		.4byte	.LASF5
 1178 005b 02       		.byte	0x2
 1179 005c 05       		.byte	0x5
 1180 005d 04       		.uleb128 0x4
 1181 005e 04       		.byte	0x4
 1182 005f 63000000 		.4byte	0x63
 1183 0063 03       		.uleb128 0x3
 1184 0064 42010000 		.4byte	.LASF6
 1185 0068 01       		.byte	0x1
 1186 0069 08       		.byte	0x8
 1187 006a 04       		.uleb128 0x4
 1188 006b 04       		.byte	0x4
 1189 006c 70000000 		.4byte	0x70
 1190 0070 05       		.uleb128 0x5
 1191 0071 63000000 		.4byte	0x63
 1192 0075 03       		.uleb128 0x3
 1193 0076 2F010000 		.4byte	.LASF7
 1194 007a 02       		.byte	0x2
 1195 007b 07       		.byte	0x7
 1196 007c 03       		.uleb128 0x3
 1197 007d E8000000 		.4byte	.LASF8
 1198 0081 08       		.byte	0x8
 1199 0082 07       		.byte	0x7
 1200 0083 06       		.uleb128 0x6
 1201 0084 41000000 		.4byte	.LASF9
 1202 0088 02       		.byte	0x2
 1203 0089 2B       		.byte	0x2b
 1204 008a 8E000000 		.4byte	0x8e
 1205 008e 07       		.uleb128 0x7
 1206 008f 04       		.byte	0x4
 1207 0090 06       		.uleb128 0x6
 1208 0091 7F000000 		.4byte	.LASF10
 1209 0095 02       		.byte	0x2
 1210 0096 69       		.byte	0x69
 1211 0097 83000000 		.4byte	0x83
 1212 009b 08       		.uleb128 0x8
 1213 009c B5000000 		.4byte	0xb5
 1214 00a0 01       		.byte	0x1
 1215 00a1 28000000 		.4byte	.LASF16
 1216 00a5 01       		.byte	0x1
 1217 00a6 E3       		.byte	0xe3
 1218 00a7 01       		.byte	0x1
 1219 00a8 01       		.byte	0x1
 1220 00a9 09       		.uleb128 0x9
 1221 00aa A3000000 		.4byte	.LASF11
 1222 00ae 01       		.byte	0x1
 1223 00af E2       		.byte	0xe2
ARM GAS  /cygdrive/c/DOCUME~1/deforce/LOKALA~1/Temp/ccQeUh7S.s 			page 29


 1224 00b0 63000000 		.4byte	0x63
 1225 00b4 00       		.byte	0x0
 1226 00b5 0A       		.uleb128 0xa
 1227 00b6 23010000 		.4byte	0x123
 1228 00ba AE000000 		.4byte	.LASF26
 1229 00be 01       		.byte	0x1
 1230 00bf 3C       		.byte	0x3c
 1231 00c0 01       		.byte	0x1
 1232 00c1 00000000 		.4byte	.LFB2
 1233 00c5 84000000 		.4byte	.LFE2
 1234 00c9 00000000 		.4byte	.LLST0
 1235 00cd 0B       		.uleb128 0xb
 1236 00ce 67010000 		.4byte	.LASF12
 1237 00d2 01       		.byte	0x1
 1238 00d3 39       		.byte	0x39
 1239 00d4 2F010000 		.4byte	0x12f
 1240 00d8 2C000000 		.4byte	.LLST1
 1241 00dc 0B       		.uleb128 0xb
 1242 00dd AE010000 		.4byte	.LASF13
 1243 00e1 01       		.byte	0x1
 1244 00e2 3A       		.byte	0x3a
 1245 00e3 3A000000 		.4byte	0x3a
 1246 00e7 4A000000 		.4byte	.LLST2
 1247 00eb 0B       		.uleb128 0xb
 1248 00ec 9E000000 		.4byte	.LASF14
 1249 00f0 01       		.byte	0x1
 1250 00f1 3B       		.byte	0x3b
 1251 00f2 3A000000 		.4byte	0x3a
 1252 00f6 68000000 		.4byte	.LLST3
 1253 00fa 0C       		.uleb128 0xc
 1254 00fb 7000     		.ascii	"p\000"
 1255 00fd 01       		.byte	0x1
 1256 00fe 3D       		.byte	0x3d
 1257 00ff 5D000000 		.4byte	0x5d
 1258 0103 01       		.byte	0x1
 1259 0104 55       		.byte	0x55
 1260 0105 0C       		.uleb128 0xc
 1261 0106 62756600 		.ascii	"buf\000"
 1262 010a 01       		.byte	0x1
 1263 010b 3E       		.byte	0x3e
 1264 010c 35010000 		.4byte	0x135
 1265 0110 03       		.byte	0x3
 1266 0111 91       		.byte	0x91
 1267 0112 BA7F     		.sleb128 -70
 1268 0114 0D       		.uleb128 0xd
 1269 0115 D6000000 		.4byte	.LASF15
 1270 0119 01       		.byte	0x1
 1271 011a 3F       		.byte	0x3f
 1272 011b 45010000 		.4byte	0x145
 1273 011f 02       		.byte	0x2
 1274 0120 91       		.byte	0x91
 1275 0121 5B       		.sleb128 -37
 1276 0122 00       		.byte	0x0
 1277 0123 0E       		.uleb128 0xe
 1278 0124 2F010000 		.4byte	0x12f
 1279 0128 01       		.byte	0x1
 1280 0129 0F       		.uleb128 0xf
ARM GAS  /cygdrive/c/DOCUME~1/deforce/LOKALA~1/Temp/ccQeUh7S.s 			page 30


 1281 012a 63000000 		.4byte	0x63
 1282 012e 00       		.byte	0x0
 1283 012f 04       		.uleb128 0x4
 1284 0130 04       		.byte	0x4
 1285 0131 23010000 		.4byte	0x123
 1286 0135 10       		.uleb128 0x10
 1287 0136 45010000 		.4byte	0x145
 1288 013a 63000000 		.4byte	0x63
 1289 013e 11       		.uleb128 0x11
 1290 013f 41000000 		.4byte	0x41
 1291 0143 20       		.byte	0x20
 1292 0144 00       		.byte	0x0
 1293 0145 10       		.uleb128 0x10
 1294 0146 55010000 		.4byte	0x155
 1295 014a 63000000 		.4byte	0x63
 1296 014e 11       		.uleb128 0x11
 1297 014f 41000000 		.4byte	0x41
 1298 0153 10       		.byte	0x10
 1299 0154 00       		.byte	0x0
 1300 0155 12       		.uleb128 0x12
 1301 0156 01       		.byte	0x1
 1302 0157 BD000000 		.4byte	.LASF33
 1303 015b 01       		.byte	0x1
 1304 015c BE       		.byte	0xbe
 1305 015d 01       		.byte	0x1
 1306 015e 84000000 		.4byte	.LFB4
 1307 0162 D4000000 		.4byte	.LFE4
 1308 0166 01       		.byte	0x1
 1309 0167 5D       		.byte	0x5d
 1310 0168 13       		.uleb128 0x13
 1311 0169 83010000 		.4byte	0x183
 1312 016d 9B000000 		.4byte	0x9b
 1313 0171 D4000000 		.4byte	.LFB5
 1314 0175 F4000000 		.4byte	.LFE5
 1315 0179 01       		.byte	0x1
 1316 017a 5D       		.byte	0x5d
 1317 017b 14       		.uleb128 0x14
 1318 017c A9000000 		.4byte	0xa9
 1319 0180 01       		.byte	0x1
 1320 0181 50       		.byte	0x50
 1321 0182 00       		.byte	0x0
 1322 0183 15       		.uleb128 0x15
 1323 0184 D6010000 		.4byte	0x1d6
 1324 0188 01       		.byte	0x1
 1325 0189 1D010000 		.4byte	.LASF17
 1326 018d 01       		.byte	0x1
 1327 018e F5       		.byte	0xf5
 1328 018f 01       		.byte	0x1
 1329 0190 F4000000 		.4byte	.LFB6
 1330 0194 38010000 		.4byte	.LFE6
 1331 0198 01       		.byte	0x1
 1332 0199 5D       		.byte	0x5d
 1333 019a 16       		.uleb128 0x16
 1334 019b A3000000 		.4byte	.LASF11
 1335 019f 01       		.byte	0x1
 1336 01a0 F4       		.byte	0xf4
 1337 01a1 63000000 		.4byte	0x63
ARM GAS  /cygdrive/c/DOCUME~1/deforce/LOKALA~1/Temp/ccQeUh7S.s 			page 31


 1338 01a5 01       		.byte	0x1
 1339 01a6 50       		.byte	0x50
 1340 01a7 17       		.uleb128 0x17
 1341 01a8 C0010000 		.4byte	0x1c0
 1342 01ac 9B000000 		.4byte	0x9b
 1343 01b0 00010000 		.4byte	.LBB6
 1344 01b4 18010000 		.4byte	.LBE6
 1345 01b8 01       		.byte	0x1
 1346 01b9 F7       		.byte	0xf7
 1347 01ba 18       		.uleb128 0x18
 1348 01bb 7B010000 		.4byte	0x17b
 1349 01bf 00       		.byte	0x0
 1350 01c0 19       		.uleb128 0x19
 1351 01c1 9B000000 		.4byte	0x9b
 1352 01c5 18010000 		.4byte	.LBB8
 1353 01c9 30010000 		.4byte	.LBE8
 1354 01cd 01       		.byte	0x1
 1355 01ce F9       		.byte	0xf9
 1356 01cf 18       		.uleb128 0x18
 1357 01d0 7B010000 		.4byte	0x17b
 1358 01d4 00       		.byte	0x0
 1359 01d5 00       		.byte	0x0
 1360 01d6 1A       		.uleb128 0x1a
 1361 01d7 01020000 		.4byte	0x201
 1362 01db 01       		.byte	0x1
 1363 01dc FF000000 		.4byte	.LASF18
 1364 01e0 01       		.byte	0x1
 1365 01e1 0701     		.2byte	0x107
 1366 01e3 01       		.byte	0x1
 1367 01e4 38010000 		.4byte	.LFB7
 1368 01e8 64010000 		.4byte	.LFE7
 1369 01ec 86000000 		.4byte	.LLST7
 1370 01f0 1B       		.uleb128 0x1b
 1371 01f1 62000000 		.4byte	.LASF19
 1372 01f5 01       		.byte	0x1
 1373 01f6 0601     		.2byte	0x106
 1374 01f8 5D000000 		.4byte	0x5d
 1375 01fc A5000000 		.4byte	.LLST8
 1376 0200 00       		.byte	0x0
 1377 0201 1A       		.uleb128 0x1a
 1378 0202 B8020000 		.4byte	0x2b8
 1379 0206 01       		.byte	0x1
 1380 0207 17000000 		.4byte	.LASF20
 1381 020b 01       		.byte	0x1
 1382 020c 2201     		.2byte	0x122
 1383 020e 01       		.byte	0x1
 1384 020f 64010000 		.4byte	.LFB8
 1385 0213 7C020000 		.4byte	.LFE8
 1386 0217 C3000000 		.4byte	.LLST9
 1387 021b 1B       		.uleb128 0x1b
 1388 021c 9E000000 		.4byte	.LASF14
 1389 0220 01       		.byte	0x1
 1390 0221 1D01     		.2byte	0x11d
 1391 0223 48000000 		.4byte	0x48
 1392 0227 EF000000 		.4byte	.LLST10
 1393 022b 1B       		.uleb128 0x1b
 1394 022c DF000000 		.4byte	.LASF21
ARM GAS  /cygdrive/c/DOCUME~1/deforce/LOKALA~1/Temp/ccQeUh7S.s 			page 32


 1395 0230 01       		.byte	0x1
 1396 0231 1E01     		.2byte	0x11e
 1397 0233 48000000 		.4byte	0x48
 1398 0237 0D010000 		.4byte	.LLST11
 1399 023b 1B       		.uleb128 0x1b
 1400 023c 2A010000 		.4byte	.LASF22
 1401 0240 01       		.byte	0x1
 1402 0241 1F01     		.2byte	0x11f
 1403 0243 48000000 		.4byte	0x48
 1404 0247 20010000 		.4byte	.LLST12
 1405 024b 1C       		.uleb128 0x1c
 1406 024c 70616400 		.ascii	"pad\000"
 1407 0250 01       		.byte	0x1
 1408 0251 2001     		.2byte	0x120
 1409 0253 63000000 		.4byte	0x63
 1410 0257 33010000 		.4byte	.LLST13
 1411 025b 1B       		.uleb128 0x1b
 1412 025c AE010000 		.4byte	.LASF13
 1413 0260 01       		.byte	0x1
 1414 0261 2101     		.2byte	0x121
 1415 0263 25000000 		.4byte	0x25
 1416 0267 51010000 		.4byte	.LLST14
 1417 026b 1D       		.uleb128 0x1d
 1418 026c 50010000 		.4byte	.LASF23
 1419 0270 01       		.byte	0x1
 1420 0271 2401     		.2byte	0x124
 1421 0273 5D000000 		.4byte	0x5d
 1422 0277 01       		.byte	0x1
 1423 0278 54       		.byte	0x54
 1424 0279 1E       		.uleb128 0x1e
 1425 027a 62756600 		.ascii	"buf\000"
 1426 027e 01       		.byte	0x1
 1427 027f 2501     		.2byte	0x125
 1428 0281 B8020000 		.4byte	0x2b8
 1429 0285 03       		.byte	0x3
 1430 0286 91       		.byte	0x91
 1431 0287 BC7F     		.sleb128 -68
 1432 0289 1F       		.uleb128 0x1f
 1433 028a 0D000000 		.4byte	.LASF24
 1434 028e 01       		.byte	0x1
 1435 028f 2601     		.2byte	0x126
 1436 0291 3A000000 		.4byte	0x3a
 1437 0295 70010000 		.4byte	.LLST15
 1438 0299 20       		.uleb128 0x20
 1439 029a 50000000 		.4byte	.LASF25
 1440 029e 01       		.byte	0x1
 1441 029f 2701     		.2byte	0x127
 1442 02a1 48000000 		.4byte	0x48
 1443 02a5 1D       		.uleb128 0x1d
 1444 02a6 D6000000 		.4byte	.LASF15
 1445 02aa 01       		.byte	0x1
 1446 02ab 2301     		.2byte	0x123
 1447 02ad C6030000 		.4byte	0x3c6
 1448 02b1 05       		.byte	0x5
 1449 02b2 03       		.byte	0x3
 1450 02b3 00000000 		.4byte	hexChars.2019
 1451 02b7 00       		.byte	0x0
ARM GAS  /cygdrive/c/DOCUME~1/deforce/LOKALA~1/Temp/ccQeUh7S.s 			page 33


 1452 02b8 10       		.uleb128 0x10
 1453 02b9 C8020000 		.4byte	0x2c8
 1454 02bd 63000000 		.4byte	0x63
 1455 02c1 11       		.uleb128 0x11
 1456 02c2 41000000 		.4byte	0x41
 1457 02c6 1F       		.byte	0x1f
 1458 02c7 00       		.byte	0x0
 1459 02c8 21       		.uleb128 0x21
 1460 02c9 25030000 		.4byte	0x325
 1461 02cd 6A000000 		.4byte	.LASF27
 1462 02d1 01       		.byte	0x1
 1463 02d2 60       		.byte	0x60
 1464 02d3 01       		.byte	0x1
 1465 02d4 01       		.byte	0x1
 1466 02d5 09       		.uleb128 0x9
 1467 02d6 67010000 		.4byte	.LASF12
 1468 02da 01       		.byte	0x1
 1469 02db 5D       		.byte	0x5d
 1470 02dc 2F010000 		.4byte	0x12f
 1471 02e0 22       		.uleb128 0x22
 1472 02e1 666D7400 		.ascii	"fmt\000"
 1473 02e5 01       		.byte	0x1
 1474 02e6 5E       		.byte	0x5e
 1475 02e7 6A000000 		.4byte	0x6a
 1476 02eb 22       		.uleb128 0x22
 1477 02ec 617000   		.ascii	"ap\000"
 1478 02ef 01       		.byte	0x1
 1479 02f0 5F       		.byte	0x5f
 1480 02f1 90000000 		.4byte	0x90
 1481 02f5 23       		.uleb128 0x23
 1482 02f6 7000     		.ascii	"p\000"
 1483 02f8 01       		.byte	0x1
 1484 02f9 61       		.byte	0x61
 1485 02fa 5D000000 		.4byte	0x5d
 1486 02fe 23       		.uleb128 0x23
 1487 02ff 636800   		.ascii	"ch\000"
 1488 0302 01       		.byte	0x1
 1489 0303 62       		.byte	0x62
 1490 0304 63000000 		.4byte	0x63
 1491 0308 23       		.uleb128 0x23
 1492 0309 756C00   		.ascii	"ul\000"
 1493 030c 01       		.byte	0x1
 1494 030d 63       		.byte	0x63
 1495 030e 4F000000 		.4byte	0x4f
 1496 0312 24       		.uleb128 0x24
 1497 0313 B7000000 		.4byte	.LASF28
 1498 0317 01       		.byte	0x1
 1499 0318 64       		.byte	0x64
 1500 0319 48000000 		.4byte	0x48
 1501 031d 25       		.uleb128 0x25
 1502 031e 76000000 		.4byte	.LASF34
 1503 0322 01       		.byte	0x1
 1504 0323 79       		.byte	0x79
 1505 0324 00       		.byte	0x0
 1506 0325 1A       		.uleb128 0x1a
 1507 0326 B6030000 		.4byte	0x3b6
 1508 032a 01       		.byte	0x1
ARM GAS  /cygdrive/c/DOCUME~1/deforce/LOKALA~1/Temp/ccQeUh7S.s 			page 34


 1509 032b 00000000 		.4byte	.LASF29
 1510 032f 01       		.byte	0x1
 1511 0330 6401     		.2byte	0x164
 1512 0332 01       		.byte	0x1
 1513 0333 7C020000 		.4byte	.LFB9
 1514 0337 FC030000 		.4byte	.LFE9
 1515 033b BA010000 		.4byte	.LLST16
 1516 033f 1C       		.uleb128 0x1c
 1517 0340 666D7400 		.ascii	"fmt\000"
 1518 0344 01       		.byte	0x1
 1519 0345 6201     		.2byte	0x162
 1520 0347 6A000000 		.4byte	0x6a
 1521 034b F1010000 		.4byte	.LLST17
 1522 034f 26       		.uleb128 0x26
 1523 0350 1E       		.uleb128 0x1e
 1524 0351 617000   		.ascii	"ap\000"
 1525 0354 01       		.byte	0x1
 1526 0355 6501     		.2byte	0x165
 1527 0357 90000000 		.4byte	0x90
 1528 035b 02       		.byte	0x2
 1529 035c 91       		.byte	0x91
 1530 035d 74       		.sleb128 -12
 1531 035e 27       		.uleb128 0x27
 1532 035f C8020000 		.4byte	0x2c8
 1533 0363 9C020000 		.4byte	.LBB12
 1534 0367 E8030000 		.4byte	.LBE12
 1535 036b 01       		.byte	0x1
 1536 036c 6801     		.2byte	0x168
 1537 036e 28       		.uleb128 0x28
 1538 036f EB020000 		.4byte	0x2eb
 1539 0373 10020000 		.4byte	.LLST18
 1540 0377 18       		.uleb128 0x18
 1541 0378 E0020000 		.4byte	0x2e0
 1542 037c 18       		.uleb128 0x18
 1543 037d D5020000 		.4byte	0x2d5
 1544 0381 29       		.uleb128 0x29
 1545 0382 9C020000 		.4byte	.LBB13
 1546 0386 E8030000 		.4byte	.LBE13
 1547 038a 2A       		.uleb128 0x2a
 1548 038b F5020000 		.4byte	0x2f5
 1549 038f 5A020000 		.4byte	.LLST19
 1550 0393 2A       		.uleb128 0x2a
 1551 0394 FE020000 		.4byte	0x2fe
 1552 0398 83020000 		.4byte	.LLST20
 1553 039c 2A       		.uleb128 0x2a
 1554 039d 08030000 		.4byte	0x308
 1555 03a1 51030000 		.4byte	.LLST21
 1556 03a5 2A       		.uleb128 0x2a
 1557 03a6 12030000 		.4byte	0x312
 1558 03aa 7A030000 		.4byte	.LLST22
 1559 03ae 2B       		.uleb128 0x2b
 1560 03af 1D030000 		.4byte	0x31d
 1561 03b3 00       		.byte	0x0
 1562 03b4 00       		.byte	0x0
 1563 03b5 00       		.byte	0x0
 1564 03b6 10       		.uleb128 0x10
 1565 03b7 C6030000 		.4byte	0x3c6
ARM GAS  /cygdrive/c/DOCUME~1/deforce/LOKALA~1/Temp/ccQeUh7S.s 			page 35


 1566 03bb 63000000 		.4byte	0x63
 1567 03bf 11       		.uleb128 0x11
 1568 03c0 41000000 		.4byte	0x41
 1569 03c4 0F       		.byte	0xf
 1570 03c5 00       		.byte	0x0
 1571 03c6 05       		.uleb128 0x5
 1572 03c7 B6030000 		.4byte	0x3b6
 1573 03cb 00       		.byte	0x0
 1574              		.section	.debug_abbrev
 1575 0000 01       		.uleb128 0x1
 1576 0001 11       		.uleb128 0x11
 1577 0002 01       		.byte	0x1
 1578 0003 10       		.uleb128 0x10
 1579 0004 06       		.uleb128 0x6
 1580 0005 12       		.uleb128 0x12
 1581 0006 01       		.uleb128 0x1
 1582 0007 11       		.uleb128 0x11
 1583 0008 01       		.uleb128 0x1
 1584 0009 25       		.uleb128 0x25
 1585 000a 0E       		.uleb128 0xe
 1586 000b 13       		.uleb128 0x13
 1587 000c 0B       		.uleb128 0xb
 1588 000d 03       		.uleb128 0x3
 1589 000e 0E       		.uleb128 0xe
 1590 000f 1B       		.uleb128 0x1b
 1591 0010 0E       		.uleb128 0xe
 1592 0011 00       		.byte	0x0
 1593 0012 00       		.byte	0x0
 1594 0013 02       		.uleb128 0x2
 1595 0014 24       		.uleb128 0x24
 1596 0015 00       		.byte	0x0
 1597 0016 03       		.uleb128 0x3
 1598 0017 08       		.uleb128 0x8
 1599 0018 0B       		.uleb128 0xb
 1600 0019 0B       		.uleb128 0xb
 1601 001a 3E       		.uleb128 0x3e
 1602 001b 0B       		.uleb128 0xb
 1603 001c 00       		.byte	0x0
 1604 001d 00       		.byte	0x0
 1605 001e 03       		.uleb128 0x3
 1606 001f 24       		.uleb128 0x24
 1607 0020 00       		.byte	0x0
 1608 0021 03       		.uleb128 0x3
 1609 0022 0E       		.uleb128 0xe
 1610 0023 0B       		.uleb128 0xb
 1611 0024 0B       		.uleb128 0xb
 1612 0025 3E       		.uleb128 0x3e
 1613 0026 0B       		.uleb128 0xb
 1614 0027 00       		.byte	0x0
 1615 0028 00       		.byte	0x0
 1616 0029 04       		.uleb128 0x4
 1617 002a 0F       		.uleb128 0xf
 1618 002b 00       		.byte	0x0
 1619 002c 0B       		.uleb128 0xb
 1620 002d 0B       		.uleb128 0xb
 1621 002e 49       		.uleb128 0x49
 1622 002f 13       		.uleb128 0x13
ARM GAS  /cygdrive/c/DOCUME~1/deforce/LOKALA~1/Temp/ccQeUh7S.s 			page 36


 1623 0030 00       		.byte	0x0
 1624 0031 00       		.byte	0x0
 1625 0032 05       		.uleb128 0x5
 1626 0033 26       		.uleb128 0x26
 1627 0034 00       		.byte	0x0
 1628 0035 49       		.uleb128 0x49
 1629 0036 13       		.uleb128 0x13
 1630 0037 00       		.byte	0x0
 1631 0038 00       		.byte	0x0
 1632 0039 06       		.uleb128 0x6
 1633 003a 16       		.uleb128 0x16
 1634 003b 00       		.byte	0x0
 1635 003c 03       		.uleb128 0x3
 1636 003d 0E       		.uleb128 0xe
 1637 003e 3A       		.uleb128 0x3a
 1638 003f 0B       		.uleb128 0xb
 1639 0040 3B       		.uleb128 0x3b
 1640 0041 0B       		.uleb128 0xb
 1641 0042 49       		.uleb128 0x49
 1642 0043 13       		.uleb128 0x13
 1643 0044 00       		.byte	0x0
 1644 0045 00       		.byte	0x0
 1645 0046 07       		.uleb128 0x7
 1646 0047 0F       		.uleb128 0xf
 1647 0048 00       		.byte	0x0
 1648 0049 0B       		.uleb128 0xb
 1649 004a 0B       		.uleb128 0xb
 1650 004b 00       		.byte	0x0
 1651 004c 00       		.byte	0x0
 1652 004d 08       		.uleb128 0x8
 1653 004e 2E       		.uleb128 0x2e
 1654 004f 01       		.byte	0x1
 1655 0050 01       		.uleb128 0x1
 1656 0051 13       		.uleb128 0x13
 1657 0052 3F       		.uleb128 0x3f
 1658 0053 0C       		.uleb128 0xc
 1659 0054 03       		.uleb128 0x3
 1660 0055 0E       		.uleb128 0xe
 1661 0056 3A       		.uleb128 0x3a
 1662 0057 0B       		.uleb128 0xb
 1663 0058 3B       		.uleb128 0x3b
 1664 0059 0B       		.uleb128 0xb
 1665 005a 27       		.uleb128 0x27
 1666 005b 0C       		.uleb128 0xc
 1667 005c 20       		.uleb128 0x20
 1668 005d 0B       		.uleb128 0xb
 1669 005e 00       		.byte	0x0
 1670 005f 00       		.byte	0x0
 1671 0060 09       		.uleb128 0x9
 1672 0061 05       		.uleb128 0x5
 1673 0062 00       		.byte	0x0
 1674 0063 03       		.uleb128 0x3
 1675 0064 0E       		.uleb128 0xe
 1676 0065 3A       		.uleb128 0x3a
 1677 0066 0B       		.uleb128 0xb
 1678 0067 3B       		.uleb128 0x3b
 1679 0068 0B       		.uleb128 0xb
ARM GAS  /cygdrive/c/DOCUME~1/deforce/LOKALA~1/Temp/ccQeUh7S.s 			page 37


 1680 0069 49       		.uleb128 0x49
 1681 006a 13       		.uleb128 0x13
 1682 006b 00       		.byte	0x0
 1683 006c 00       		.byte	0x0
 1684 006d 0A       		.uleb128 0xa
 1685 006e 2E       		.uleb128 0x2e
 1686 006f 01       		.byte	0x1
 1687 0070 01       		.uleb128 0x1
 1688 0071 13       		.uleb128 0x13
 1689 0072 03       		.uleb128 0x3
 1690 0073 0E       		.uleb128 0xe
 1691 0074 3A       		.uleb128 0x3a
 1692 0075 0B       		.uleb128 0xb
 1693 0076 3B       		.uleb128 0x3b
 1694 0077 0B       		.uleb128 0xb
 1695 0078 27       		.uleb128 0x27
 1696 0079 0C       		.uleb128 0xc
 1697 007a 11       		.uleb128 0x11
 1698 007b 01       		.uleb128 0x1
 1699 007c 12       		.uleb128 0x12
 1700 007d 01       		.uleb128 0x1
 1701 007e 40       		.uleb128 0x40
 1702 007f 06       		.uleb128 0x6
 1703 0080 00       		.byte	0x0
 1704 0081 00       		.byte	0x0
 1705 0082 0B       		.uleb128 0xb
 1706 0083 05       		.uleb128 0x5
 1707 0084 00       		.byte	0x0
 1708 0085 03       		.uleb128 0x3
 1709 0086 0E       		.uleb128 0xe
 1710 0087 3A       		.uleb128 0x3a
 1711 0088 0B       		.uleb128 0xb
 1712 0089 3B       		.uleb128 0x3b
 1713 008a 0B       		.uleb128 0xb
 1714 008b 49       		.uleb128 0x49
 1715 008c 13       		.uleb128 0x13
 1716 008d 02       		.uleb128 0x2
 1717 008e 06       		.uleb128 0x6
 1718 008f 00       		.byte	0x0
 1719 0090 00       		.byte	0x0
 1720 0091 0C       		.uleb128 0xc
 1721 0092 34       		.uleb128 0x34
 1722 0093 00       		.byte	0x0
 1723 0094 03       		.uleb128 0x3
 1724 0095 08       		.uleb128 0x8
 1725 0096 3A       		.uleb128 0x3a
 1726 0097 0B       		.uleb128 0xb
 1727 0098 3B       		.uleb128 0x3b
 1728 0099 0B       		.uleb128 0xb
 1729 009a 49       		.uleb128 0x49
 1730 009b 13       		.uleb128 0x13
 1731 009c 02       		.uleb128 0x2
 1732 009d 0A       		.uleb128 0xa
 1733 009e 00       		.byte	0x0
 1734 009f 00       		.byte	0x0
 1735 00a0 0D       		.uleb128 0xd
 1736 00a1 34       		.uleb128 0x34
ARM GAS  /cygdrive/c/DOCUME~1/deforce/LOKALA~1/Temp/ccQeUh7S.s 			page 38


 1737 00a2 00       		.byte	0x0
 1738 00a3 03       		.uleb128 0x3
 1739 00a4 0E       		.uleb128 0xe
 1740 00a5 3A       		.uleb128 0x3a
 1741 00a6 0B       		.uleb128 0xb
 1742 00a7 3B       		.uleb128 0x3b
 1743 00a8 0B       		.uleb128 0xb
 1744 00a9 49       		.uleb128 0x49
 1745 00aa 13       		.uleb128 0x13
 1746 00ab 02       		.uleb128 0x2
 1747 00ac 0A       		.uleb128 0xa
 1748 00ad 00       		.byte	0x0
 1749 00ae 00       		.byte	0x0
 1750 00af 0E       		.uleb128 0xe
 1751 00b0 15       		.uleb128 0x15
 1752 00b1 01       		.byte	0x1
 1753 00b2 01       		.uleb128 0x1
 1754 00b3 13       		.uleb128 0x13
 1755 00b4 27       		.uleb128 0x27
 1756 00b5 0C       		.uleb128 0xc
 1757 00b6 00       		.byte	0x0
 1758 00b7 00       		.byte	0x0
 1759 00b8 0F       		.uleb128 0xf
 1760 00b9 05       		.uleb128 0x5
 1761 00ba 00       		.byte	0x0
 1762 00bb 49       		.uleb128 0x49
 1763 00bc 13       		.uleb128 0x13
 1764 00bd 00       		.byte	0x0
 1765 00be 00       		.byte	0x0
 1766 00bf 10       		.uleb128 0x10
 1767 00c0 01       		.uleb128 0x1
 1768 00c1 01       		.byte	0x1
 1769 00c2 01       		.uleb128 0x1
 1770 00c3 13       		.uleb128 0x13
 1771 00c4 49       		.uleb128 0x49
 1772 00c5 13       		.uleb128 0x13
 1773 00c6 00       		.byte	0x0
 1774 00c7 00       		.byte	0x0
 1775 00c8 11       		.uleb128 0x11
 1776 00c9 21       		.uleb128 0x21
 1777 00ca 00       		.byte	0x0
 1778 00cb 49       		.uleb128 0x49
 1779 00cc 13       		.uleb128 0x13
 1780 00cd 2F       		.uleb128 0x2f
 1781 00ce 0B       		.uleb128 0xb
 1782 00cf 00       		.byte	0x0
 1783 00d0 00       		.byte	0x0
 1784 00d1 12       		.uleb128 0x12
 1785 00d2 2E       		.uleb128 0x2e
 1786 00d3 00       		.byte	0x0
 1787 00d4 3F       		.uleb128 0x3f
 1788 00d5 0C       		.uleb128 0xc
 1789 00d6 03       		.uleb128 0x3
 1790 00d7 0E       		.uleb128 0xe
 1791 00d8 3A       		.uleb128 0x3a
 1792 00d9 0B       		.uleb128 0xb
 1793 00da 3B       		.uleb128 0x3b
ARM GAS  /cygdrive/c/DOCUME~1/deforce/LOKALA~1/Temp/ccQeUh7S.s 			page 39


 1794 00db 0B       		.uleb128 0xb
 1795 00dc 27       		.uleb128 0x27
 1796 00dd 0C       		.uleb128 0xc
 1797 00de 11       		.uleb128 0x11
 1798 00df 01       		.uleb128 0x1
 1799 00e0 12       		.uleb128 0x12
 1800 00e1 01       		.uleb128 0x1
 1801 00e2 40       		.uleb128 0x40
 1802 00e3 0A       		.uleb128 0xa
 1803 00e4 00       		.byte	0x0
 1804 00e5 00       		.byte	0x0
 1805 00e6 13       		.uleb128 0x13
 1806 00e7 2E       		.uleb128 0x2e
 1807 00e8 01       		.byte	0x1
 1808 00e9 01       		.uleb128 0x1
 1809 00ea 13       		.uleb128 0x13
 1810 00eb 31       		.uleb128 0x31
 1811 00ec 13       		.uleb128 0x13
 1812 00ed 11       		.uleb128 0x11
 1813 00ee 01       		.uleb128 0x1
 1814 00ef 12       		.uleb128 0x12
 1815 00f0 01       		.uleb128 0x1
 1816 00f1 40       		.uleb128 0x40
 1817 00f2 0A       		.uleb128 0xa
 1818 00f3 00       		.byte	0x0
 1819 00f4 00       		.byte	0x0
 1820 00f5 14       		.uleb128 0x14
 1821 00f6 05       		.uleb128 0x5
 1822 00f7 00       		.byte	0x0
 1823 00f8 31       		.uleb128 0x31
 1824 00f9 13       		.uleb128 0x13
 1825 00fa 02       		.uleb128 0x2
 1826 00fb 0A       		.uleb128 0xa
 1827 00fc 00       		.byte	0x0
 1828 00fd 00       		.byte	0x0
 1829 00fe 15       		.uleb128 0x15
 1830 00ff 2E       		.uleb128 0x2e
 1831 0100 01       		.byte	0x1
 1832 0101 01       		.uleb128 0x1
 1833 0102 13       		.uleb128 0x13
 1834 0103 3F       		.uleb128 0x3f
 1835 0104 0C       		.uleb128 0xc
 1836 0105 03       		.uleb128 0x3
 1837 0106 0E       		.uleb128 0xe
 1838 0107 3A       		.uleb128 0x3a
 1839 0108 0B       		.uleb128 0xb
 1840 0109 3B       		.uleb128 0x3b
 1841 010a 0B       		.uleb128 0xb
 1842 010b 27       		.uleb128 0x27
 1843 010c 0C       		.uleb128 0xc
 1844 010d 11       		.uleb128 0x11
 1845 010e 01       		.uleb128 0x1
 1846 010f 12       		.uleb128 0x12
 1847 0110 01       		.uleb128 0x1
 1848 0111 40       		.uleb128 0x40
 1849 0112 0A       		.uleb128 0xa
 1850 0113 00       		.byte	0x0
ARM GAS  /cygdrive/c/DOCUME~1/deforce/LOKALA~1/Temp/ccQeUh7S.s 			page 40


 1851 0114 00       		.byte	0x0
 1852 0115 16       		.uleb128 0x16
 1853 0116 05       		.uleb128 0x5
 1854 0117 00       		.byte	0x0
 1855 0118 03       		.uleb128 0x3
 1856 0119 0E       		.uleb128 0xe
 1857 011a 3A       		.uleb128 0x3a
 1858 011b 0B       		.uleb128 0xb
 1859 011c 3B       		.uleb128 0x3b
 1860 011d 0B       		.uleb128 0xb
 1861 011e 49       		.uleb128 0x49
 1862 011f 13       		.uleb128 0x13
 1863 0120 02       		.uleb128 0x2
 1864 0121 0A       		.uleb128 0xa
 1865 0122 00       		.byte	0x0
 1866 0123 00       		.byte	0x0
 1867 0124 17       		.uleb128 0x17
 1868 0125 1D       		.uleb128 0x1d
 1869 0126 01       		.byte	0x1
 1870 0127 01       		.uleb128 0x1
 1871 0128 13       		.uleb128 0x13
 1872 0129 31       		.uleb128 0x31
 1873 012a 13       		.uleb128 0x13
 1874 012b 11       		.uleb128 0x11
 1875 012c 01       		.uleb128 0x1
 1876 012d 12       		.uleb128 0x12
 1877 012e 01       		.uleb128 0x1
 1878 012f 58       		.uleb128 0x58
 1879 0130 0B       		.uleb128 0xb
 1880 0131 59       		.uleb128 0x59
 1881 0132 0B       		.uleb128 0xb
 1882 0133 00       		.byte	0x0
 1883 0134 00       		.byte	0x0
 1884 0135 18       		.uleb128 0x18
 1885 0136 05       		.uleb128 0x5
 1886 0137 00       		.byte	0x0
 1887 0138 31       		.uleb128 0x31
 1888 0139 13       		.uleb128 0x13
 1889 013a 00       		.byte	0x0
 1890 013b 00       		.byte	0x0
 1891 013c 19       		.uleb128 0x19
 1892 013d 1D       		.uleb128 0x1d
 1893 013e 01       		.byte	0x1
 1894 013f 31       		.uleb128 0x31
 1895 0140 13       		.uleb128 0x13
 1896 0141 11       		.uleb128 0x11
 1897 0142 01       		.uleb128 0x1
 1898 0143 12       		.uleb128 0x12
 1899 0144 01       		.uleb128 0x1
 1900 0145 58       		.uleb128 0x58
 1901 0146 0B       		.uleb128 0xb
 1902 0147 59       		.uleb128 0x59
 1903 0148 0B       		.uleb128 0xb
 1904 0149 00       		.byte	0x0
 1905 014a 00       		.byte	0x0
 1906 014b 1A       		.uleb128 0x1a
 1907 014c 2E       		.uleb128 0x2e
ARM GAS  /cygdrive/c/DOCUME~1/deforce/LOKALA~1/Temp/ccQeUh7S.s 			page 41


 1908 014d 01       		.byte	0x1
 1909 014e 01       		.uleb128 0x1
 1910 014f 13       		.uleb128 0x13
 1911 0150 3F       		.uleb128 0x3f
 1912 0151 0C       		.uleb128 0xc
 1913 0152 03       		.uleb128 0x3
 1914 0153 0E       		.uleb128 0xe
 1915 0154 3A       		.uleb128 0x3a
 1916 0155 0B       		.uleb128 0xb
 1917 0156 3B       		.uleb128 0x3b
 1918 0157 05       		.uleb128 0x5
 1919 0158 27       		.uleb128 0x27
 1920 0159 0C       		.uleb128 0xc
 1921 015a 11       		.uleb128 0x11
 1922 015b 01       		.uleb128 0x1
 1923 015c 12       		.uleb128 0x12
 1924 015d 01       		.uleb128 0x1
 1925 015e 40       		.uleb128 0x40
 1926 015f 06       		.uleb128 0x6
 1927 0160 00       		.byte	0x0
 1928 0161 00       		.byte	0x0
 1929 0162 1B       		.uleb128 0x1b
 1930 0163 05       		.uleb128 0x5
 1931 0164 00       		.byte	0x0
 1932 0165 03       		.uleb128 0x3
 1933 0166 0E       		.uleb128 0xe
 1934 0167 3A       		.uleb128 0x3a
 1935 0168 0B       		.uleb128 0xb
 1936 0169 3B       		.uleb128 0x3b
 1937 016a 05       		.uleb128 0x5
 1938 016b 49       		.uleb128 0x49
 1939 016c 13       		.uleb128 0x13
 1940 016d 02       		.uleb128 0x2
 1941 016e 06       		.uleb128 0x6
 1942 016f 00       		.byte	0x0
 1943 0170 00       		.byte	0x0
 1944 0171 1C       		.uleb128 0x1c
 1945 0172 05       		.uleb128 0x5
 1946 0173 00       		.byte	0x0
 1947 0174 03       		.uleb128 0x3
 1948 0175 08       		.uleb128 0x8
 1949 0176 3A       		.uleb128 0x3a
 1950 0177 0B       		.uleb128 0xb
 1951 0178 3B       		.uleb128 0x3b
 1952 0179 05       		.uleb128 0x5
 1953 017a 49       		.uleb128 0x49
 1954 017b 13       		.uleb128 0x13
 1955 017c 02       		.uleb128 0x2
 1956 017d 06       		.uleb128 0x6
 1957 017e 00       		.byte	0x0
 1958 017f 00       		.byte	0x0
 1959 0180 1D       		.uleb128 0x1d
 1960 0181 34       		.uleb128 0x34
 1961 0182 00       		.byte	0x0
 1962 0183 03       		.uleb128 0x3
 1963 0184 0E       		.uleb128 0xe
 1964 0185 3A       		.uleb128 0x3a
ARM GAS  /cygdrive/c/DOCUME~1/deforce/LOKALA~1/Temp/ccQeUh7S.s 			page 42


 1965 0186 0B       		.uleb128 0xb
 1966 0187 3B       		.uleb128 0x3b
 1967 0188 05       		.uleb128 0x5
 1968 0189 49       		.uleb128 0x49
 1969 018a 13       		.uleb128 0x13
 1970 018b 02       		.uleb128 0x2
 1971 018c 0A       		.uleb128 0xa
 1972 018d 00       		.byte	0x0
 1973 018e 00       		.byte	0x0
 1974 018f 1E       		.uleb128 0x1e
 1975 0190 34       		.uleb128 0x34
 1976 0191 00       		.byte	0x0
 1977 0192 03       		.uleb128 0x3
 1978 0193 08       		.uleb128 0x8
 1979 0194 3A       		.uleb128 0x3a
 1980 0195 0B       		.uleb128 0xb
 1981 0196 3B       		.uleb128 0x3b
 1982 0197 05       		.uleb128 0x5
 1983 0198 49       		.uleb128 0x49
 1984 0199 13       		.uleb128 0x13
 1985 019a 02       		.uleb128 0x2
 1986 019b 0A       		.uleb128 0xa
 1987 019c 00       		.byte	0x0
 1988 019d 00       		.byte	0x0
 1989 019e 1F       		.uleb128 0x1f
 1990 019f 34       		.uleb128 0x34
 1991 01a0 00       		.byte	0x0
 1992 01a1 03       		.uleb128 0x3
 1993 01a2 0E       		.uleb128 0xe
 1994 01a3 3A       		.uleb128 0x3a
 1995 01a4 0B       		.uleb128 0xb
 1996 01a5 3B       		.uleb128 0x3b
 1997 01a6 05       		.uleb128 0x5
 1998 01a7 49       		.uleb128 0x49
 1999 01a8 13       		.uleb128 0x13
 2000 01a9 02       		.uleb128 0x2
 2001 01aa 06       		.uleb128 0x6
 2002 01ab 00       		.byte	0x0
 2003 01ac 00       		.byte	0x0
 2004 01ad 20       		.uleb128 0x20
 2005 01ae 34       		.uleb128 0x34
 2006 01af 00       		.byte	0x0
 2007 01b0 03       		.uleb128 0x3
 2008 01b1 0E       		.uleb128 0xe
 2009 01b2 3A       		.uleb128 0x3a
 2010 01b3 0B       		.uleb128 0xb
 2011 01b4 3B       		.uleb128 0x3b
 2012 01b5 05       		.uleb128 0x5
 2013 01b6 49       		.uleb128 0x49
 2014 01b7 13       		.uleb128 0x13
 2015 01b8 00       		.byte	0x0
 2016 01b9 00       		.byte	0x0
 2017 01ba 21       		.uleb128 0x21
 2018 01bb 2E       		.uleb128 0x2e
 2019 01bc 01       		.byte	0x1
 2020 01bd 01       		.uleb128 0x1
 2021 01be 13       		.uleb128 0x13
ARM GAS  /cygdrive/c/DOCUME~1/deforce/LOKALA~1/Temp/ccQeUh7S.s 			page 43


 2022 01bf 03       		.uleb128 0x3
 2023 01c0 0E       		.uleb128 0xe
 2024 01c1 3A       		.uleb128 0x3a
 2025 01c2 0B       		.uleb128 0xb
 2026 01c3 3B       		.uleb128 0x3b
 2027 01c4 0B       		.uleb128 0xb
 2028 01c5 27       		.uleb128 0x27
 2029 01c6 0C       		.uleb128 0xc
 2030 01c7 20       		.uleb128 0x20
 2031 01c8 0B       		.uleb128 0xb
 2032 01c9 00       		.byte	0x0
 2033 01ca 00       		.byte	0x0
 2034 01cb 22       		.uleb128 0x22
 2035 01cc 05       		.uleb128 0x5
 2036 01cd 00       		.byte	0x0
 2037 01ce 03       		.uleb128 0x3
 2038 01cf 08       		.uleb128 0x8
 2039 01d0 3A       		.uleb128 0x3a
 2040 01d1 0B       		.uleb128 0xb
 2041 01d2 3B       		.uleb128 0x3b
 2042 01d3 0B       		.uleb128 0xb
 2043 01d4 49       		.uleb128 0x49
 2044 01d5 13       		.uleb128 0x13
 2045 01d6 00       		.byte	0x0
 2046 01d7 00       		.byte	0x0
 2047 01d8 23       		.uleb128 0x23
 2048 01d9 34       		.uleb128 0x34
 2049 01da 00       		.byte	0x0
 2050 01db 03       		.uleb128 0x3
 2051 01dc 08       		.uleb128 0x8
 2052 01dd 3A       		.uleb128 0x3a
 2053 01de 0B       		.uleb128 0xb
 2054 01df 3B       		.uleb128 0x3b
 2055 01e0 0B       		.uleb128 0xb
 2056 01e1 49       		.uleb128 0x49
 2057 01e2 13       		.uleb128 0x13
 2058 01e3 00       		.byte	0x0
 2059 01e4 00       		.byte	0x0
 2060 01e5 24       		.uleb128 0x24
 2061 01e6 34       		.uleb128 0x34
 2062 01e7 00       		.byte	0x0
 2063 01e8 03       		.uleb128 0x3
 2064 01e9 0E       		.uleb128 0xe
 2065 01ea 3A       		.uleb128 0x3a
 2066 01eb 0B       		.uleb128 0xb
 2067 01ec 3B       		.uleb128 0x3b
 2068 01ed 0B       		.uleb128 0xb
 2069 01ee 49       		.uleb128 0x49
 2070 01ef 13       		.uleb128 0x13
 2071 01f0 00       		.byte	0x0
 2072 01f1 00       		.byte	0x0
 2073 01f2 25       		.uleb128 0x25
 2074 01f3 0A       		.uleb128 0xa
 2075 01f4 00       		.byte	0x0
 2076 01f5 03       		.uleb128 0x3
 2077 01f6 0E       		.uleb128 0xe
 2078 01f7 3A       		.uleb128 0x3a
ARM GAS  /cygdrive/c/DOCUME~1/deforce/LOKALA~1/Temp/ccQeUh7S.s 			page 44


 2079 01f8 0B       		.uleb128 0xb
 2080 01f9 3B       		.uleb128 0x3b
 2081 01fa 0B       		.uleb128 0xb
 2082 01fb 00       		.byte	0x0
 2083 01fc 00       		.byte	0x0
 2084 01fd 26       		.uleb128 0x26
 2085 01fe 18       		.uleb128 0x18
 2086 01ff 00       		.byte	0x0
 2087 0200 00       		.byte	0x0
 2088 0201 00       		.byte	0x0
 2089 0202 27       		.uleb128 0x27
 2090 0203 1D       		.uleb128 0x1d
 2091 0204 01       		.byte	0x1
 2092 0205 31       		.uleb128 0x31
 2093 0206 13       		.uleb128 0x13
 2094 0207 11       		.uleb128 0x11
 2095 0208 01       		.uleb128 0x1
 2096 0209 12       		.uleb128 0x12
 2097 020a 01       		.uleb128 0x1
 2098 020b 58       		.uleb128 0x58
 2099 020c 0B       		.uleb128 0xb
 2100 020d 59       		.uleb128 0x59
 2101 020e 05       		.uleb128 0x5
 2102 020f 00       		.byte	0x0
 2103 0210 00       		.byte	0x0
 2104 0211 28       		.uleb128 0x28
 2105 0212 05       		.uleb128 0x5
 2106 0213 00       		.byte	0x0
 2107 0214 31       		.uleb128 0x31
 2108 0215 13       		.uleb128 0x13
 2109 0216 02       		.uleb128 0x2
 2110 0217 06       		.uleb128 0x6
 2111 0218 00       		.byte	0x0
 2112 0219 00       		.byte	0x0
 2113 021a 29       		.uleb128 0x29
 2114 021b 0B       		.uleb128 0xb
 2115 021c 01       		.byte	0x1
 2116 021d 11       		.uleb128 0x11
 2117 021e 01       		.uleb128 0x1
 2118 021f 12       		.uleb128 0x12
 2119 0220 01       		.uleb128 0x1
 2120 0221 00       		.byte	0x0
 2121 0222 00       		.byte	0x0
 2122 0223 2A       		.uleb128 0x2a
 2123 0224 34       		.uleb128 0x34
 2124 0225 00       		.byte	0x0
 2125 0226 31       		.uleb128 0x31
 2126 0227 13       		.uleb128 0x13
 2127 0228 02       		.uleb128 0x2
 2128 0229 06       		.uleb128 0x6
 2129 022a 00       		.byte	0x0
 2130 022b 00       		.byte	0x0
 2131 022c 2B       		.uleb128 0x2b
 2132 022d 0A       		.uleb128 0xa
 2133 022e 00       		.byte	0x0
 2134 022f 31       		.uleb128 0x31
 2135 0230 13       		.uleb128 0x13
ARM GAS  /cygdrive/c/DOCUME~1/deforce/LOKALA~1/Temp/ccQeUh7S.s 			page 45


 2136 0231 00       		.byte	0x0
 2137 0232 00       		.byte	0x0
 2138 0233 00       		.byte	0x0
 2139              		.section	.debug_pubnames,"",%progbits
 2140 0000 7C000000 		.4byte	0x7c
 2141 0004 0200     		.2byte	0x2
 2142 0006 00000000 		.4byte	.Ldebug_info0
 2143 000a CC030000 		.4byte	0x3cc
 2144 000e 55010000 		.4byte	0x155
 2145 0012 636F6E73 		.ascii	"consolInit\000"
 2145      6F6C496E 
 2145      697400
 2146 001d 68010000 		.4byte	0x168
 2147 0021 636F6E73 		.ascii	"consolSendChar\000"
 2147      6F6C5365 
 2147      6E644368 
 2147      617200
 2148 0030 83010000 		.4byte	0x183
 2149 0034 636F6E73 		.ascii	"consolSendCh\000"
 2149      6F6C5365 
 2149      6E644368 
 2149      00
 2150 0041 D6010000 		.4byte	0x1d6
 2151 0045 636F6E73 		.ascii	"consolSendString\000"
 2151      6F6C5365 
 2151      6E645374 
 2151      72696E67 
 2151      00
 2152 0056 01020000 		.4byte	0x201
 2153 005a 636F6E73 		.ascii	"consolSendNumber\000"
 2153      6F6C5365 
 2153      6E644E75 
 2153      6D626572 
 2153      00
 2154 006b 25030000 		.4byte	0x325
 2155 006f 73696D70 		.ascii	"simplePrintf\000"
 2155      6C655072 
 2155      696E7466 
 2155      00
 2156 007c 00000000 		.4byte	0x0
 2157              		.section	.debug_aranges,"",%progbits
 2158 0000 1C000000 		.4byte	0x1c
 2159 0004 0200     		.2byte	0x2
 2160 0006 00000000 		.4byte	.Ldebug_info0
 2161 000a 04       		.byte	0x4
 2162 000b 00       		.byte	0x0
 2163 000c 0000     		.2byte	0x0
 2164 000e 0000     		.2byte	0x0
 2165 0010 00000000 		.4byte	.Ltext0
 2166 0014 FC030000 		.4byte	.Letext0-.Ltext0
 2167 0018 00000000 		.4byte	0x0
 2168 001c 00000000 		.4byte	0x0
 2169              		.section	.debug_str,"MS",%progbits,1
 2170              	.LASF29:
 2171 0000 73696D70 		.ascii	"simplePrintf\000"
 2171      6C655072 
 2171      696E7466 
ARM GAS  /cygdrive/c/DOCUME~1/deforce/LOKALA~1/Temp/ccQeUh7S.s 			page 46


 2171      00
 2172              	.LASF24:
 2173 000d 6E756D62 		.ascii	"numberAbs\000"
 2173      65724162 
 2173      7300
 2174              	.LASF20:
 2175 0017 636F6E73 		.ascii	"consolSendNumber\000"
 2175      6F6C5365 
 2175      6E644E75 
 2175      6D626572 
 2175      00
 2176              	.LASF16:
 2177 0028 636F6E73 		.ascii	"consolSendChar\000"
 2177      6F6C5365 
 2177      6E644368 
 2177      617200
 2178              	.LASF5:
 2179 0037 73686F72 		.ascii	"short int\000"
 2179      7420696E 
 2179      7400
 2180              	.LASF9:
 2181 0041 5F5F676E 		.ascii	"__gnuc_va_list\000"
 2181      75635F76 
 2181      615F6C69 
 2181      737400
 2182              	.LASF25:
 2183 0050 636F756E 		.ascii	"count\000"
 2183      7400
 2184              	.LASF30:
 2185 0056 474E5520 		.ascii	"GNU C 4.1.1\000"
 2185      4320342E 
 2185      312E3100 
 2186              	.LASF19:
 2187 0062 70537472 		.ascii	"pString\000"
 2187      696E6700 
 2188              	.LASF27:
 2189 006a 73696D70 		.ascii	"simplePrint\000"
 2189      6C655072 
 2189      696E7400 
 2190              	.LASF34:
 2191 0076 72657377 		.ascii	"reswitch\000"
 2191      69746368 
 2191      00
 2192              	.LASF10:
 2193 007f 76615F6C 		.ascii	"va_list\000"
 2193      69737400 
 2194              	.LASF1:
 2195 0087 6C6F6E67 		.ascii	"long long int\000"
 2195      206C6F6E 
 2195      6720696E 
 2195      7400
 2196              	.LASF0:
 2197 0095 6C6F6E67 		.ascii	"long int\000"
 2197      20696E74 
 2197      00
 2198              	.LASF14:
 2199 009e 62617365 		.ascii	"base\000"
ARM GAS  /cygdrive/c/DOCUME~1/deforce/LOKALA~1/Temp/ccQeUh7S.s 			page 47


 2199      00
 2200              	.LASF11:
 2201 00a3 63686172 		.ascii	"charToSend\000"
 2201      546F5365 
 2201      6E6400
 2202              	.LASF26:
 2203 00ae 7072696E 		.ascii	"printNum\000"
 2203      744E756D 
 2203      00
 2204              	.LASF28:
 2205 00b7 6C666C61 		.ascii	"lflag\000"
 2205      6700
 2206              	.LASF33:
 2207 00bd 636F6E73 		.ascii	"consolInit\000"
 2207      6F6C496E 
 2207      697400
 2208              	.LASF4:
 2209 00c8 756E7369 		.ascii	"unsigned char\000"
 2209      676E6564 
 2209      20636861 
 2209      7200
 2210              	.LASF15:
 2211 00d6 68657843 		.ascii	"hexChars\000"
 2211      68617273 
 2211      00
 2212              	.LASF21:
 2213 00df 6E6F4469 		.ascii	"noDigits\000"
 2213      67697473 
 2213      00
 2214              	.LASF8:
 2215 00e8 6C6F6E67 		.ascii	"long long unsigned int\000"
 2215      206C6F6E 
 2215      6720756E 
 2215      7369676E 
 2215      65642069 
 2216              	.LASF18:
 2217 00ff 636F6E73 		.ascii	"consolSendString\000"
 2217      6F6C5365 
 2217      6E645374 
 2217      72696E67 
 2217      00
 2218              	.LASF2:
 2219 0110 756E7369 		.ascii	"unsigned int\000"
 2219      676E6564 
 2219      20696E74 
 2219      00
 2220              	.LASF17:
 2221 011d 636F6E73 		.ascii	"consolSendCh\000"
 2221      6F6C5365 
 2221      6E644368 
 2221      00
 2222              	.LASF22:
 2223 012a 7369676E 		.ascii	"sign\000"
 2223      00
 2224              	.LASF7:
 2225 012f 73686F72 		.ascii	"short unsigned int\000"
 2225      7420756E 
ARM GAS  /cygdrive/c/DOCUME~1/deforce/LOKALA~1/Temp/ccQeUh7S.s 			page 48


 2225      7369676E 
 2225      65642069 
 2225      6E7400
 2226              	.LASF6:
 2227 0142 63686172 		.ascii	"char\000"
 2227      00
 2228              	.LASF31:
 2229 0147 636F6E73 		.ascii	"consol.c\000"
 2229      6F6C2E63 
 2229      00
 2230              	.LASF23:
 2231 0150 70427566 		.ascii	"pBuf\000"
 2231      00
 2232              	.LASF3:
 2233 0155 6C6F6E67 		.ascii	"long unsigned int\000"
 2233      20756E73 
 2233      69676E65 
 2233      6420696E 
 2233      7400
 2234              	.LASF12:
 2235 0167 6F757470 		.ascii	"outputFnk\000"
 2235      7574466E 
 2235      6B00
 2236              	.LASF32:
 2237 0171 2F637967 		.ascii	"/cygdrive/c/DropBox/armprojects/Projekt12Integratio"
 2237      64726976 
 2237      652F632F 
 2237      44726F70 
 2237      426F782F 
 2238 01a4 6E2F7374 		.ascii	"n/startup\000"
 2238      61727475 
 2238      7000
 2239              	.LASF13:
 2240 01ae 6E756D62 		.ascii	"number\000"
 2240      657200
 2241              		.ident	"GCC: (GNU) 4.1.1"
ARM GAS  /cygdrive/c/DOCUME~1/deforce/LOKALA~1/Temp/ccQeUh7S.s 			page 49


DEFINED SYMBOLS
                            *ABS*:00000000 consol.c
/cygdrive/c/DOCUME~1/deforce/LOKALA~1/Temp/ccQeUh7S.s:19     .text:00000000 printNum
/cygdrive/c/DOCUME~1/deforce/LOKALA~1/Temp/ccQeUh7S.s:27     .text:00000000 $a
/cygdrive/c/DOCUME~1/deforce/LOKALA~1/Temp/ccQeUh7S.s:80     .text:00000080 $d
/cygdrive/c/DOCUME~1/deforce/LOKALA~1/Temp/ccQeUh7S.s:86     .text:00000084 consolInit
/cygdrive/c/DOCUME~1/deforce/LOKALA~1/Temp/ccQeUh7S.s:94     .text:00000084 $a
/cygdrive/c/DOCUME~1/deforce/LOKALA~1/Temp/ccQeUh7S.s:129    .text:000000cc $d
/cygdrive/c/DOCUME~1/deforce/LOKALA~1/Temp/ccQeUh7S.s:136    .text:000000d4 consolSendChar
/cygdrive/c/DOCUME~1/deforce/LOKALA~1/Temp/ccQeUh7S.s:145    .text:000000d4 $a
/cygdrive/c/DOCUME~1/deforce/LOKALA~1/Temp/ccQeUh7S.s:159    .text:000000f0 $d
/cygdrive/c/DOCUME~1/deforce/LOKALA~1/Temp/ccQeUh7S.s:165    .text:000000f4 consolSendCh
/cygdrive/c/DOCUME~1/deforce/LOKALA~1/Temp/ccQeUh7S.s:173    .text:000000f4 $a
/cygdrive/c/DOCUME~1/deforce/LOKALA~1/Temp/ccQeUh7S.s:211    .text:00000134 $d
/cygdrive/c/DOCUME~1/deforce/LOKALA~1/Temp/ccQeUh7S.s:217    .text:00000138 consolSendString
/cygdrive/c/DOCUME~1/deforce/LOKALA~1/Temp/ccQeUh7S.s:224    .text:00000138 $a
/cygdrive/c/DOCUME~1/deforce/LOKALA~1/Temp/ccQeUh7S.s:251    .text:00000164 consolSendNumber
/cygdrive/c/DOCUME~1/deforce/LOKALA~1/Temp/ccQeUh7S.s:385    .text:00000278 $d
/cygdrive/c/DOCUME~1/deforce/LOKALA~1/Temp/ccQeUh7S.s:603    .rodata:00000000 hexChars.2019
/cygdrive/c/DOCUME~1/deforce/LOKALA~1/Temp/ccQeUh7S.s:391    .text:0000027c simplePrintf
/cygdrive/c/DOCUME~1/deforce/LOKALA~1/Temp/ccQeUh7S.s:398    .text:0000027c $a
/cygdrive/c/DOCUME~1/deforce/LOKALA~1/Temp/ccQeUh7S.s:596    .text:000003f8 $d

UNDEFINED SYMBOLS
__umodsi3
__udivsi3
memcpy
