ARM GAS  /cygdrive/c/DOCUME~1/deforce/LOKALA~1/Temp/ccMpnaln.s 			page 1


   1              		.code	16
   2              		.file	"proc1.c"
   3              		.section	.debug_abbrev,"",%progbits
   4              	.Ldebug_abbrev0:
   5              		.section	.debug_info,"",%progbits
   6              	.Ldebug_info0:
   7              		.section	.debug_line,"",%progbits
   8              	.Ldebug_line0:
   9 0000 7E000000 		.text
   9      02006300 
   9      00000201 
   9      FB0E0D00 
   9      01010101 
  10              	.Ltext0:
  11              		.align	2
  12              		.global	procEx1
  13              		.code 16
  14              		.thumb_func
  15              		.type	procEx1, %function
  16              	procEx1:
  17              	.LFB2:
  18              		.file 1 "proc1.c"
   1:proc1.c       **** /*
   2:proc1.c       ****  * proc1.c
   3:proc1.c       ****  *
   4:proc1.c       ****  *  Created on: 31 okt 2011
   5:proc1.c       ****  *      Author: Tommy
   6:proc1.c       ****  */
   7:proc1.c       **** 
   8:proc1.c       **** /*****************************************************************************
   9:proc1.c       ****  *
  10:proc1.c       ****  *    Exempel 1
  11:proc1.c       ****  *
  12:proc1.c       ****  *
  13:proc1.c       ****  ****************************************************************************/
  14:proc1.c       **** #include "pre_emptive_os/api/osapi.h"
  15:proc1.c       **** #include "general.h"
  16:proc1.c       **** #include "startup/lpc2xxx.h"
  17:proc1.c       **** #include "startup/printf_P.h"
  18:proc1.c       **** #include "startup/ea_init.h"
  19:proc1.c       **** #include "startup/consol.h"
  20:proc1.c       **** #include "startup/config.h"
  21:proc1.c       **** #include "startup/framework.h"
  22:proc1.c       **** 
  23:proc1.c       **** #include "LCD/LCD.h"  //  Funktionsprototyper för LCD-rutinerna
  24:proc1.c       **** 
  25:proc1.c       **** extern long const delayshort;
  26:proc1.c       **** extern long const delaylong;
  27:proc1.c       **** 
  28:proc1.c       **** extern tCntSem mutexLCD;
  29:proc1.c       **** 
  30:proc1.c       **** 
  31:proc1.c       **** 
  32:proc1.c       **** void
  33:proc1.c       **** procEx1(void* arg)
  34:proc1.c       **** {
  19              		.loc 1 34 0
ARM GAS  /cygdrive/c/DOCUME~1/deforce/LOKALA~1/Temp/ccMpnaln.s 			page 2


  20 0000 80B5     		push	{r7, lr}
  21              	.LCFI0:
  22 0002 82B0     		sub	sp, sp, #8
  23              	.LCFI1:
  24 0004 00AF     		add	r7, sp, #0
  25              	.LCFI2:
  26 0006 3B1C     		mov	r3, r7
  27 0008 1860     		str	r0, [r3]
  28              	.L2:
  35:proc1.c       ****   tU8 error;
  36:proc1.c       **** 
  37:proc1.c       ****   for(;;)
  38:proc1.c       ****   {
  39:proc1.c       **** // Exempelkod för att visa hur flera processer kan dela på LCD
  40:proc1.c       **** 
  41:proc1.c       ****    osSemTake(&mutexLCD, 0, &error);
  29              		.loc 1 41 0
  30 000a 084B     		ldr	r3, .L4
  31 000c FA1D     		add	r2, r7, #7
  32 000e 181C     		mov	r0, r3
  33 0010 0021     		mov	r1, #0
  34 0012 FFF7FEFF 		bl	osSemTake
  42:proc1.c       **** 
  43:proc1.c       **** //	delay(delayshort);
  44:proc1.c       **** //	send_instruction(1);	//cleara displayen
  45:proc1.c       **** //	delay(delaylong);
  46:proc1.c       **** //	send_instruction(2);  //cursorn till första positionen
  47:proc1.c       **** //	delay(delaylong);
  48:proc1.c       **** //    send_character('E');
  49:proc1.c       **** //    delay(delayshort);
  50:proc1.c       **** //    send_character('x');
  51:proc1.c       **** //    delay(delayshort);
  52:proc1.c       **** //
  53:proc1.c       **** //    send_character('1');
  54:proc1.c       **** //
  55:proc1.c       **** //    osSleep(300);		// för att infon säkert skall hinna synas
  56:proc1.c       **** 
  57:proc1.c       ****     osSemGive(&mutexLCD, &error);
  35              		.loc 1 57 0
  36 0016 054B     		ldr	r3, .L4
  37 0018 FA1D     		add	r2, r7, #7
  38 001a 181C     		mov	r0, r3
  39 001c 111C     		mov	r1, r2
  40 001e FFF7FEFF 		bl	osSemGive
  58:proc1.c       **** 
  59:proc1.c       **** 
  60:proc1.c       ****     //osSleep(1000);
  61:proc1.c       ****     osSleep(5000);
  41              		.loc 1 61 0
  42 0022 034B     		ldr	r3, .L4+4
  43 0024 181C     		mov	r0, r3
  44 0026 FFF7FEFF 		bl	osSleep
  62:proc1.c       ****   }
  45              		.loc 1 62 0
  46 002a EEE7     		b	.L2
  47              	.L5:
  48              		.align	2
ARM GAS  /cygdrive/c/DOCUME~1/deforce/LOKALA~1/Temp/ccMpnaln.s 			page 3


  49              	.L4:
  50 002c 00000000 		.word	mutexLCD
  51 0030 88130000 		.word	5000
  52              	.LFE2:
  53              		.size	procEx1, .-procEx1
  54              		.section	.debug_frame,"",%progbits
  55              	.Lframe0:
  56 0000 0C000000 		.4byte	.LECIE0-.LSCIE0
  57              	.LSCIE0:
  58 0004 FFFFFFFF 		.4byte	0xffffffff
  59 0008 01       		.byte	0x1
  60 0009 00       		.ascii	"\000"
  61 000a 01       		.uleb128 0x1
  62 000b 7C       		.sleb128 -4
  63 000c 0E       		.byte	0xe
  64 000d 0C       		.byte	0xc
  65 000e 0D       		.uleb128 0xd
  66 000f 00       		.uleb128 0x0
  67              		.align	2
  68              	.LECIE0:
  69              	.LSFDE0:
  70 0010 1C000000 		.4byte	.LEFDE0-.LASFDE0
  71              	.LASFDE0:
  72 0014 00000000 		.4byte	.Lframe0
  73 0018 00000000 		.4byte	.LFB2
  74 001c 34000000 		.4byte	.LFE2-.LFB2
  75 0020 42       		.byte	0x4
  76              		.4byte	.LCFI0-.LFB2
  77 0021 0E       		.byte	0xe
  78 0022 08       		.uleb128 0x8
  79 0023 87       		.byte	0x87
  80 0024 02       		.uleb128 0x2
  81 0025 8E       		.byte	0x8e
  82 0026 01       		.uleb128 0x1
  83 0027 42       		.byte	0x4
  84              		.4byte	.LCFI1-.LCFI0
  85 0028 0E       		.byte	0xe
  86 0029 10       		.uleb128 0x10
  87 002a 42       		.byte	0x4
  88              		.4byte	.LCFI2-.LCFI1
  89 002b 0D       		.byte	0xd
  90 002c 07       		.uleb128 0x7
  91 002d 000000   		.align	2
  92              	.LEFDE0:
  93              		.file 2 "pre_emptive_os/api/osapi.h"
  94              		.file 3 "pre_emptive_os/api/../api/general.h"
  95              		.text
  96              	.Letext0:
  97              		.section	.debug_loc,"",%progbits
  98              	.Ldebug_loc0:
  99              	.LLST0:
 100 0000 00000000 		.4byte	.LFB2-.Ltext0
 101 0004 02000000 		.4byte	.LCFI0-.Ltext0
 102 0008 0100     		.2byte	0x1
 103 000a 5D       		.byte	0x5d
 104 000b 02000000 		.4byte	.LCFI0-.Ltext0
 105 000f 04000000 		.4byte	.LCFI1-.Ltext0
ARM GAS  /cygdrive/c/DOCUME~1/deforce/LOKALA~1/Temp/ccMpnaln.s 			page 4


 106 0013 0200     		.2byte	0x2
 107 0015 7D       		.byte	0x7d
 108 0016 08       		.sleb128 8
 109 0017 04000000 		.4byte	.LCFI1-.Ltext0
 110 001b 06000000 		.4byte	.LCFI2-.Ltext0
 111 001f 0200     		.2byte	0x2
 112 0021 7D       		.byte	0x7d
 113 0022 10       		.sleb128 16
 114 0023 06000000 		.4byte	.LCFI2-.Ltext0
 115 0027 34000000 		.4byte	.LFE2-.Ltext0
 116 002b 0200     		.2byte	0x2
 117 002d 77       		.byte	0x77
 118 002e 10       		.sleb128 16
 119 002f 00000000 		.4byte	0x0
 120 0033 00000000 		.4byte	0x0
 121              		.section	.debug_info
 122 0000 36030000 		.4byte	0x336
 123 0004 0200     		.2byte	0x2
 124 0006 00000000 		.4byte	.Ldebug_abbrev0
 125 000a 04       		.byte	0x4
 126 000b 01       		.uleb128 0x1
 127 000c 00000000 		.4byte	.Ldebug_line0
 128 0010 34000000 		.4byte	.Letext0
 129 0014 00000000 		.4byte	.Ltext0
 130 0018 474E5520 		.ascii	"GNU C 4.1.1\000"
 130      4320342E 
 130      312E3100 
 131 0024 01       		.byte	0x1
 132 0025 70726F63 		.ascii	"proc1.c\000"
 132      312E6300 
 133 002d 2F637967 		.ascii	"/cygdrive/c/ultraljudprojects/Project12\000"
 133      64726976 
 133      652F632F 
 133      756C7472 
 133      616C6A75 
 134 0055 02       		.uleb128 0x2
 135 0056 74553800 		.ascii	"tU8\000"
 136 005a 03       		.byte	0x3
 137 005b 47       		.byte	0x47
 138 005c 60000000 		.4byte	0x60
 139 0060 03       		.uleb128 0x3
 140 0061 756E7369 		.ascii	"unsigned char\000"
 140      676E6564 
 140      20636861 
 140      7200
 141 006f 01       		.byte	0x1
 142 0070 08       		.byte	0x8
 143 0071 02       		.uleb128 0x2
 144 0072 74553136 		.ascii	"tU16\000"
 144      00
 145 0077 03       		.byte	0x3
 146 0078 48       		.byte	0x48
 147 0079 7D000000 		.4byte	0x7d
 148 007d 03       		.uleb128 0x3
 149 007e 73686F72 		.ascii	"short unsigned int\000"
 149      7420756E 
 149      7369676E 
ARM GAS  /cygdrive/c/DOCUME~1/deforce/LOKALA~1/Temp/ccMpnaln.s 			page 5


 149      65642069 
 149      6E7400
 150 0091 02       		.byte	0x2
 151 0092 07       		.byte	0x7
 152 0093 02       		.uleb128 0x2
 153 0094 74553332 		.ascii	"tU32\000"
 153      00
 154 0099 03       		.byte	0x3
 155 009a 49       		.byte	0x49
 156 009b 9F000000 		.4byte	0x9f
 157 009f 03       		.uleb128 0x3
 158 00a0 756E7369 		.ascii	"unsigned int\000"
 158      676E6564 
 158      20696E74 
 158      00
 159 00ad 04       		.byte	0x4
 160 00ae 07       		.byte	0x7
 161 00af 03       		.uleb128 0x3
 162 00b0 7369676E 		.ascii	"signed char\000"
 162      65642063 
 162      68617200 
 163 00bc 01       		.byte	0x1
 164 00bd 06       		.byte	0x6
 165 00be 03       		.uleb128 0x3
 166 00bf 73686F72 		.ascii	"short int\000"
 166      7420696E 
 166      7400
 167 00c9 02       		.byte	0x2
 168 00ca 05       		.byte	0x5
 169 00cb 03       		.uleb128 0x3
 170 00cc 696E7400 		.ascii	"int\000"
 171 00d0 04       		.byte	0x4
 172 00d1 05       		.byte	0x5
 173 00d2 04       		.uleb128 0x4
 174 00d3 E7010000 		.4byte	0x1e7
 175 00d7 5F744F53 		.ascii	"_tOSPCB__\000"
 175      5043425F 
 175      5F00
 176 00e1 28       		.byte	0x28
 177 00e2 02       		.byte	0x2
 178 00e3 58       		.byte	0x58
 179 00e4 05       		.uleb128 0x5
 180 00e5 7053746B 		.ascii	"pStk\000"
 180      00
 181 00ea 02       		.byte	0x2
 182 00eb 59       		.byte	0x59
 183 00ec E7010000 		.4byte	0x1e7
 184 00f0 02       		.byte	0x2
 185 00f1 23       		.byte	0x23
 186 00f2 00       		.uleb128 0x0
 187 00f3 05       		.uleb128 0x5
 188 00f4 704E6578 		.ascii	"pNextPrioQueueReady\000"
 188      74507269 
 188      6F517565 
 188      75655265 
 188      61647900 
 189 0108 02       		.byte	0x2
ARM GAS  /cygdrive/c/DOCUME~1/deforce/LOKALA~1/Temp/ccMpnaln.s 			page 6


 190 0109 5A       		.byte	0x5a
 191 010a ED010000 		.4byte	0x1ed
 192 010e 02       		.byte	0x2
 193 010f 23       		.byte	0x23
 194 0110 04       		.uleb128 0x4
 195 0111 05       		.uleb128 0x5
 196 0112 70507265 		.ascii	"pPrevPrioQueueReady\000"
 196      76507269 
 196      6F517565 
 196      75655265 
 196      61647900 
 197 0126 02       		.byte	0x2
 198 0127 5B       		.byte	0x5b
 199 0128 ED010000 		.4byte	0x1ed
 200 012c 02       		.byte	0x2
 201 012d 23       		.byte	0x23
 202 012e 08       		.uleb128 0x8
 203 012f 05       		.uleb128 0x5
 204 0130 704E6578 		.ascii	"pNextPrioQueueEvent\000"
 204      74507269 
 204      6F517565 
 204      75654576 
 204      656E7400 
 205 0144 02       		.byte	0x2
 206 0145 5C       		.byte	0x5c
 207 0146 ED010000 		.4byte	0x1ed
 208 014a 02       		.byte	0x2
 209 014b 23       		.byte	0x23
 210 014c 0C       		.uleb128 0xc
 211 014d 05       		.uleb128 0x5
 212 014e 70507265 		.ascii	"pPrevPrioQueueEvent\000"
 212      76507269 
 212      6F517565 
 212      75654576 
 212      656E7400 
 213 0162 02       		.byte	0x2
 214 0163 5D       		.byte	0x5d
 215 0164 ED010000 		.4byte	0x1ed
 216 0168 02       		.byte	0x2
 217 0169 23       		.byte	0x23
 218 016a 10       		.uleb128 0x10
 219 016b 05       		.uleb128 0x5
 220 016c 704E6578 		.ascii	"pNextTimeQueue\000"
 220      7454696D 
 220      65517565 
 220      756500
 221 017b 02       		.byte	0x2
 222 017c 5E       		.byte	0x5e
 223 017d ED010000 		.4byte	0x1ed
 224 0181 02       		.byte	0x2
 225 0182 23       		.byte	0x23
 226 0183 14       		.uleb128 0x14
 227 0184 05       		.uleb128 0x5
 228 0185 70696400 		.ascii	"pid\000"
 229 0189 02       		.byte	0x2
 230 018a 5F       		.byte	0x5f
 231 018b 55000000 		.4byte	0x55
ARM GAS  /cygdrive/c/DOCUME~1/deforce/LOKALA~1/Temp/ccMpnaln.s 			page 7


 232 018f 02       		.byte	0x2
 233 0190 23       		.byte	0x23
 234 0191 18       		.uleb128 0x18
 235 0192 05       		.uleb128 0x5
 236 0193 7072696F 		.ascii	"prio\000"
 236      00
 237 0198 02       		.byte	0x2
 238 0199 60       		.byte	0x60
 239 019a 55000000 		.4byte	0x55
 240 019e 02       		.byte	0x2
 241 019f 23       		.byte	0x23
 242 01a0 19       		.uleb128 0x19
 243 01a1 05       		.uleb128 0x5
 244 01a2 666C6167 		.ascii	"flag\000"
 244      00
 245 01a7 02       		.byte	0x2
 246 01a8 61       		.byte	0x61
 247 01a9 55000000 		.4byte	0x55
 248 01ad 02       		.byte	0x2
 249 01ae 23       		.byte	0x23
 250 01af 1A       		.uleb128 0x1a
 251 01b0 05       		.uleb128 0x5
 252 01b1 736C6565 		.ascii	"sleep\000"
 252      7000
 253 01b7 02       		.byte	0x2
 254 01b8 62       		.byte	0x62
 255 01b9 93000000 		.4byte	0x93
 256 01bd 02       		.byte	0x2
 257 01be 23       		.byte	0x23
 258 01bf 1C       		.uleb128 0x1c
 259 01c0 05       		.uleb128 0x5
 260 01c1 7053746B 		.ascii	"pStkOrg\000"
 260      4F726700 
 261 01c9 02       		.byte	0x2
 262 01ca 65       		.byte	0x65
 263 01cb E7010000 		.4byte	0x1e7
 264 01cf 02       		.byte	0x2
 265 01d0 23       		.byte	0x23
 266 01d1 20       		.uleb128 0x20
 267 01d2 05       		.uleb128 0x5
 268 01d3 73746163 		.ascii	"stackSize\000"
 268      6B53697A 
 268      6500
 269 01dd 02       		.byte	0x2
 270 01de 66       		.byte	0x66
 271 01df 71000000 		.4byte	0x71
 272 01e3 02       		.byte	0x2
 273 01e4 23       		.byte	0x23
 274 01e5 24       		.uleb128 0x24
 275 01e6 00       		.byte	0x0
 276 01e7 06       		.uleb128 0x6
 277 01e8 04       		.byte	0x4
 278 01e9 55000000 		.4byte	0x55
 279 01ed 06       		.uleb128 0x6
 280 01ee 04       		.byte	0x4
 281 01ef D2000000 		.4byte	0xd2
 282 01f3 02       		.uleb128 0x2
ARM GAS  /cygdrive/c/DOCUME~1/deforce/LOKALA~1/Temp/ccMpnaln.s 			page 8


 283 01f4 744F5350 		.ascii	"tOSPCB\000"
 283      434200
 284 01fb 02       		.byte	0x2
 285 01fc 68       		.byte	0x68
 286 01fd D2000000 		.4byte	0xd2
 287 0201 04       		.uleb128 0x4
 288 0202 3B020000 		.4byte	0x23b
 289 0206 5F745072 		.ascii	"_tPrioQueue_\000"
 289      696F5175 
 289      6575655F 
 289      00
 290 0213 18       		.byte	0x18
 291 0214 02       		.byte	0x2
 292 0215 70       		.byte	0x70
 293 0216 05       		.uleb128 0x5
 294 0217 70507269 		.ascii	"pPrioList\000"
 294      6F4C6973 
 294      7400
 295 0221 02       		.byte	0x2
 296 0222 71       		.byte	0x71
 297 0223 3B020000 		.4byte	0x23b
 298 0227 02       		.byte	0x2
 299 0228 23       		.byte	0x23
 300 0229 00       		.uleb128 0x0
 301 022a 05       		.uleb128 0x5
 302 022b 70504342 		.ascii	"pPCBs\000"
 302      7300
 303 0231 02       		.byte	0x2
 304 0232 72       		.byte	0x72
 305 0233 60020000 		.4byte	0x260
 306 0237 02       		.byte	0x2
 307 0238 23       		.byte	0x23
 308 0239 14       		.uleb128 0x14
 309 023a 00       		.byte	0x0
 310 023b 07       		.uleb128 0x7
 311 023c 4B020000 		.4byte	0x24b
 312 0240 60020000 		.4byte	0x260
 313 0244 08       		.uleb128 0x8
 314 0245 4B020000 		.4byte	0x24b
 315 0249 04       		.byte	0x4
 316 024a 00       		.byte	0x0
 317 024b 03       		.uleb128 0x3
 318 024c 6C6F6E67 		.ascii	"long unsigned int\000"
 318      20756E73 
 318      69676E65 
 318      6420696E 
 318      7400
 319 025e 04       		.byte	0x4
 320 025f 07       		.byte	0x7
 321 0260 06       		.uleb128 0x6
 322 0261 04       		.byte	0x4
 323 0262 F3010000 		.4byte	0x1f3
 324 0266 02       		.uleb128 0x2
 325 0267 74507269 		.ascii	"tPrioQueue\000"
 325      6F517565 
 325      756500
 326 0272 02       		.byte	0x2
ARM GAS  /cygdrive/c/DOCUME~1/deforce/LOKALA~1/Temp/ccMpnaln.s 			page 9


 327 0273 73       		.byte	0x73
 328 0274 01020000 		.4byte	0x201
 329 0278 04       		.uleb128 0x4
 330 0279 9C020000 		.4byte	0x29c
 331 027d 5F744F53 		.ascii	"_tOSEvent_\000"
 331      4576656E 
 331      745F00
 332 0288 18       		.byte	0x18
 333 0289 02       		.byte	0x2
 334 028a 76       		.byte	0x76
 335 028b 05       		.uleb128 0x5
 336 028c 77616974 		.ascii	"waitQ\000"
 336      5100
 337 0292 02       		.byte	0x2
 338 0293 77       		.byte	0x77
 339 0294 66020000 		.4byte	0x266
 340 0298 02       		.byte	0x2
 341 0299 23       		.byte	0x23
 342 029a 00       		.uleb128 0x0
 343 029b 00       		.byte	0x0
 344 029c 02       		.uleb128 0x2
 345 029d 744F5345 		.ascii	"tOSEvent\000"
 345      76656E74 
 345      00
 346 02a6 02       		.byte	0x2
 347 02a7 78       		.byte	0x78
 348 02a8 78020000 		.4byte	0x278
 349 02ac 04       		.uleb128 0x4
 350 02ad DA020000 		.4byte	0x2da
 351 02b1 5F74436E 		.ascii	"_tCntSem_\000"
 351      7453656D 
 351      5F00
 352 02bb 1C       		.byte	0x1c
 353 02bc 02       		.byte	0x2
 354 02bd 7B       		.byte	0x7b
 355 02be 05       		.uleb128 0x5
 356 02bf 657600   		.ascii	"ev\000"
 357 02c2 02       		.byte	0x2
 358 02c3 7C       		.byte	0x7c
 359 02c4 9C020000 		.4byte	0x29c
 360 02c8 02       		.byte	0x2
 361 02c9 23       		.byte	0x23
 362 02ca 00       		.uleb128 0x0
 363 02cb 05       		.uleb128 0x5
 364 02cc 636E7400 		.ascii	"cnt\000"
 365 02d0 02       		.byte	0x2
 366 02d1 7D       		.byte	0x7d
 367 02d2 71000000 		.4byte	0x71
 368 02d6 02       		.byte	0x2
 369 02d7 23       		.byte	0x23
 370 02d8 18       		.uleb128 0x18
 371 02d9 00       		.byte	0x0
 372 02da 02       		.uleb128 0x2
 373 02db 74436E74 		.ascii	"tCntSem\000"
 373      53656D00 
 374 02e3 02       		.byte	0x2
 375 02e4 7F       		.byte	0x7f
ARM GAS  /cygdrive/c/DOCUME~1/deforce/LOKALA~1/Temp/ccMpnaln.s 			page 10


 376 02e5 AC020000 		.4byte	0x2ac
 377 02e9 09       		.uleb128 0x9
 378 02ea 04       		.byte	0x4
 379 02eb 0A       		.uleb128 0xa
 380 02ec 27030000 		.4byte	0x327
 381 02f0 01       		.byte	0x1
 382 02f1 70726F63 		.ascii	"procEx1\000"
 382      45783100 
 383 02f9 01       		.byte	0x1
 384 02fa 22       		.byte	0x22
 385 02fb 01       		.byte	0x1
 386 02fc 00000000 		.4byte	.LFB2
 387 0300 34000000 		.4byte	.LFE2
 388 0304 00000000 		.4byte	.LLST0
 389 0308 0B       		.uleb128 0xb
 390 0309 61726700 		.ascii	"arg\000"
 391 030d 01       		.byte	0x1
 392 030e 21       		.byte	0x21
 393 030f E9020000 		.4byte	0x2e9
 394 0313 02       		.byte	0x2
 395 0314 91       		.byte	0x91
 396 0315 70       		.sleb128 -16
 397 0316 0C       		.uleb128 0xc
 398 0317 6572726F 		.ascii	"error\000"
 398      7200
 399 031d 01       		.byte	0x1
 400 031e 23       		.byte	0x23
 401 031f 60000000 		.4byte	0x60
 402 0323 02       		.byte	0x2
 403 0324 91       		.byte	0x91
 404 0325 77       		.sleb128 -9
 405 0326 00       		.byte	0x0
 406 0327 0D       		.uleb128 0xd
 407 0328 6D757465 		.ascii	"mutexLCD\000"
 407      784C4344 
 407      00
 408 0331 01       		.byte	0x1
 409 0332 1C       		.byte	0x1c
 410 0333 DA020000 		.4byte	0x2da
 411 0337 01       		.byte	0x1
 412 0338 01       		.byte	0x1
 413 0339 00       		.byte	0x0
 414              		.section	.debug_abbrev
 415 0000 01       		.uleb128 0x1
 416 0001 11       		.uleb128 0x11
 417 0002 01       		.byte	0x1
 418 0003 10       		.uleb128 0x10
 419 0004 06       		.uleb128 0x6
 420 0005 12       		.uleb128 0x12
 421 0006 01       		.uleb128 0x1
 422 0007 11       		.uleb128 0x11
 423 0008 01       		.uleb128 0x1
 424 0009 25       		.uleb128 0x25
 425 000a 08       		.uleb128 0x8
 426 000b 13       		.uleb128 0x13
 427 000c 0B       		.uleb128 0xb
 428 000d 03       		.uleb128 0x3
ARM GAS  /cygdrive/c/DOCUME~1/deforce/LOKALA~1/Temp/ccMpnaln.s 			page 11


 429 000e 08       		.uleb128 0x8
 430 000f 1B       		.uleb128 0x1b
 431 0010 08       		.uleb128 0x8
 432 0011 00       		.byte	0x0
 433 0012 00       		.byte	0x0
 434 0013 02       		.uleb128 0x2
 435 0014 16       		.uleb128 0x16
 436 0015 00       		.byte	0x0
 437 0016 03       		.uleb128 0x3
 438 0017 08       		.uleb128 0x8
 439 0018 3A       		.uleb128 0x3a
 440 0019 0B       		.uleb128 0xb
 441 001a 3B       		.uleb128 0x3b
 442 001b 0B       		.uleb128 0xb
 443 001c 49       		.uleb128 0x49
 444 001d 13       		.uleb128 0x13
 445 001e 00       		.byte	0x0
 446 001f 00       		.byte	0x0
 447 0020 03       		.uleb128 0x3
 448 0021 24       		.uleb128 0x24
 449 0022 00       		.byte	0x0
 450 0023 03       		.uleb128 0x3
 451 0024 08       		.uleb128 0x8
 452 0025 0B       		.uleb128 0xb
 453 0026 0B       		.uleb128 0xb
 454 0027 3E       		.uleb128 0x3e
 455 0028 0B       		.uleb128 0xb
 456 0029 00       		.byte	0x0
 457 002a 00       		.byte	0x0
 458 002b 04       		.uleb128 0x4
 459 002c 13       		.uleb128 0x13
 460 002d 01       		.byte	0x1
 461 002e 01       		.uleb128 0x1
 462 002f 13       		.uleb128 0x13
 463 0030 03       		.uleb128 0x3
 464 0031 08       		.uleb128 0x8
 465 0032 0B       		.uleb128 0xb
 466 0033 0B       		.uleb128 0xb
 467 0034 3A       		.uleb128 0x3a
 468 0035 0B       		.uleb128 0xb
 469 0036 3B       		.uleb128 0x3b
 470 0037 0B       		.uleb128 0xb
 471 0038 00       		.byte	0x0
 472 0039 00       		.byte	0x0
 473 003a 05       		.uleb128 0x5
 474 003b 0D       		.uleb128 0xd
 475 003c 00       		.byte	0x0
 476 003d 03       		.uleb128 0x3
 477 003e 08       		.uleb128 0x8
 478 003f 3A       		.uleb128 0x3a
 479 0040 0B       		.uleb128 0xb
 480 0041 3B       		.uleb128 0x3b
 481 0042 0B       		.uleb128 0xb
 482 0043 49       		.uleb128 0x49
 483 0044 13       		.uleb128 0x13
 484 0045 38       		.uleb128 0x38
 485 0046 0A       		.uleb128 0xa
ARM GAS  /cygdrive/c/DOCUME~1/deforce/LOKALA~1/Temp/ccMpnaln.s 			page 12


 486 0047 00       		.byte	0x0
 487 0048 00       		.byte	0x0
 488 0049 06       		.uleb128 0x6
 489 004a 0F       		.uleb128 0xf
 490 004b 00       		.byte	0x0
 491 004c 0B       		.uleb128 0xb
 492 004d 0B       		.uleb128 0xb
 493 004e 49       		.uleb128 0x49
 494 004f 13       		.uleb128 0x13
 495 0050 00       		.byte	0x0
 496 0051 00       		.byte	0x0
 497 0052 07       		.uleb128 0x7
 498 0053 01       		.uleb128 0x1
 499 0054 01       		.byte	0x1
 500 0055 01       		.uleb128 0x1
 501 0056 13       		.uleb128 0x13
 502 0057 49       		.uleb128 0x49
 503 0058 13       		.uleb128 0x13
 504 0059 00       		.byte	0x0
 505 005a 00       		.byte	0x0
 506 005b 08       		.uleb128 0x8
 507 005c 21       		.uleb128 0x21
 508 005d 00       		.byte	0x0
 509 005e 49       		.uleb128 0x49
 510 005f 13       		.uleb128 0x13
 511 0060 2F       		.uleb128 0x2f
 512 0061 0B       		.uleb128 0xb
 513 0062 00       		.byte	0x0
 514 0063 00       		.byte	0x0
 515 0064 09       		.uleb128 0x9
 516 0065 0F       		.uleb128 0xf
 517 0066 00       		.byte	0x0
 518 0067 0B       		.uleb128 0xb
 519 0068 0B       		.uleb128 0xb
 520 0069 00       		.byte	0x0
 521 006a 00       		.byte	0x0
 522 006b 0A       		.uleb128 0xa
 523 006c 2E       		.uleb128 0x2e
 524 006d 01       		.byte	0x1
 525 006e 01       		.uleb128 0x1
 526 006f 13       		.uleb128 0x13
 527 0070 3F       		.uleb128 0x3f
 528 0071 0C       		.uleb128 0xc
 529 0072 03       		.uleb128 0x3
 530 0073 08       		.uleb128 0x8
 531 0074 3A       		.uleb128 0x3a
 532 0075 0B       		.uleb128 0xb
 533 0076 3B       		.uleb128 0x3b
 534 0077 0B       		.uleb128 0xb
 535 0078 27       		.uleb128 0x27
 536 0079 0C       		.uleb128 0xc
 537 007a 11       		.uleb128 0x11
 538 007b 01       		.uleb128 0x1
 539 007c 12       		.uleb128 0x12
 540 007d 01       		.uleb128 0x1
 541 007e 40       		.uleb128 0x40
 542 007f 06       		.uleb128 0x6
ARM GAS  /cygdrive/c/DOCUME~1/deforce/LOKALA~1/Temp/ccMpnaln.s 			page 13


 543 0080 00       		.byte	0x0
 544 0081 00       		.byte	0x0
 545 0082 0B       		.uleb128 0xb
 546 0083 05       		.uleb128 0x5
 547 0084 00       		.byte	0x0
 548 0085 03       		.uleb128 0x3
 549 0086 08       		.uleb128 0x8
 550 0087 3A       		.uleb128 0x3a
 551 0088 0B       		.uleb128 0xb
 552 0089 3B       		.uleb128 0x3b
 553 008a 0B       		.uleb128 0xb
 554 008b 49       		.uleb128 0x49
 555 008c 13       		.uleb128 0x13
 556 008d 02       		.uleb128 0x2
 557 008e 0A       		.uleb128 0xa
 558 008f 00       		.byte	0x0
 559 0090 00       		.byte	0x0
 560 0091 0C       		.uleb128 0xc
 561 0092 34       		.uleb128 0x34
 562 0093 00       		.byte	0x0
 563 0094 03       		.uleb128 0x3
 564 0095 08       		.uleb128 0x8
 565 0096 3A       		.uleb128 0x3a
 566 0097 0B       		.uleb128 0xb
 567 0098 3B       		.uleb128 0x3b
 568 0099 0B       		.uleb128 0xb
 569 009a 49       		.uleb128 0x49
 570 009b 13       		.uleb128 0x13
 571 009c 02       		.uleb128 0x2
 572 009d 0A       		.uleb128 0xa
 573 009e 00       		.byte	0x0
 574 009f 00       		.byte	0x0
 575 00a0 0D       		.uleb128 0xd
 576 00a1 34       		.uleb128 0x34
 577 00a2 00       		.byte	0x0
 578 00a3 03       		.uleb128 0x3
 579 00a4 08       		.uleb128 0x8
 580 00a5 3A       		.uleb128 0x3a
 581 00a6 0B       		.uleb128 0xb
 582 00a7 3B       		.uleb128 0x3b
 583 00a8 0B       		.uleb128 0xb
 584 00a9 49       		.uleb128 0x49
 585 00aa 13       		.uleb128 0x13
 586 00ab 3F       		.uleb128 0x3f
 587 00ac 0C       		.uleb128 0xc
 588 00ad 3C       		.uleb128 0x3c
 589 00ae 0C       		.uleb128 0xc
 590 00af 00       		.byte	0x0
 591 00b0 00       		.byte	0x0
 592 00b1 00       		.byte	0x0
 593              		.section	.debug_pubnames,"",%progbits
 594 0000 1A000000 		.4byte	0x1a
 595 0004 0200     		.2byte	0x2
 596 0006 00000000 		.4byte	.Ldebug_info0
 597 000a 3A030000 		.4byte	0x33a
 598 000e EB020000 		.4byte	0x2eb
 599 0012 70726F63 		.ascii	"procEx1\000"
ARM GAS  /cygdrive/c/DOCUME~1/deforce/LOKALA~1/Temp/ccMpnaln.s 			page 14


 599      45783100 
 600 001a 00000000 		.4byte	0x0
 601              		.section	.debug_aranges,"",%progbits
 602 0000 1C000000 		.4byte	0x1c
 603 0004 0200     		.2byte	0x2
 604 0006 00000000 		.4byte	.Ldebug_info0
 605 000a 04       		.byte	0x4
 606 000b 00       		.byte	0x0
 607 000c 0000     		.2byte	0x0
 608 000e 0000     		.2byte	0x0
 609 0010 00000000 		.4byte	.Ltext0
 610 0014 34000000 		.4byte	.Letext0-.Ltext0
 611 0018 00000000 		.4byte	0x0
 612 001c 00000000 		.4byte	0x0
 613              		.ident	"GCC: (GNU) 4.1.1"
ARM GAS  /cygdrive/c/DOCUME~1/deforce/LOKALA~1/Temp/ccMpnaln.s 			page 15


DEFINED SYMBOLS
                            *ABS*:00000000 proc1.c
/cygdrive/c/DOCUME~1/deforce/LOKALA~1/Temp/ccMpnaln.s:1      .text:00000000 $t
/cygdrive/c/DOCUME~1/deforce/LOKALA~1/Temp/ccMpnaln.s:16     .text:00000000 procEx1
/cygdrive/c/DOCUME~1/deforce/LOKALA~1/Temp/ccMpnaln.s:50     .text:0000002c $d

UNDEFINED SYMBOLS
osSemTake
osSemGive
osSleep
mutexLCD
